
/home/mitch/code/typewriter-hacking/pi-pico/blink.elf:     file format elf32-littlearm

Sections:
Idx Name          Size      VMA       LMA       File off  Algn
  0 .boot2        00000100  10000000  10000000  00001000  2**0
                  CONTENTS, ALLOC, LOAD, READONLY, CODE
  1 .text         000084c8  10000100  10000100  00001100  2**3
                  CONTENTS, ALLOC, LOAD, READONLY, CODE
  2 .rodata       000005e8  100085c8  100085c8  000095c8  2**3
                  CONTENTS, ALLOC, LOAD, READONLY, DATA
  3 .binary_info  00000020  10008bb0  10008bb0  00009bb0  2**2
                  CONTENTS, ALLOC, LOAD, DATA
  4 .ram_vector_table 000000c0  20000000  20000000  0000acbc  2**2
                  CONTENTS
  5 .data         00000bfc  200000c0  10008bd0  0000a0c0  2**4
                  CONTENTS, ALLOC, LOAD, READONLY, CODE
  6 .uninitialized_data 00000000  20000cbc  20000cbc  0000ad7c  2**0
                  CONTENTS
  7 .scratch_x    00000000  20040000  20040000  0000ad7c  2**0
                  CONTENTS
  8 .scratch_y    00000000  20041000  20041000  0000ad7c  2**0
                  CONTENTS
  9 .bss          00000e00  20000cc0  20000cc0  0000acc0  2**3
                  ALLOC
 10 .heap         00000800  20001ac0  20001ac0  0000ad7c  2**2
                  CONTENTS, READONLY
 11 .stack_dummy  00000800  20041000  20041000  0000b580  2**5
                  CONTENTS, READONLY
 12 .ARM.attributes 00000028  00000000  00000000  0000bd80  2**0
                  CONTENTS, READONLY
 13 .comment      0000003c  00000000  00000000  0000bda8  2**0
                  CONTENTS, READONLY
 14 .debug_line   00002047  00000000  00000000  0000bde4  2**0
                  CONTENTS, READONLY, DEBUGGING, OCTETS
 15 .debug_line_str 00000092  00000000  00000000  0000de2b  2**0
                  CONTENTS, READONLY, DEBUGGING, OCTETS
 16 .debug_info   000063f2  00000000  00000000  0000debd  2**0
                  CONTENTS, READONLY, DEBUGGING, OCTETS
 17 .debug_abbrev 000019aa  00000000  00000000  000142af  2**0
                  CONTENTS, READONLY, DEBUGGING, OCTETS
 18 .debug_aranges 000001e8  00000000  00000000  00015c60  2**3
                  CONTENTS, READONLY, DEBUGGING, OCTETS
 19 .debug_str    00000f9e  00000000  00000000  00015e48  2**0
                  CONTENTS, READONLY, DEBUGGING, OCTETS
 20 .debug_loclists 000012c7  00000000  00000000  00016de6  2**0
                  CONTENTS, READONLY, DEBUGGING, OCTETS
 21 .debug_rnglists 00000153  00000000  00000000  000180ad  2**0
                  CONTENTS, READONLY, DEBUGGING, OCTETS
 22 .debug_frame  00000348  00000000  00000000  00018200  2**2
                  CONTENTS, READONLY, DEBUGGING, OCTETS

/home/mitch/code/typewriter-hacking/pi-pico/blink.elf:     file format elf32-littlearm


Disassembly of section .boot2:

10000000 <__boot2_start__>:
10000000:	4b32b500 	.word	0x4b32b500
10000004:	60582021 	.word	0x60582021
10000008:	21026898 	.word	0x21026898
1000000c:	60984388 	.word	0x60984388
10000010:	611860d8 	.word	0x611860d8
10000014:	4b2e6158 	.word	0x4b2e6158
10000018:	60992100 	.word	0x60992100
1000001c:	61592102 	.word	0x61592102
10000020:	22f02101 	.word	0x22f02101
10000024:	492b5099 	.word	0x492b5099
10000028:	21016019 	.word	0x21016019
1000002c:	20356099 	.word	0x20356099
10000030:	f844f000 	.word	0xf844f000
10000034:	42902202 	.word	0x42902202
10000038:	2106d014 	.word	0x2106d014
1000003c:	f0006619 	.word	0xf0006619
10000040:	6e19f834 	.word	0x6e19f834
10000044:	66192101 	.word	0x66192101
10000048:	66182000 	.word	0x66182000
1000004c:	f000661a 	.word	0xf000661a
10000050:	6e19f82c 	.word	0x6e19f82c
10000054:	6e196e19 	.word	0x6e196e19
10000058:	f0002005 	.word	0xf0002005
1000005c:	2101f82f 	.word	0x2101f82f
10000060:	d1f94208 	.word	0xd1f94208
10000064:	60992100 	.word	0x60992100
10000068:	6019491b 	.word	0x6019491b
1000006c:	60592100 	.word	0x60592100
10000070:	481b491a 	.word	0x481b491a
10000074:	21016001 	.word	0x21016001
10000078:	21eb6099 	.word	0x21eb6099
1000007c:	21a06619 	.word	0x21a06619
10000080:	f0006619 	.word	0xf0006619
10000084:	2100f812 	.word	0x2100f812
10000088:	49166099 	.word	0x49166099
1000008c:	60014814 	.word	0x60014814
10000090:	60992101 	.word	0x60992101
10000094:	2800bc01 	.word	0x2800bc01
10000098:	4700d000 	.word	0x4700d000
1000009c:	49134812 	.word	0x49134812
100000a0:	c8036008 	.word	0xc8036008
100000a4:	8808f380 	.word	0x8808f380
100000a8:	b5034708 	.word	0xb5034708
100000ac:	20046a99 	.word	0x20046a99
100000b0:	d0fb4201 	.word	0xd0fb4201
100000b4:	42012001 	.word	0x42012001
100000b8:	bd03d1f8 	.word	0xbd03d1f8
100000bc:	6618b502 	.word	0x6618b502
100000c0:	f7ff6618 	.word	0xf7ff6618
100000c4:	6e18fff2 	.word	0x6e18fff2
100000c8:	bd026e18 	.word	0xbd026e18
100000cc:	40020000 	.word	0x40020000
100000d0:	18000000 	.word	0x18000000
100000d4:	00070000 	.word	0x00070000
100000d8:	005f0300 	.word	0x005f0300
100000dc:	00002221 	.word	0x00002221
100000e0:	180000f4 	.word	0x180000f4
100000e4:	a0002022 	.word	0xa0002022
100000e8:	10000100 	.word	0x10000100
100000ec:	e000ed08 	.word	0xe000ed08
	...
100000fc:	7a4eb274 	.word	0x7a4eb274

Disassembly of section .text:

10000100 <__VECTOR_TABLE>:
10000100:	20042000 	.word	0x20042000
10000104:	100001f7 	.word	0x100001f7
10000108:	100001c3 	.word	0x100001c3
1000010c:	100001c5 	.word	0x100001c5
10000110:	100001c1 	.word	0x100001c1
10000114:	100001c1 	.word	0x100001c1
10000118:	100001c1 	.word	0x100001c1
1000011c:	100001c1 	.word	0x100001c1
10000120:	100001c1 	.word	0x100001c1
10000124:	100001c1 	.word	0x100001c1
10000128:	100001c1 	.word	0x100001c1
1000012c:	100001c7 	.word	0x100001c7
10000130:	100001c1 	.word	0x100001c1
10000134:	100001c1 	.word	0x100001c1
10000138:	100001c9 	.word	0x100001c9
1000013c:	100001cb 	.word	0x100001cb
10000140:	100001cd 	.word	0x100001cd
10000144:	100001cd 	.word	0x100001cd
10000148:	100001cd 	.word	0x100001cd
1000014c:	100001cd 	.word	0x100001cd
10000150:	100001cd 	.word	0x100001cd
10000154:	100001cd 	.word	0x100001cd
10000158:	100001cd 	.word	0x100001cd
1000015c:	100001cd 	.word	0x100001cd
10000160:	100001cd 	.word	0x100001cd
10000164:	100001cd 	.word	0x100001cd
10000168:	100001cd 	.word	0x100001cd
1000016c:	100001cd 	.word	0x100001cd
10000170:	100001cd 	.word	0x100001cd
10000174:	100001cd 	.word	0x100001cd
10000178:	100001cd 	.word	0x100001cd
1000017c:	100001cd 	.word	0x100001cd
10000180:	100001cd 	.word	0x100001cd
10000184:	100001cd 	.word	0x100001cd
10000188:	100001cd 	.word	0x100001cd
1000018c:	100001cd 	.word	0x100001cd
10000190:	100001cd 	.word	0x100001cd
10000194:	100001cd 	.word	0x100001cd
10000198:	100001cd 	.word	0x100001cd
1000019c:	100001cd 	.word	0x100001cd
100001a0:	100001cd 	.word	0x100001cd
100001a4:	100001cd 	.word	0x100001cd
100001a8:	100001cd 	.word	0x100001cd
100001ac:	100001cd 	.word	0x100001cd
100001b0:	100001cd 	.word	0x100001cd
100001b4:	100001cd 	.word	0x100001cd
100001b8:	100001cd 	.word	0x100001cd
100001bc:	100001cd 	.word	0x100001cd

100001c0 <isr_invalid>:
100001c0:	be00      	bkpt	0x0000

100001c2 <isr_nmi>:
100001c2:	be00      	bkpt	0x0000

100001c4 <isr_hardfault>:
100001c4:	be00      	bkpt	0x0000

100001c6 <isr_svcall>:
100001c6:	be00      	bkpt	0x0000

100001c8 <isr_pendsv>:
100001c8:	be00      	bkpt	0x0000

100001ca <isr_systick>:
100001ca:	be00      	bkpt	0x0000

100001cc <__unhandled_user_irq>:
100001cc:	f000 f84b 	bl	10000266 <__get_current_exception>
100001d0:	3810      	subs	r0, #16

100001d2 <unhandled_user_irq_num_in_r0>:
100001d2:	be00      	bkpt	0x0000

100001d4 <binary_info_header>:
100001d4:	7188ebf2 	.word	0x7188ebf2
100001d8:	10008bb0 	.word	0x10008bb0
100001dc:	10008bd0 	.word	0x10008bd0
100001e0:	10000234 	.word	0x10000234
100001e4:	e71aa390 	.word	0xe71aa390

100001e8 <_entry_point>:
100001e8:	2000      	movs	r0, #0
100001ea:	4921      	ldr	r1, [pc, #132]	; (10000270 <__get_current_exception+0xa>)
100001ec:	6008      	str	r0, [r1, #0]
100001ee:	c806      	ldmia	r0!, {r1, r2}
100001f0:	f381 8808 	msr	MSP, r1
100001f4:	4710      	bx	r2

100001f6 <_reset_handler>:
100001f6:	481f      	ldr	r0, [pc, #124]	; (10000274 <__get_current_exception+0xe>)
100001f8:	6800      	ldr	r0, [r0, #0]
100001fa:	2800      	cmp	r0, #0
100001fc:	d12f      	bne.n	1000025e <hold_non_core0_in_bootrom>
100001fe:	a40d      	add	r4, pc, #52	; (adr r4, 10000234 <data_cpy_table>)
10000200:	cc0e      	ldmia	r4!, {r1, r2, r3}
10000202:	2900      	cmp	r1, #0
10000204:	d002      	beq.n	1000020c <_reset_handler+0x16>
10000206:	f000 f812 	bl	1000022e <data_cpy>
1000020a:	e7f9      	b.n	10000200 <_reset_handler+0xa>
1000020c:	491a      	ldr	r1, [pc, #104]	; (10000278 <__get_current_exception+0x12>)
1000020e:	4a1b      	ldr	r2, [pc, #108]	; (1000027c <__get_current_exception+0x16>)
10000210:	2000      	movs	r0, #0
10000212:	e000      	b.n	10000216 <bss_fill_test>

10000214 <bss_fill_loop>:
10000214:	c101      	stmia	r1!, {r0}

10000216 <bss_fill_test>:
10000216:	4291      	cmp	r1, r2
10000218:	d1fc      	bne.n	10000214 <bss_fill_loop>

1000021a <platform_entry>:
1000021a:	4919      	ldr	r1, [pc, #100]	; (10000280 <__get_current_exception+0x1a>)
1000021c:	4788      	blx	r1
1000021e:	4919      	ldr	r1, [pc, #100]	; (10000284 <__get_current_exception+0x1e>)
10000220:	4788      	blx	r1
10000222:	4919      	ldr	r1, [pc, #100]	; (10000288 <__get_current_exception+0x22>)
10000224:	4788      	blx	r1
10000226:	be00      	bkpt	0x0000
10000228:	e7fd      	b.n	10000226 <platform_entry+0xc>

1000022a <data_cpy_loop>:
1000022a:	c901      	ldmia	r1!, {r0}
1000022c:	c201      	stmia	r2!, {r0}

1000022e <data_cpy>:
1000022e:	429a      	cmp	r2, r3
10000230:	d3fb      	bcc.n	1000022a <data_cpy_loop>
10000232:	4770      	bx	lr

10000234 <data_cpy_table>:
10000234:	10008bd0 	.word	0x10008bd0
10000238:	200000c0 	.word	0x200000c0
1000023c:	20000cbc 	.word	0x20000cbc
10000240:	100097cc 	.word	0x100097cc
10000244:	20040000 	.word	0x20040000
10000248:	20040000 	.word	0x20040000
1000024c:	100097cc 	.word	0x100097cc
10000250:	20041000 	.word	0x20041000
10000254:	20041000 	.word	0x20041000
10000258:	00000000 	.word	0x00000000
1000025c:	4770      	bx	lr

1000025e <hold_non_core0_in_bootrom>:
1000025e:	480b      	ldr	r0, [pc, #44]	; (1000028c <__get_current_exception+0x26>)
10000260:	f003 fe4e 	bl	10003f00 <rom_func_lookup>
10000264:	4700      	bx	r0

10000266 <__get_current_exception>:
10000266:	f3ef 8005 	mrs	r0, IPSR
1000026a:	b2c0      	uxtb	r0, r0
1000026c:	4770      	bx	lr
1000026e:	0000      	.short	0x0000
10000270:	e000ed08 	.word	0xe000ed08
10000274:	d0000000 	.word	0xd0000000
10000278:	20000cc0 	.word	0x20000cc0
1000027c:	20001ac0 	.word	0x20001ac0
10000280:	100020c1 	.word	0x100020c1
10000284:	100004f9 	.word	0x100004f9
10000288:	100021e1 	.word	0x100021e1
1000028c:	00005657 	.word	0x00005657

10000290 <__bi_50>:
10000290:	50520006 5360b3ab 10008938              ..RP..`S8...

1000029c <__bi_38>:
1000029c:	50520006 02031c86 10008948              ..RP....H...

100002a8 <__bi_30>:
100002a8:	50520006 9da22254 10008950              ..RPT"..P...

100002b4 <__bi_22>:
100002b4:	50520005 68f465de 100097cc              ..RP.e.h....

100002c0 <_init>:
100002c0:	b5f8      	push	{r3, r4, r5, r6, r7, lr}
100002c2:	46c0      	nop			; (mov r8, r8)

100002c4 <frame_dummy>:
100002c4:	4b04      	ldr	r3, [pc, #16]	; (100002d8 <frame_dummy+0x14>)
100002c6:	b510      	push	{r4, lr}
100002c8:	2b00      	cmp	r3, #0
100002ca:	d003      	beq.n	100002d4 <frame_dummy+0x10>
100002cc:	4903      	ldr	r1, [pc, #12]	; (100002dc <frame_dummy+0x18>)
100002ce:	4804      	ldr	r0, [pc, #16]	; (100002e0 <frame_dummy+0x1c>)
100002d0:	e000      	b.n	100002d4 <frame_dummy+0x10>
100002d2:	bf00      	nop
100002d4:	bd10      	pop	{r4, pc}
100002d6:	46c0      	nop			; (mov r8, r8)
100002d8:	00000000 	.word	0x00000000
100002dc:	20001a34 	.word	0x20001a34
100002e0:	100085c8 	.word	0x100085c8

100002e4 <_Z12rxIRQHandlerv>:
100002e4:	2101      	movs	r1, #1
100002e6:	4a11      	ldr	r2, [pc, #68]	; (1000032c <_Z12rxIRQHandlerv+0x48>)
100002e8:	b510      	push	{r4, lr}
100002ea:	6813      	ldr	r3, [r2, #0]
100002ec:	4c10      	ldr	r4, [pc, #64]	; (10000330 <_Z12rxIRQHandlerv+0x4c>)
100002ee:	3301      	adds	r3, #1
100002f0:	6013      	str	r3, [r2, #0]
100002f2:	4a10      	ldr	r2, [pc, #64]	; (10000334 <_Z12rxIRQHandlerv+0x50>)
100002f4:	7813      	ldrb	r3, [r2, #0]
100002f6:	404b      	eors	r3, r1
100002f8:	7013      	strb	r3, [r2, #0]
100002fa:	4b0f      	ldr	r3, [pc, #60]	; (10000338 <_Z12rxIRQHandlerv+0x54>)
100002fc:	4a0f      	ldr	r2, [pc, #60]	; (1000033c <_Z12rxIRQHandlerv+0x58>)
100002fe:	681b      	ldr	r3, [r3, #0]
10000300:	3308      	adds	r3, #8
10000302:	009b      	lsls	r3, r3, #2
10000304:	5898      	ldr	r0, [r3, r2]
10000306:	8963      	ldrh	r3, [r4, #10]
10000308:	6822      	ldr	r2, [r4, #0]
1000030a:	1c59      	adds	r1, r3, #1
1000030c:	009b      	lsls	r3, r3, #2
1000030e:	18d3      	adds	r3, r2, r3
10000310:	b289      	uxth	r1, r1
10000312:	8161      	strh	r1, [r4, #10]
10000314:	6018      	str	r0, [r3, #0]
10000316:	6861      	ldr	r1, [r4, #4]
10000318:	8960      	ldrh	r0, [r4, #10]
1000031a:	b280      	uxth	r0, r0
1000031c:	f003 fe4a 	bl	10003fb4 <__wrap___aeabi_uidiv>
10000320:	2202      	movs	r2, #2
10000322:	4b07      	ldr	r3, [pc, #28]	; (10000340 <_Z12rxIRQHandlerv+0x5c>)
10000324:	b289      	uxth	r1, r1
10000326:	8161      	strh	r1, [r4, #10]
10000328:	601a      	str	r2, [r3, #0]
1000032a:	bd10      	pop	{r4, pc}
1000032c:	20001a94 	.word	0x20001a94
10000330:	200015a0 	.word	0x200015a0
10000334:	20001ab2 	.word	0x20001ab2
10000338:	20001a70 	.word	0x20001a70
1000033c:	50200000 	.word	0x50200000
10000340:	50202030 	.word	0x50202030

10000344 <_Z25edgedetector_program_initP8pio_hw_tjjjf>:
10000344:	b5f0      	push	{r4, r5, r6, r7, lr}
10000346:	001c      	movs	r4, r3
10000348:	2300      	movs	r3, #0
1000034a:	b085      	sub	sp, #20
1000034c:	9303      	str	r3, [sp, #12]
1000034e:	2380      	movs	r3, #128	; 0x80
10000350:	025b      	lsls	r3, r3, #9
10000352:	9300      	str	r3, [sp, #0]
10000354:	23c0      	movs	r3, #192	; 0xc0
10000356:	031b      	lsls	r3, r3, #12
10000358:	9302      	str	r3, [sp, #8]
1000035a:	1dd3      	adds	r3, r2, #7
1000035c:	0015      	movs	r5, r2
1000035e:	031b      	lsls	r3, r3, #12
10000360:	01d2      	lsls	r2, r2, #7
10000362:	4313      	orrs	r3, r2
10000364:	9301      	str	r3, [sp, #4]
10000366:	4b1c      	ldr	r3, [pc, #112]	; (100003d8 <_Z25edgedetector_program_initP8pio_hw_tjjjf+0x94>)
10000368:	000f      	movs	r7, r1
1000036a:	18c1      	adds	r1, r0, r3
1000036c:	1e4b      	subs	r3, r1, #1
1000036e:	4199      	sbcs	r1, r3
10000370:	0006      	movs	r6, r0
10000372:	3106      	adds	r1, #6
10000374:	0020      	movs	r0, r4
10000376:	f000 fb93 	bl	10000aa0 <gpio_set_function>
1000037a:	9b03      	ldr	r3, [sp, #12]
1000037c:	4a17      	ldr	r2, [pc, #92]	; (100003dc <_Z25edgedetector_program_initP8pio_hw_tjjjf+0x98>)
1000037e:	03e4      	lsls	r4, r4, #15
10000380:	4013      	ands	r3, r2
10000382:	431c      	orrs	r4, r3
10000384:	9a02      	ldr	r2, [sp, #8]
10000386:	4b16      	ldr	r3, [pc, #88]	; (100003e0 <_Z25edgedetector_program_initP8pio_hw_tjjjf+0x9c>)
10000388:	980a      	ldr	r0, [sp, #40]	; 0x28
1000038a:	401a      	ands	r2, r3
1000038c:	2380      	movs	r3, #128	; 0x80
1000038e:	031b      	lsls	r3, r3, #12
10000390:	4313      	orrs	r3, r2
10000392:	9403      	str	r4, [sp, #12]
10000394:	9302      	str	r3, [sp, #8]
10000396:	f004 fc93 	bl	10004cc0 <__wrap___aeabi_f2uiz>
1000039a:	b284      	uxth	r4, r0
1000039c:	2000      	movs	r0, #0
1000039e:	2c00      	cmp	r4, #0
100003a0:	d00e      	beq.n	100003c0 <_Z25edgedetector_program_initP8pio_hw_tjjjf+0x7c>
100003a2:	0020      	movs	r0, r4
100003a4:	f004 fc64 	bl	10004c70 <__wrap___aeabi_ui2f>
100003a8:	1c01      	adds	r1, r0, #0
100003aa:	980a      	ldr	r0, [sp, #40]	; 0x28
100003ac:	f004 fc3f 	bl	10004c2e <__wrap___aeabi_fsub>
100003b0:	2187      	movs	r1, #135	; 0x87
100003b2:	05c9      	lsls	r1, r1, #23
100003b4:	f004 fc55 	bl	10004c62 <__wrap___aeabi_fmul>
100003b8:	f004 fc82 	bl	10004cc0 <__wrap___aeabi_f2uiz>
100003bc:	b2c0      	uxtb	r0, r0
100003be:	0200      	lsls	r0, r0, #8
100003c0:	0424      	lsls	r4, r4, #16
100003c2:	4304      	orrs	r4, r0
100003c4:	466b      	mov	r3, sp
100003c6:	002a      	movs	r2, r5
100003c8:	0039      	movs	r1, r7
100003ca:	0030      	movs	r0, r6
100003cc:	9400      	str	r4, [sp, #0]
100003ce:	f007 fba3 	bl	10007b18 <pio_sm_init>
100003d2:	b005      	add	sp, #20
100003d4:	bdf0      	pop	{r4, r5, r6, r7, pc}
100003d6:	46c0      	nop			; (mov r8, r8)
100003d8:	afe00000 	.word	0xafe00000
100003dc:	fff07fff 	.word	0xfff07fff
100003e0:	c000ffff 	.word	0xc000ffff

100003e4 <_Z23clkdivider_program_initP8pio_hw_tjjf>:
100003e4:	b5f0      	push	{r4, r5, r6, r7, lr}
100003e6:	46c6      	mov	lr, r8
100003e8:	0015      	movs	r5, r2
100003ea:	4698      	mov	r8, r3
100003ec:	2300      	movs	r3, #0
100003ee:	b500      	push	{lr}
100003f0:	3204      	adds	r2, #4
100003f2:	b084      	sub	sp, #16
100003f4:	9303      	str	r3, [sp, #12]
100003f6:	0312      	lsls	r2, r2, #12
100003f8:	01eb      	lsls	r3, r5, #7
100003fa:	431a      	orrs	r2, r3
100003fc:	2380      	movs	r3, #128	; 0x80
100003fe:	0006      	movs	r6, r0
10000400:	031b      	lsls	r3, r3, #12
10000402:	4640      	mov	r0, r8
10000404:	000f      	movs	r7, r1
10000406:	9201      	str	r2, [sp, #4]
10000408:	9302      	str	r3, [sp, #8]
1000040a:	f004 fc59 	bl	10004cc0 <__wrap___aeabi_f2uiz>
1000040e:	b284      	uxth	r4, r0
10000410:	2000      	movs	r0, #0
10000412:	2c00      	cmp	r4, #0
10000414:	d00e      	beq.n	10000434 <_Z23clkdivider_program_initP8pio_hw_tjjf+0x50>
10000416:	0020      	movs	r0, r4
10000418:	f004 fc2a 	bl	10004c70 <__wrap___aeabi_ui2f>
1000041c:	1c01      	adds	r1, r0, #0
1000041e:	4640      	mov	r0, r8
10000420:	f004 fc05 	bl	10004c2e <__wrap___aeabi_fsub>
10000424:	2187      	movs	r1, #135	; 0x87
10000426:	05c9      	lsls	r1, r1, #23
10000428:	f004 fc1b 	bl	10004c62 <__wrap___aeabi_fmul>
1000042c:	f004 fc48 	bl	10004cc0 <__wrap___aeabi_f2uiz>
10000430:	b2c0      	uxtb	r0, r0
10000432:	0200      	lsls	r0, r0, #8
10000434:	0424      	lsls	r4, r4, #16
10000436:	4304      	orrs	r4, r0
10000438:	466b      	mov	r3, sp
1000043a:	002a      	movs	r2, r5
1000043c:	0039      	movs	r1, r7
1000043e:	0030      	movs	r0, r6
10000440:	9400      	str	r4, [sp, #0]
10000442:	f007 fb69 	bl	10007b18 <pio_sm_init>
10000446:	b004      	add	sp, #16
10000448:	bc80      	pop	{r7}
1000044a:	46b8      	mov	r8, r7
1000044c:	bdf0      	pop	{r4, r5, r6, r7, pc}
1000044e:	46c0      	nop			; (mov r8, r8)

10000450 <_Z22busreader_program_initP8pio_hw_tjjfj>:
10000450:	b5f0      	push	{r4, r5, r6, r7, lr}
10000452:	46c6      	mov	lr, r8
10000454:	4698      	mov	r8, r3
10000456:	2300      	movs	r3, #0
10000458:	b500      	push	{lr}
1000045a:	b084      	sub	sp, #16
1000045c:	9303      	str	r3, [sp, #12]
1000045e:	2380      	movs	r3, #128	; 0x80
10000460:	025b      	lsls	r3, r3, #9
10000462:	9300      	str	r3, [sp, #0]
10000464:	0013      	movs	r3, r2
10000466:	3309      	adds	r3, #9
10000468:	0015      	movs	r5, r2
1000046a:	031b      	lsls	r3, r3, #12
1000046c:	01d2      	lsls	r2, r2, #7
1000046e:	4313      	orrs	r3, r2
10000470:	9301      	str	r3, [sp, #4]
10000472:	2380      	movs	r3, #128	; 0x80
10000474:	031b      	lsls	r3, r3, #12
10000476:	9302      	str	r3, [sp, #8]
10000478:	4b1c      	ldr	r3, [pc, #112]	; (100004ec <_Z22busreader_program_initP8pio_hw_tjjfj+0x9c>)
1000047a:	000f      	movs	r7, r1
1000047c:	18c1      	adds	r1, r0, r3
1000047e:	1e4b      	subs	r3, r1, #1
10000480:	4199      	sbcs	r1, r3
10000482:	9c0a      	ldr	r4, [sp, #40]	; 0x28
10000484:	3106      	adds	r1, #6
10000486:	0006      	movs	r6, r0
10000488:	0020      	movs	r0, r4
1000048a:	f000 fb09 	bl	10000aa0 <gpio_set_function>
1000048e:	9b03      	ldr	r3, [sp, #12]
10000490:	4a17      	ldr	r2, [pc, #92]	; (100004f0 <_Z22busreader_program_initP8pio_hw_tjjfj+0xa0>)
10000492:	4640      	mov	r0, r8
10000494:	4013      	ands	r3, r2
10000496:	03e2      	lsls	r2, r4, #15
10000498:	4313      	orrs	r3, r2
1000049a:	9303      	str	r3, [sp, #12]
1000049c:	9a01      	ldr	r2, [sp, #4]
1000049e:	4b15      	ldr	r3, [pc, #84]	; (100004f4 <_Z22busreader_program_initP8pio_hw_tjjfj+0xa4>)
100004a0:	0624      	lsls	r4, r4, #24
100004a2:	401a      	ands	r2, r3
100004a4:	4322      	orrs	r2, r4
100004a6:	9201      	str	r2, [sp, #4]
100004a8:	f004 fc0a 	bl	10004cc0 <__wrap___aeabi_f2uiz>
100004ac:	b284      	uxth	r4, r0
100004ae:	2000      	movs	r0, #0
100004b0:	2c00      	cmp	r4, #0
100004b2:	d00e      	beq.n	100004d2 <_Z22busreader_program_initP8pio_hw_tjjfj+0x82>
100004b4:	0020      	movs	r0, r4
100004b6:	f004 fbdb 	bl	10004c70 <__wrap___aeabi_ui2f>
100004ba:	1c01      	adds	r1, r0, #0
100004bc:	4640      	mov	r0, r8
100004be:	f004 fbb6 	bl	10004c2e <__wrap___aeabi_fsub>
100004c2:	2187      	movs	r1, #135	; 0x87
100004c4:	05c9      	lsls	r1, r1, #23
100004c6:	f004 fbcc 	bl	10004c62 <__wrap___aeabi_fmul>
100004ca:	f004 fbf9 	bl	10004cc0 <__wrap___aeabi_f2uiz>
100004ce:	b2c0      	uxtb	r0, r0
100004d0:	0200      	lsls	r0, r0, #8
100004d2:	0424      	lsls	r4, r4, #16
100004d4:	4304      	orrs	r4, r0
100004d6:	466b      	mov	r3, sp
100004d8:	002a      	movs	r2, r5
100004da:	0039      	movs	r1, r7
100004dc:	0030      	movs	r0, r6
100004de:	9400      	str	r4, [sp, #0]
100004e0:	f007 fb1a 	bl	10007b18 <pio_sm_init>
100004e4:	b004      	add	sp, #16
100004e6:	bc80      	pop	{r7}
100004e8:	46b8      	mov	r8, r7
100004ea:	bdf0      	pop	{r4, r5, r6, r7, pc}
100004ec:	afe00000 	.word	0xafe00000
100004f0:	fff07fff 	.word	0xfff07fff
100004f4:	e0ffffff 	.word	0xe0ffffff

100004f8 <main>:
100004f8:	b5f0      	push	{r4, r5, r6, r7, lr}
100004fa:	46de      	mov	lr, fp
100004fc:	4657      	mov	r7, sl
100004fe:	464e      	mov	r6, r9
10000500:	4645      	mov	r5, r8
10000502:	b5e0      	push	{r5, r6, r7, lr}
10000504:	b08f      	sub	sp, #60	; 0x3c
10000506:	48a6      	ldr	r0, [pc, #664]	; (100007a0 <main+0x2a8>)
10000508:	ab0d      	add	r3, sp, #52	; 0x34
1000050a:	aa0c      	add	r2, sp, #48	; 0x30
1000050c:	a90b      	add	r1, sp, #44	; 0x2c
1000050e:	f000 f9c1 	bl	10000894 <check_sys_clock_khz>
10000512:	2800      	cmp	r0, #0
10000514:	d103      	bne.n	1000051e <main+0x26>
10000516:	48a3      	ldr	r0, [pc, #652]	; (100007a4 <main+0x2ac>)
10000518:	49a1      	ldr	r1, [pc, #644]	; (100007a0 <main+0x2a8>)
1000051a:	f001 fe63 	bl	100021e4 <panic>
1000051e:	9a0d      	ldr	r2, [sp, #52]	; 0x34
10000520:	990c      	ldr	r1, [sp, #48]	; 0x30
10000522:	980b      	ldr	r0, [sp, #44]	; 0x2c
10000524:	f000 f97a 	bl	1000081c <set_sys_clock_pll>
10000528:	2019      	movs	r0, #25
1000052a:	f000 fad1 	bl	10000ad0 <gpio_init>
1000052e:	23d0      	movs	r3, #208	; 0xd0
10000530:	2280      	movs	r2, #128	; 0x80
10000532:	2180      	movs	r1, #128	; 0x80
10000534:	061b      	lsls	r3, r3, #24
10000536:	0492      	lsls	r2, r2, #18
10000538:	0289      	lsls	r1, r1, #10
1000053a:	625a      	str	r2, [r3, #36]	; 0x24
1000053c:	6299      	str	r1, [r3, #40]	; 0x28
1000053e:	2180      	movs	r1, #128	; 0x80
10000540:	4c99      	ldr	r4, [pc, #612]	; (100007a8 <main+0x2b0>)
10000542:	0249      	lsls	r1, r1, #9
10000544:	6259      	str	r1, [r3, #36]	; 0x24
10000546:	615a      	str	r2, [r3, #20]
10000548:	f004 fe02 	bl	10005150 <stdio_init_all>
1000054c:	2101      	movs	r1, #1
1000054e:	0020      	movs	r0, r4
10000550:	f007 fa4c 	bl	100079ec <pio_claim_unused_sm>
10000554:	27fe      	movs	r7, #254	; 0xfe
10000556:	0006      	movs	r6, r0
10000558:	4994      	ldr	r1, [pc, #592]	; (100007ac <main+0x2b4>)
1000055a:	0020      	movs	r0, r4
1000055c:	f007 fa64 	bl	10007a28 <pio_add_program>
10000560:	2501      	movs	r5, #1
10000562:	05bf      	lsls	r7, r7, #22
10000564:	0002      	movs	r2, r0
10000566:	0031      	movs	r1, r6
10000568:	0020      	movs	r0, r4
1000056a:	2300      	movs	r3, #0
1000056c:	9700      	str	r7, [sp, #0]
1000056e:	f7ff fee9 	bl	10000344 <_Z25edgedetector_program_initP8pio_hw_tjjjf>
10000572:	002b      	movs	r3, r5
10000574:	40b3      	lsls	r3, r6
10000576:	6822      	ldr	r2, [r4, #0]
10000578:	0029      	movs	r1, r5
1000057a:	4313      	orrs	r3, r2
1000057c:	6023      	str	r3, [r4, #0]
1000057e:	0020      	movs	r0, r4
10000580:	f007 fa34 	bl	100079ec <pio_claim_unused_sm>
10000584:	498a      	ldr	r1, [pc, #552]	; (100007b0 <main+0x2b8>)
10000586:	0006      	movs	r6, r0
10000588:	0020      	movs	r0, r4
1000058a:	f007 fa4d 	bl	10007a28 <pio_add_program>
1000058e:	0031      	movs	r1, r6
10000590:	0002      	movs	r2, r0
10000592:	1c3b      	adds	r3, r7, #0
10000594:	0020      	movs	r0, r4
10000596:	f7ff ff25 	bl	100003e4 <_Z23clkdivider_program_initP8pio_hw_tjjf>
1000059a:	002b      	movs	r3, r5
1000059c:	40b3      	lsls	r3, r6
1000059e:	6822      	ldr	r2, [r4, #0]
100005a0:	0029      	movs	r1, r5
100005a2:	4313      	orrs	r3, r2
100005a4:	6023      	str	r3, [r4, #0]
100005a6:	0020      	movs	r0, r4
100005a8:	f007 fa20 	bl	100079ec <pio_claim_unused_sm>
100005ac:	4e81      	ldr	r6, [pc, #516]	; (100007b4 <main+0x2bc>)
100005ae:	4982      	ldr	r1, [pc, #520]	; (100007b8 <main+0x2c0>)
100005b0:	6030      	str	r0, [r6, #0]
100005b2:	0020      	movs	r0, r4
100005b4:	f007 fa38 	bl	10007a28 <pio_add_program>
100005b8:	2311      	movs	r3, #17
100005ba:	9300      	str	r3, [sp, #0]
100005bc:	0002      	movs	r2, r0
100005be:	1c3b      	adds	r3, r7, #0
100005c0:	0020      	movs	r0, r4
100005c2:	6831      	ldr	r1, [r6, #0]
100005c4:	f7ff ff44 	bl	10000450 <_Z22busreader_program_initP8pio_hw_tjjfj>
100005c8:	0029      	movs	r1, r5
100005ca:	6833      	ldr	r3, [r6, #0]
100005cc:	6822      	ldr	r2, [r4, #0]
100005ce:	4099      	lsls	r1, r3
100005d0:	000b      	movs	r3, r1
100005d2:	4313      	orrs	r3, r2
100005d4:	2280      	movs	r2, #128	; 0x80
100005d6:	6023      	str	r3, [r4, #0]
100005d8:	4b78      	ldr	r3, [pc, #480]	; (100007bc <main+0x2c4>)
100005da:	0092      	lsls	r2, r2, #2
100005dc:	601a      	str	r2, [r3, #0]
100005de:	0029      	movs	r1, r5
100005e0:	2008      	movs	r0, #8
100005e2:	f000 fb4d 	bl	10000c80 <irq_set_enabled>
100005e6:	2008      	movs	r0, #8
100005e8:	4975      	ldr	r1, [pc, #468]	; (100007c0 <main+0x2c8>)
100005ea:	f000 fb81 	bl	10000cf0 <irq_set_exclusive_handler>
100005ee:	4b75      	ldr	r3, [pc, #468]	; (100007c4 <main+0x2cc>)
100005f0:	4f75      	ldr	r7, [pc, #468]	; (100007c8 <main+0x2d0>)
100005f2:	469b      	mov	fp, r3
100005f4:	4b75      	ldr	r3, [pc, #468]	; (100007cc <main+0x2d4>)
100005f6:	4d76      	ldr	r5, [pc, #472]	; (100007d0 <main+0x2d8>)
100005f8:	469a      	mov	sl, r3
100005fa:	4b76      	ldr	r3, [pc, #472]	; (100007d4 <main+0x2dc>)
100005fc:	4c76      	ldr	r4, [pc, #472]	; (100007d8 <main+0x2e0>)
100005fe:	9309      	str	r3, [sp, #36]	; 0x24
10000600:	4b76      	ldr	r3, [pc, #472]	; (100007dc <main+0x2e4>)
10000602:	9304      	str	r3, [sp, #16]
10000604:	4b76      	ldr	r3, [pc, #472]	; (100007e0 <main+0x2e8>)
10000606:	9307      	str	r3, [sp, #28]
10000608:	4b76      	ldr	r3, [pc, #472]	; (100007e4 <main+0x2ec>)
1000060a:	9308      	str	r3, [sp, #32]
1000060c:	4b76      	ldr	r3, [pc, #472]	; (100007e8 <main+0x2f0>)
1000060e:	9305      	str	r3, [sp, #20]
10000610:	4b76      	ldr	r3, [pc, #472]	; (100007ec <main+0x2f4>)
10000612:	9306      	str	r3, [sp, #24]
10000614:	897a      	ldrh	r2, [r7, #10]
10000616:	893b      	ldrh	r3, [r7, #8]
10000618:	429a      	cmp	r2, r3
1000061a:	d364      	bcc.n	100006e6 <main+0x1ee>
1000061c:	897e      	ldrh	r6, [r7, #10]
1000061e:	893b      	ldrh	r3, [r7, #8]
10000620:	1af6      	subs	r6, r6, r3
10000622:	d167      	bne.n	100006f4 <main+0x1fc>
10000624:	9b04      	ldr	r3, [sp, #16]
10000626:	781b      	ldrb	r3, [r3, #0]
10000628:	2b00      	cmp	r3, #0
1000062a:	d100      	bne.n	1000062e <main+0x136>
1000062c:	e0a7      	b.n	1000077e <main+0x286>
1000062e:	69a3      	ldr	r3, [r4, #24]
10000630:	06db      	lsls	r3, r3, #27
10000632:	d416      	bmi.n	10000662 <main+0x16a>
10000634:	2610      	movs	r6, #16
10000636:	69a3      	ldr	r3, [r4, #24]
10000638:	421e      	tst	r6, r3
1000063a:	d1fc      	bne.n	10000636 <main+0x13e>
1000063c:	6822      	ldr	r2, [r4, #0]
1000063e:	8968      	ldrh	r0, [r5, #10]
10000640:	682b      	ldr	r3, [r5, #0]
10000642:	1c41      	adds	r1, r0, #1
10000644:	181b      	adds	r3, r3, r0
10000646:	b2d2      	uxtb	r2, r2
10000648:	b289      	uxth	r1, r1
1000064a:	8169      	strh	r1, [r5, #10]
1000064c:	701a      	strb	r2, [r3, #0]
1000064e:	6869      	ldr	r1, [r5, #4]
10000650:	8968      	ldrh	r0, [r5, #10]
10000652:	b280      	uxth	r0, r0
10000654:	f003 fcae 	bl	10003fb4 <__wrap___aeabi_uidiv>
10000658:	b289      	uxth	r1, r1
1000065a:	8169      	strh	r1, [r5, #10]
1000065c:	69a3      	ldr	r3, [r4, #24]
1000065e:	421e      	tst	r6, r3
10000660:	d0e9      	beq.n	10000636 <main+0x13e>
10000662:	682b      	ldr	r3, [r5, #0]
10000664:	9703      	str	r7, [sp, #12]
10000666:	4699      	mov	r9, r3
10000668:	9b05      	ldr	r3, [sp, #20]
1000066a:	2620      	movs	r6, #32
1000066c:	2200      	movs	r2, #0
1000066e:	5e9b      	ldrsh	r3, [r3, r2]
10000670:	896a      	ldrh	r2, [r5, #10]
10000672:	4698      	mov	r8, r3
10000674:	892b      	ldrh	r3, [r5, #8]
10000676:	429a      	cmp	r2, r3
10000678:	d31b      	bcc.n	100006b2 <main+0x1ba>
1000067a:	896b      	ldrh	r3, [r5, #10]
1000067c:	892a      	ldrh	r2, [r5, #8]
1000067e:	1a9b      	subs	r3, r3, r2
10000680:	d01e      	beq.n	100006c0 <main+0x1c8>
10000682:	892b      	ldrh	r3, [r5, #8]
10000684:	1c5a      	adds	r2, r3, #1
10000686:	b292      	uxth	r2, r2
10000688:	812a      	strh	r2, [r5, #8]
1000068a:	444b      	add	r3, r9
1000068c:	781f      	ldrb	r7, [r3, #0]
1000068e:	6869      	ldr	r1, [r5, #4]
10000690:	8928      	ldrh	r0, [r5, #8]
10000692:	b2ff      	uxtb	r7, r7
10000694:	b280      	uxth	r0, r0
10000696:	f003 fc8d 	bl	10003fb4 <__wrap___aeabi_uidiv>
1000069a:	b289      	uxth	r1, r1
1000069c:	8129      	strh	r1, [r5, #8]
1000069e:	45b8      	cmp	r8, r7
100006a0:	d061      	beq.n	10000766 <main+0x26e>
100006a2:	69a3      	ldr	r3, [r4, #24]
100006a4:	421e      	tst	r6, r3
100006a6:	d1fc      	bne.n	100006a2 <main+0x1aa>
100006a8:	6027      	str	r7, [r4, #0]
100006aa:	896a      	ldrh	r2, [r5, #10]
100006ac:	892b      	ldrh	r3, [r5, #8]
100006ae:	429a      	cmp	r2, r3
100006b0:	d2e3      	bcs.n	1000067a <main+0x182>
100006b2:	686b      	ldr	r3, [r5, #4]
100006b4:	892a      	ldrh	r2, [r5, #8]
100006b6:	8969      	ldrh	r1, [r5, #10]
100006b8:	005b      	lsls	r3, r3, #1
100006ba:	1852      	adds	r2, r2, r1
100006bc:	1a9b      	subs	r3, r3, r2
100006be:	d1e0      	bne.n	10000682 <main+0x18a>
100006c0:	2201      	movs	r2, #1
100006c2:	9906      	ldr	r1, [sp, #24]
100006c4:	9f03      	ldr	r7, [sp, #12]
100006c6:	780b      	ldrb	r3, [r1, #0]
100006c8:	4053      	eors	r3, r2
100006ca:	700b      	strb	r3, [r1, #0]
100006cc:	d051      	beq.n	10000772 <main+0x27a>
100006ce:	23d0      	movs	r3, #208	; 0xd0
100006d0:	2280      	movs	r2, #128	; 0x80
100006d2:	061b      	lsls	r3, r3, #24
100006d4:	0492      	lsls	r2, r2, #18
100006d6:	615a      	str	r2, [r3, #20]
100006d8:	2064      	movs	r0, #100	; 0x64
100006da:	f001 f905 	bl	100018e8 <sleep_ms>
100006de:	897a      	ldrh	r2, [r7, #10]
100006e0:	893b      	ldrh	r3, [r7, #8]
100006e2:	429a      	cmp	r2, r3
100006e4:	d29a      	bcs.n	1000061c <main+0x124>
100006e6:	687e      	ldr	r6, [r7, #4]
100006e8:	893b      	ldrh	r3, [r7, #8]
100006ea:	897a      	ldrh	r2, [r7, #10]
100006ec:	0076      	lsls	r6, r6, #1
100006ee:	189b      	adds	r3, r3, r2
100006f0:	1af6      	subs	r6, r6, r3
100006f2:	d097      	beq.n	10000624 <main+0x12c>
100006f4:	9b09      	ldr	r3, [sp, #36]	; 0x24
100006f6:	46a9      	mov	r9, r5
100006f8:	465e      	mov	r6, fp
100006fa:	4655      	mov	r5, sl
100006fc:	4698      	mov	r8, r3
100006fe:	e020      	b.n	10000742 <main+0x24a>
10000700:	897a      	ldrh	r2, [r7, #10]
10000702:	893b      	ldrh	r3, [r7, #8]
10000704:	429a      	cmp	r2, r3
10000706:	d027      	beq.n	10000758 <main+0x260>
10000708:	6833      	ldr	r3, [r6, #0]
1000070a:	683a      	ldr	r2, [r7, #0]
1000070c:	3301      	adds	r3, #1
1000070e:	6033      	str	r3, [r6, #0]
10000710:	893b      	ldrh	r3, [r7, #8]
10000712:	1c59      	adds	r1, r3, #1
10000714:	b289      	uxth	r1, r1
10000716:	009b      	lsls	r3, r3, #2
10000718:	8139      	strh	r1, [r7, #8]
1000071a:	18d3      	adds	r3, r2, r3
1000071c:	681b      	ldr	r3, [r3, #0]
1000071e:	6879      	ldr	r1, [r7, #4]
10000720:	8938      	ldrh	r0, [r7, #8]
10000722:	469a      	mov	sl, r3
10000724:	b280      	uxth	r0, r0
10000726:	f003 fc45 	bl	10003fb4 <__wrap___aeabi_uidiv>
1000072a:	682b      	ldr	r3, [r5, #0]
1000072c:	b289      	uxth	r1, r1
1000072e:	8139      	strh	r1, [r7, #8]
10000730:	4453      	add	r3, sl
10000732:	4651      	mov	r1, sl
10000734:	4640      	mov	r0, r8
10000736:	602b      	str	r3, [r5, #0]
10000738:	f004 fcfe 	bl	10005138 <__wrap_printf>
1000073c:	2002      	movs	r0, #2
1000073e:	f001 f8d3 	bl	100018e8 <sleep_ms>
10000742:	897a      	ldrh	r2, [r7, #10]
10000744:	893b      	ldrh	r3, [r7, #8]
10000746:	429a      	cmp	r2, r3
10000748:	d2da      	bcs.n	10000700 <main+0x208>
1000074a:	687a      	ldr	r2, [r7, #4]
1000074c:	893b      	ldrh	r3, [r7, #8]
1000074e:	8979      	ldrh	r1, [r7, #10]
10000750:	0052      	lsls	r2, r2, #1
10000752:	185b      	adds	r3, r3, r1
10000754:	429a      	cmp	r2, r3
10000756:	d1d7      	bne.n	10000708 <main+0x210>
10000758:	2200      	movs	r2, #0
1000075a:	9b04      	ldr	r3, [sp, #16]
1000075c:	46aa      	mov	sl, r5
1000075e:	46b3      	mov	fp, r6
10000760:	464d      	mov	r5, r9
10000762:	701a      	strb	r2, [r3, #0]
10000764:	e763      	b.n	1000062e <main+0x136>
10000766:	69a3      	ldr	r3, [r4, #24]
10000768:	421e      	tst	r6, r3
1000076a:	d1fc      	bne.n	10000766 <main+0x26e>
1000076c:	230d      	movs	r3, #13
1000076e:	6023      	str	r3, [r4, #0]
10000770:	e797      	b.n	100006a2 <main+0x1aa>
10000772:	23d0      	movs	r3, #208	; 0xd0
10000774:	2280      	movs	r2, #128	; 0x80
10000776:	061b      	lsls	r3, r3, #24
10000778:	0492      	lsls	r2, r2, #18
1000077a:	619a      	str	r2, [r3, #24]
1000077c:	e7ac      	b.n	100006d8 <main+0x1e0>
1000077e:	9b07      	ldr	r3, [sp, #28]
10000780:	4652      	mov	r2, sl
10000782:	6819      	ldr	r1, [r3, #0]
10000784:	465b      	mov	r3, fp
10000786:	6812      	ldr	r2, [r2, #0]
10000788:	681b      	ldr	r3, [r3, #0]
1000078a:	9808      	ldr	r0, [sp, #32]
1000078c:	f004 fcd4 	bl	10005138 <__wrap_printf>
10000790:	4653      	mov	r3, sl
10000792:	601e      	str	r6, [r3, #0]
10000794:	465b      	mov	r3, fp
10000796:	601e      	str	r6, [r3, #0]
10000798:	2301      	movs	r3, #1
1000079a:	9a04      	ldr	r2, [sp, #16]
1000079c:	7013      	strb	r3, [r2, #0]
1000079e:	e746      	b.n	1000062e <main+0x136>
100007a0:	00020788 	.word	0x00020788
100007a4:	100085c8 	.word	0x100085c8
100007a8:	50200000 	.word	0x50200000
100007ac:	10008674 	.word	0x10008674
100007b0:	10008660 	.word	0x10008660
100007b4:	20001a70 	.word	0x20001a70
100007b8:	10008644 	.word	0x10008644
100007bc:	50202138 	.word	0x50202138
100007c0:	100002e5 	.word	0x100002e5
100007c4:	20000ff0 	.word	0x20000ff0
100007c8:	200015a0 	.word	0x200015a0
100007cc:	20000ff4 	.word	0x20000ff4
100007d0:	20001a5c 	.word	0x20001a5c
100007d4:	100085fc 	.word	0x100085fc
100007d8:	40034000 	.word	0x40034000
100007dc:	20001ab3 	.word	0x20001ab3
100007e0:	20001a94 	.word	0x20001a94
100007e4:	10008600 	.word	0x10008600
100007e8:	20001a98 	.word	0x20001a98
100007ec:	20000378 	.word	0x20000378

100007f0 <_GLOBAL__sub_I__Z25edgedetector_program_initP8pio_hw_tjjjf>:
100007f0:	2080      	movs	r0, #128	; 0x80
100007f2:	b510      	push	{r4, lr}
100007f4:	0080      	lsls	r0, r0, #2
100007f6:	2480      	movs	r4, #128	; 0x80
100007f8:	f004 fad6 	bl	10004da8 <_Znaj>
100007fc:	2280      	movs	r2, #128	; 0x80
100007fe:	4b05      	ldr	r3, [pc, #20]	; (10000814 <_GLOBAL__sub_I__Z25edgedetector_program_initP8pio_hw_tjjjf+0x24>)
10000800:	00e4      	lsls	r4, r4, #3
10000802:	6018      	str	r0, [r3, #0]
10000804:	0020      	movs	r0, r4
10000806:	605a      	str	r2, [r3, #4]
10000808:	f004 face 	bl	10004da8 <_Znaj>
1000080c:	4b02      	ldr	r3, [pc, #8]	; (10000818 <_GLOBAL__sub_I__Z25edgedetector_program_initP8pio_hw_tjjjf+0x28>)
1000080e:	6018      	str	r0, [r3, #0]
10000810:	605c      	str	r4, [r3, #4]
10000812:	bd10      	pop	{r4, pc}
10000814:	200015a0 	.word	0x200015a0
10000818:	20001a5c 	.word	0x20001a5c

1000081c <set_sys_clock_pll>:
1000081c:	b5f0      	push	{r4, r5, r6, r7, lr}
1000081e:	b083      	sub	sp, #12
10000820:	0005      	movs	r5, r0
10000822:	000e      	movs	r6, r1
10000824:	0014      	movs	r4, r2
10000826:	f000 f9f7 	bl	10000c18 <running_on_fpga>
1000082a:	2800      	cmp	r0, #0
1000082c:	d001      	beq.n	10000832 <set_sys_clock_pll+0x16>
1000082e:	b003      	add	sp, #12
10000830:	bdf0      	pop	{r4, r5, r6, r7, pc}
10000832:	4f15      	ldr	r7, [pc, #84]	; (10000888 <set_sys_clock_pll+0x6c>)
10000834:	2201      	movs	r2, #1
10000836:	003b      	movs	r3, r7
10000838:	2101      	movs	r1, #1
1000083a:	9700      	str	r7, [sp, #0]
1000083c:	3005      	adds	r0, #5
1000083e:	f001 fcef 	bl	10002220 <clock_configure>
10000842:	0033      	movs	r3, r6
10000844:	002a      	movs	r2, r5
10000846:	9400      	str	r4, [sp, #0]
10000848:	2101      	movs	r1, #1
1000084a:	4810      	ldr	r0, [pc, #64]	; (1000088c <set_sys_clock_pll+0x70>)
1000084c:	f001 feec 	bl	10002628 <pll_init>
10000850:	0021      	movs	r1, r4
10000852:	0028      	movs	r0, r5
10000854:	4371      	muls	r1, r6
10000856:	f003 fbad 	bl	10003fb4 <__wrap___aeabi_uidiv>
1000085a:	0004      	movs	r4, r0
1000085c:	4b0c      	ldr	r3, [pc, #48]	; (10000890 <set_sys_clock_pll+0x74>)
1000085e:	2200      	movs	r2, #0
10000860:	9300      	str	r3, [sp, #0]
10000862:	2102      	movs	r1, #2
10000864:	2004      	movs	r0, #4
10000866:	f001 fcdb 	bl	10002220 <clock_configure>
1000086a:	0023      	movs	r3, r4
1000086c:	2200      	movs	r2, #0
1000086e:	2101      	movs	r1, #1
10000870:	9400      	str	r4, [sp, #0]
10000872:	2005      	movs	r0, #5
10000874:	f001 fcd4 	bl	10002220 <clock_configure>
10000878:	003b      	movs	r3, r7
1000087a:	2202      	movs	r2, #2
1000087c:	2100      	movs	r1, #0
1000087e:	9700      	str	r7, [sp, #0]
10000880:	2006      	movs	r0, #6
10000882:	f001 fccd 	bl	10002220 <clock_configure>
10000886:	e7d2      	b.n	1000082e <set_sys_clock_pll+0x12>
10000888:	02dc6c00 	.word	0x02dc6c00
1000088c:	40028000 	.word	0x40028000
10000890:	00b71b00 	.word	0x00b71b00

10000894 <check_sys_clock_khz>:
10000894:	b5f0      	push	{r4, r5, r6, r7, lr}
10000896:	46de      	mov	lr, fp
10000898:	4657      	mov	r7, sl
1000089a:	464e      	mov	r6, r9
1000089c:	4645      	mov	r5, r8
1000089e:	b5e0      	push	{r5, r6, r7, lr}
100008a0:	0007      	movs	r7, r0
100008a2:	b083      	sub	sp, #12
100008a4:	2004      	movs	r0, #4
100008a6:	4692      	mov	sl, r2
100008a8:	4689      	mov	r9, r1
100008aa:	469b      	mov	fp, r3
100008ac:	f001 feb6 	bl	1000261c <clock_get_hz>
100008b0:	21fa      	movs	r1, #250	; 0xfa
100008b2:	0089      	lsls	r1, r1, #2
100008b4:	f003 fb7e 	bl	10003fb4 <__wrap___aeabi_uidiv>
100008b8:	2332      	movs	r3, #50	; 0x32
100008ba:	33ff      	adds	r3, #255	; 0xff
100008bc:	9300      	str	r3, [sp, #0]
100008be:	4653      	mov	r3, sl
100008c0:	46c8      	mov	r8, r9
100008c2:	4682      	mov	sl, r0
100008c4:	0086      	lsls	r6, r0, #2
100008c6:	1836      	adds	r6, r6, r0
100008c8:	01b6      	lsls	r6, r6, #6
100008ca:	9301      	str	r3, [sp, #4]
100008cc:	4b72      	ldr	r3, [pc, #456]	; (10000a98 <check_sys_clock_khz+0x204>)
100008ce:	4a73      	ldr	r2, [pc, #460]	; (10000a9c <check_sys_clock_khz+0x208>)
100008d0:	18f3      	adds	r3, r6, r3
100008d2:	4293      	cmp	r3, r2
100008d4:	d908      	bls.n	100008e8 <check_sys_clock_khz+0x54>
100008d6:	4652      	mov	r2, sl
100008d8:	9b00      	ldr	r3, [sp, #0]
100008da:	1ab6      	subs	r6, r6, r2
100008dc:	3b01      	subs	r3, #1
100008de:	9300      	str	r3, [sp, #0]
100008e0:	2b00      	cmp	r3, #0
100008e2:	d1f3      	bne.n	100008cc <check_sys_clock_khz+0x38>
100008e4:	2000      	movs	r0, #0
100008e6:	e06e      	b.n	100009c6 <check_sys_clock_khz+0x132>
100008e8:	2131      	movs	r1, #49	; 0x31
100008ea:	0030      	movs	r0, r6
100008ec:	f003 fb62 	bl	10003fb4 <__wrap___aeabi_uidiv>
100008f0:	4287      	cmp	r7, r0
100008f2:	d06f      	beq.n	100009d4 <check_sys_clock_khz+0x140>
100008f4:	2507      	movs	r5, #7
100008f6:	1e6c      	subs	r4, r5, #1
100008f8:	46a1      	mov	r9, r4
100008fa:	464c      	mov	r4, r9
100008fc:	436c      	muls	r4, r5
100008fe:	0030      	movs	r0, r6
10000900:	0021      	movs	r1, r4
10000902:	f003 fb57 	bl	10003fb4 <__wrap___aeabi_uidiv>
10000906:	4287      	cmp	r7, r0
10000908:	d04a      	beq.n	100009a0 <check_sys_clock_khz+0x10c>
1000090a:	1eab      	subs	r3, r5, #2
1000090c:	4699      	mov	r9, r3
1000090e:	2d02      	cmp	r5, #2
10000910:	d100      	bne.n	10000914 <check_sys_clock_khz+0x80>
10000912:	e0b1      	b.n	10000a78 <check_sys_clock_khz+0x1e4>
10000914:	1b64      	subs	r4, r4, r5
10000916:	0021      	movs	r1, r4
10000918:	0030      	movs	r0, r6
1000091a:	f003 fb4b 	bl	10003fb4 <__wrap___aeabi_uidiv>
1000091e:	4287      	cmp	r7, r0
10000920:	d066      	beq.n	100009f0 <check_sys_clock_khz+0x15c>
10000922:	1eeb      	subs	r3, r5, #3
10000924:	4699      	mov	r9, r3
10000926:	2d03      	cmp	r5, #3
10000928:	d068      	beq.n	100009fc <check_sys_clock_khz+0x168>
1000092a:	1b64      	subs	r4, r4, r5
1000092c:	0021      	movs	r1, r4
1000092e:	0030      	movs	r0, r6
10000930:	f003 fb40 	bl	10003fb4 <__wrap___aeabi_uidiv>
10000934:	4287      	cmp	r7, r0
10000936:	d069      	beq.n	10000a0c <check_sys_clock_khz+0x178>
10000938:	1f2b      	subs	r3, r5, #4
1000093a:	4699      	mov	r9, r3
1000093c:	2d04      	cmp	r5, #4
1000093e:	d06b      	beq.n	10000a18 <check_sys_clock_khz+0x184>
10000940:	1b64      	subs	r4, r4, r5
10000942:	0021      	movs	r1, r4
10000944:	0030      	movs	r0, r6
10000946:	f003 fb35 	bl	10003fb4 <__wrap___aeabi_uidiv>
1000094a:	4287      	cmp	r7, r0
1000094c:	d06f      	beq.n	10000a2e <check_sys_clock_khz+0x19a>
1000094e:	1f6b      	subs	r3, r5, #5
10000950:	4699      	mov	r9, r3
10000952:	2d05      	cmp	r5, #5
10000954:	d100      	bne.n	10000958 <check_sys_clock_khz+0xc4>
10000956:	e071      	b.n	10000a3c <check_sys_clock_khz+0x1a8>
10000958:	1b64      	subs	r4, r4, r5
1000095a:	0021      	movs	r1, r4
1000095c:	0030      	movs	r0, r6
1000095e:	f003 fb29 	bl	10003fb4 <__wrap___aeabi_uidiv>
10000962:	4287      	cmp	r7, r0
10000964:	d100      	bne.n	10000968 <check_sys_clock_khz+0xd4>
10000966:	e071      	b.n	10000a4c <check_sys_clock_khz+0x1b8>
10000968:	2d06      	cmp	r5, #6
1000096a:	d100      	bne.n	1000096e <check_sys_clock_khz+0xda>
1000096c:	e073      	b.n	10000a56 <check_sys_clock_khz+0x1c2>
1000096e:	0030      	movs	r0, r6
10000970:	1fe1      	subs	r1, r4, #7
10000972:	f003 fb1f 	bl	10003fb4 <__wrap___aeabi_uidiv>
10000976:	42b8      	cmp	r0, r7
10000978:	d100      	bne.n	1000097c <check_sys_clock_khz+0xe8>
1000097a:	e077      	b.n	10000a6c <check_sys_clock_khz+0x1d8>
1000097c:	2124      	movs	r1, #36	; 0x24
1000097e:	0030      	movs	r0, r6
10000980:	2506      	movs	r5, #6
10000982:	2424      	movs	r4, #36	; 0x24
10000984:	f003 fb16 	bl	10003fb4 <__wrap___aeabi_uidiv>
10000988:	4287      	cmp	r7, r0
1000098a:	d025      	beq.n	100009d8 <check_sys_clock_khz+0x144>
1000098c:	2305      	movs	r3, #5
1000098e:	4699      	mov	r9, r3
10000990:	464c      	mov	r4, r9
10000992:	436c      	muls	r4, r5
10000994:	0030      	movs	r0, r6
10000996:	0021      	movs	r1, r4
10000998:	f003 fb0c 	bl	10003fb4 <__wrap___aeabi_uidiv>
1000099c:	4287      	cmp	r7, r0
1000099e:	d1b4      	bne.n	1000090a <check_sys_clock_khz+0x76>
100009a0:	2900      	cmp	r1, #0
100009a2:	d1b2      	bne.n	1000090a <check_sys_clock_khz+0x76>
100009a4:	9b01      	ldr	r3, [sp, #4]
100009a6:	002c      	movs	r4, r5
100009a8:	469a      	mov	sl, r3
100009aa:	464d      	mov	r5, r9
100009ac:	46c1      	mov	r9, r8
100009ae:	464b      	mov	r3, r9
100009b0:	0172      	lsls	r2, r6, #5
100009b2:	1b92      	subs	r2, r2, r6
100009b4:	0092      	lsls	r2, r2, #2
100009b6:	1992      	adds	r2, r2, r6
100009b8:	00d2      	lsls	r2, r2, #3
100009ba:	601a      	str	r2, [r3, #0]
100009bc:	4653      	mov	r3, sl
100009be:	601c      	str	r4, [r3, #0]
100009c0:	465b      	mov	r3, fp
100009c2:	2001      	movs	r0, #1
100009c4:	601d      	str	r5, [r3, #0]
100009c6:	b003      	add	sp, #12
100009c8:	bcf0      	pop	{r4, r5, r6, r7}
100009ca:	46bb      	mov	fp, r7
100009cc:	46b2      	mov	sl, r6
100009ce:	46a9      	mov	r9, r5
100009d0:	46a0      	mov	r8, r4
100009d2:	bdf0      	pop	{r4, r5, r6, r7, pc}
100009d4:	2431      	movs	r4, #49	; 0x31
100009d6:	2507      	movs	r5, #7
100009d8:	0021      	movs	r1, r4
100009da:	0030      	movs	r0, r6
100009dc:	f003 faea 	bl	10003fb4 <__wrap___aeabi_uidiv>
100009e0:	2900      	cmp	r1, #0
100009e2:	d000      	beq.n	100009e6 <check_sys_clock_khz+0x152>
100009e4:	e787      	b.n	100008f6 <check_sys_clock_khz+0x62>
100009e6:	9b01      	ldr	r3, [sp, #4]
100009e8:	002c      	movs	r4, r5
100009ea:	46c1      	mov	r9, r8
100009ec:	469a      	mov	sl, r3
100009ee:	e7de      	b.n	100009ae <check_sys_clock_khz+0x11a>
100009f0:	2900      	cmp	r1, #0
100009f2:	d0d7      	beq.n	100009a4 <check_sys_clock_khz+0x110>
100009f4:	1eeb      	subs	r3, r5, #3
100009f6:	4699      	mov	r9, r3
100009f8:	2d03      	cmp	r5, #3
100009fa:	d196      	bne.n	1000092a <check_sys_clock_khz+0x96>
100009fc:	2502      	movs	r5, #2
100009fe:	2404      	movs	r4, #4
10000a00:	08b3      	lsrs	r3, r6, #2
10000a02:	429f      	cmp	r7, r3
10000a04:	d0e8      	beq.n	100009d8 <check_sys_clock_khz+0x144>
10000a06:	2301      	movs	r3, #1
10000a08:	4699      	mov	r9, r3
10000a0a:	e776      	b.n	100008fa <check_sys_clock_khz+0x66>
10000a0c:	2900      	cmp	r1, #0
10000a0e:	d0c9      	beq.n	100009a4 <check_sys_clock_khz+0x110>
10000a10:	1f2b      	subs	r3, r5, #4
10000a12:	4699      	mov	r9, r3
10000a14:	2d04      	cmp	r5, #4
10000a16:	d193      	bne.n	10000940 <check_sys_clock_khz+0xac>
10000a18:	2109      	movs	r1, #9
10000a1a:	0030      	movs	r0, r6
10000a1c:	2503      	movs	r5, #3
10000a1e:	2409      	movs	r4, #9
10000a20:	f003 fac8 	bl	10003fb4 <__wrap___aeabi_uidiv>
10000a24:	4287      	cmp	r7, r0
10000a26:	d0d7      	beq.n	100009d8 <check_sys_clock_khz+0x144>
10000a28:	2302      	movs	r3, #2
10000a2a:	4699      	mov	r9, r3
10000a2c:	e765      	b.n	100008fa <check_sys_clock_khz+0x66>
10000a2e:	2900      	cmp	r1, #0
10000a30:	d0b8      	beq.n	100009a4 <check_sys_clock_khz+0x110>
10000a32:	1f6b      	subs	r3, r5, #5
10000a34:	4699      	mov	r9, r3
10000a36:	2d05      	cmp	r5, #5
10000a38:	d000      	beq.n	10000a3c <check_sys_clock_khz+0x1a8>
10000a3a:	e78d      	b.n	10000958 <check_sys_clock_khz+0xc4>
10000a3c:	2504      	movs	r5, #4
10000a3e:	2410      	movs	r4, #16
10000a40:	0933      	lsrs	r3, r6, #4
10000a42:	429f      	cmp	r7, r3
10000a44:	d0c8      	beq.n	100009d8 <check_sys_clock_khz+0x144>
10000a46:	2303      	movs	r3, #3
10000a48:	4699      	mov	r9, r3
10000a4a:	e756      	b.n	100008fa <check_sys_clock_khz+0x66>
10000a4c:	2900      	cmp	r1, #0
10000a4e:	d0a9      	beq.n	100009a4 <check_sys_clock_khz+0x110>
10000a50:	2d06      	cmp	r5, #6
10000a52:	d000      	beq.n	10000a56 <check_sys_clock_khz+0x1c2>
10000a54:	e78b      	b.n	1000096e <check_sys_clock_khz+0xda>
10000a56:	2119      	movs	r1, #25
10000a58:	0030      	movs	r0, r6
10000a5a:	2505      	movs	r5, #5
10000a5c:	2419      	movs	r4, #25
10000a5e:	f003 faa9 	bl	10003fb4 <__wrap___aeabi_uidiv>
10000a62:	4287      	cmp	r7, r0
10000a64:	d0b8      	beq.n	100009d8 <check_sys_clock_khz+0x144>
10000a66:	2304      	movs	r3, #4
10000a68:	4699      	mov	r9, r3
10000a6a:	e746      	b.n	100008fa <check_sys_clock_khz+0x66>
10000a6c:	2900      	cmp	r1, #0
10000a6e:	d00c      	beq.n	10000a8a <check_sys_clock_khz+0x1f6>
10000a70:	2305      	movs	r3, #5
10000a72:	2506      	movs	r5, #6
10000a74:	4699      	mov	r9, r3
10000a76:	e740      	b.n	100008fa <check_sys_clock_khz+0x66>
10000a78:	42b7      	cmp	r7, r6
10000a7a:	d000      	beq.n	10000a7e <check_sys_clock_khz+0x1ea>
10000a7c:	e72b      	b.n	100008d6 <check_sys_clock_khz+0x42>
10000a7e:	9b01      	ldr	r3, [sp, #4]
10000a80:	46c1      	mov	r9, r8
10000a82:	469a      	mov	sl, r3
10000a84:	2401      	movs	r4, #1
10000a86:	2501      	movs	r5, #1
10000a88:	e791      	b.n	100009ae <check_sys_clock_khz+0x11a>
10000a8a:	9b01      	ldr	r3, [sp, #4]
10000a8c:	46c1      	mov	r9, r8
10000a8e:	469a      	mov	sl, r3
10000a90:	2407      	movs	r4, #7
10000a92:	2501      	movs	r5, #1
10000a94:	e78b      	b.n	100009ae <check_sys_clock_khz+0x11a>
10000a96:	46c0      	nop			; (mov r8, r8)
10000a98:	fff48e50 	.word	0xfff48e50
10000a9c:	000cf850 	.word	0x000cf850

10000aa0 <gpio_set_function>:
10000aa0:	4a09      	ldr	r2, [pc, #36]	; (10000ac8 <gpio_set_function+0x28>)
10000aa2:	b510      	push	{r4, lr}
10000aa4:	4694      	mov	ip, r2
10000aa6:	2440      	movs	r4, #64	; 0x40
10000aa8:	0083      	lsls	r3, r0, #2
10000aaa:	4463      	add	r3, ip
10000aac:	681a      	ldr	r2, [r3, #0]
10000aae:	00c0      	lsls	r0, r0, #3
10000ab0:	4062      	eors	r2, r4
10000ab2:	3480      	adds	r4, #128	; 0x80
10000ab4:	4014      	ands	r4, r2
10000ab6:	2280      	movs	r2, #128	; 0x80
10000ab8:	0152      	lsls	r2, r2, #5
10000aba:	4313      	orrs	r3, r2
10000abc:	601c      	str	r4, [r3, #0]
10000abe:	4b03      	ldr	r3, [pc, #12]	; (10000acc <gpio_set_function+0x2c>)
10000ac0:	469c      	mov	ip, r3
10000ac2:	4460      	add	r0, ip
10000ac4:	6041      	str	r1, [r0, #4]
10000ac6:	bd10      	pop	{r4, pc}
10000ac8:	4001c004 	.word	0x4001c004
10000acc:	40014000 	.word	0x40014000

10000ad0 <gpio_init>:
10000ad0:	2301      	movs	r3, #1
10000ad2:	22d0      	movs	r2, #208	; 0xd0
10000ad4:	4083      	lsls	r3, r0
10000ad6:	0612      	lsls	r2, r2, #24
10000ad8:	6293      	str	r3, [r2, #40]	; 0x28
10000ada:	6193      	str	r3, [r2, #24]
10000adc:	4a09      	ldr	r2, [pc, #36]	; (10000b04 <gpio_init+0x34>)
10000ade:	2140      	movs	r1, #64	; 0x40
10000ae0:	4694      	mov	ip, r2
10000ae2:	0083      	lsls	r3, r0, #2
10000ae4:	4463      	add	r3, ip
10000ae6:	681a      	ldr	r2, [r3, #0]
10000ae8:	00c0      	lsls	r0, r0, #3
10000aea:	404a      	eors	r2, r1
10000aec:	3180      	adds	r1, #128	; 0x80
10000aee:	4011      	ands	r1, r2
10000af0:	2280      	movs	r2, #128	; 0x80
10000af2:	0152      	lsls	r2, r2, #5
10000af4:	4313      	orrs	r3, r2
10000af6:	6019      	str	r1, [r3, #0]
10000af8:	4b03      	ldr	r3, [pc, #12]	; (10000b08 <gpio_init+0x38>)
10000afa:	469c      	mov	ip, r3
10000afc:	2305      	movs	r3, #5
10000afe:	4460      	add	r0, ip
10000b00:	6043      	str	r3, [r0, #4]
10000b02:	4770      	bx	lr
10000b04:	4001c004 	.word	0x4001c004
10000b08:	40014000 	.word	0x40014000

10000b0c <hw_claim_lock>:
10000b0c:	f3ef 8010 	mrs	r0, PRIMASK
10000b10:	b672      	cpsid	i
10000b12:	4a03      	ldr	r2, [pc, #12]	; (10000b20 <hw_claim_lock+0x14>)
10000b14:	6813      	ldr	r3, [r2, #0]
10000b16:	2b00      	cmp	r3, #0
10000b18:	d0fc      	beq.n	10000b14 <hw_claim_lock+0x8>
10000b1a:	f3bf 8f5f 	dmb	sy
10000b1e:	4770      	bx	lr
10000b20:	d000012c 	.word	0xd000012c

10000b24 <hw_claim_unlock>:
10000b24:	f3bf 8f5f 	dmb	sy
10000b28:	2200      	movs	r2, #0
10000b2a:	4b02      	ldr	r3, [pc, #8]	; (10000b34 <hw_claim_unlock+0x10>)
10000b2c:	601a      	str	r2, [r3, #0]
10000b2e:	f380 8810 	msr	PRIMASK, r0
10000b32:	4770      	bx	lr
10000b34:	d000012c 	.word	0xd000012c

10000b38 <hw_claim_or_assert>:
10000b38:	b570      	push	{r4, r5, r6, lr}
10000b3a:	f3ef 8c10 	mrs	ip, PRIMASK
10000b3e:	b672      	cpsid	i
10000b40:	4d0d      	ldr	r5, [pc, #52]	; (10000b78 <hw_claim_or_assert+0x40>)
10000b42:	682b      	ldr	r3, [r5, #0]
10000b44:	2b00      	cmp	r3, #0
10000b46:	d0fc      	beq.n	10000b42 <hw_claim_or_assert+0xa>
10000b48:	f3bf 8f5f 	dmb	sy
10000b4c:	2407      	movs	r4, #7
10000b4e:	08cb      	lsrs	r3, r1, #3
10000b50:	18c6      	adds	r6, r0, r3
10000b52:	5cc0      	ldrb	r0, [r0, r3]
10000b54:	2301      	movs	r3, #1
10000b56:	400c      	ands	r4, r1
10000b58:	40a3      	lsls	r3, r4
10000b5a:	001c      	movs	r4, r3
10000b5c:	4004      	ands	r4, r0
10000b5e:	4203      	tst	r3, r0
10000b60:	d107      	bne.n	10000b72 <hw_claim_or_assert+0x3a>
10000b62:	4318      	orrs	r0, r3
10000b64:	7030      	strb	r0, [r6, #0]
10000b66:	f3bf 8f5f 	dmb	sy
10000b6a:	602c      	str	r4, [r5, #0]
10000b6c:	f38c 8810 	msr	PRIMASK, ip
10000b70:	bd70      	pop	{r4, r5, r6, pc}
10000b72:	0010      	movs	r0, r2
10000b74:	f001 fb36 	bl	100021e4 <panic>
10000b78:	d000012c 	.word	0xd000012c

10000b7c <hw_claim_unused_from_range>:
10000b7c:	b5f8      	push	{r3, r4, r5, r6, r7, lr}
10000b7e:	4647      	mov	r7, r8
10000b80:	46ce      	mov	lr, r9
10000b82:	4688      	mov	r8, r1
10000b84:	b580      	push	{r7, lr}
10000b86:	f3ef 8c10 	mrs	ip, PRIMASK
10000b8a:	b672      	cpsid	i
10000b8c:	4d21      	ldr	r5, [pc, #132]	; (10000c14 <hw_claim_unused_from_range+0x98>)
10000b8e:	682c      	ldr	r4, [r5, #0]
10000b90:	2c00      	cmp	r4, #0
10000b92:	d0fc      	beq.n	10000b8e <hw_claim_unused_from_range+0x12>
10000b94:	f3bf 8f5f 	dmb	sy
10000b98:	429a      	cmp	r2, r3
10000b9a:	d82c      	bhi.n	10000bf6 <hw_claim_unused_from_range+0x7a>
10000b9c:	08d4      	lsrs	r4, r2, #3
10000b9e:	2707      	movs	r7, #7
10000ba0:	5d05      	ldrb	r5, [r0, r4]
10000ba2:	1906      	adds	r6, r0, r4
10000ba4:	2401      	movs	r4, #1
10000ba6:	4017      	ands	r7, r2
10000ba8:	40bc      	lsls	r4, r7
10000baa:	422c      	tst	r4, r5
10000bac:	d01f      	beq.n	10000bee <hw_claim_unused_from_range+0x72>
10000bae:	2107      	movs	r1, #7
10000bb0:	2701      	movs	r7, #1
10000bb2:	4689      	mov	r9, r1
10000bb4:	e009      	b.n	10000bca <hw_claim_unused_from_range+0x4e>
10000bb6:	08d4      	lsrs	r4, r2, #3
10000bb8:	5d05      	ldrb	r5, [r0, r4]
10000bba:	1906      	adds	r6, r0, r4
10000bbc:	464c      	mov	r4, r9
10000bbe:	0039      	movs	r1, r7
10000bc0:	4014      	ands	r4, r2
10000bc2:	40a1      	lsls	r1, r4
10000bc4:	000c      	movs	r4, r1
10000bc6:	4229      	tst	r1, r5
10000bc8:	d011      	beq.n	10000bee <hw_claim_unused_from_range+0x72>
10000bca:	3201      	adds	r2, #1
10000bcc:	4293      	cmp	r3, r2
10000bce:	d2f2      	bcs.n	10000bb6 <hw_claim_unused_from_range+0x3a>
10000bd0:	2001      	movs	r0, #1
10000bd2:	4240      	negs	r0, r0
10000bd4:	f3bf 8f5f 	dmb	sy
10000bd8:	2200      	movs	r2, #0
10000bda:	4b0e      	ldr	r3, [pc, #56]	; (10000c14 <hw_claim_unused_from_range+0x98>)
10000bdc:	601a      	str	r2, [r3, #0]
10000bde:	f38c 8810 	msr	PRIMASK, ip
10000be2:	2800      	cmp	r0, #0
10000be4:	db0f      	blt.n	10000c06 <hw_claim_unused_from_range+0x8a>
10000be6:	bcc0      	pop	{r6, r7}
10000be8:	46b9      	mov	r9, r7
10000bea:	46b0      	mov	r8, r6
10000bec:	bdf8      	pop	{r3, r4, r5, r6, r7, pc}
10000bee:	4325      	orrs	r5, r4
10000bf0:	0010      	movs	r0, r2
10000bf2:	7035      	strb	r5, [r6, #0]
10000bf4:	e7ee      	b.n	10000bd4 <hw_claim_unused_from_range+0x58>
10000bf6:	f3bf 8f5f 	dmb	sy
10000bfa:	2300      	movs	r3, #0
10000bfc:	602b      	str	r3, [r5, #0]
10000bfe:	f38c 8810 	msr	PRIMASK, ip
10000c02:	2001      	movs	r0, #1
10000c04:	4240      	negs	r0, r0
10000c06:	4643      	mov	r3, r8
10000c08:	2b00      	cmp	r3, #0
10000c0a:	d0ec      	beq.n	10000be6 <hw_claim_unused_from_range+0x6a>
10000c0c:	9808      	ldr	r0, [sp, #32]
10000c0e:	f001 fae9 	bl	100021e4 <panic>
10000c12:	46c0      	nop			; (mov r8, r8)
10000c14:	d000012c 	.word	0xd000012c

10000c18 <running_on_fpga>:
10000c18:	4b02      	ldr	r3, [pc, #8]	; (10000c24 <running_on_fpga+0xc>)
10000c1a:	6818      	ldr	r0, [r3, #0]
10000c1c:	0780      	lsls	r0, r0, #30
10000c1e:	0fc0      	lsrs	r0, r0, #31
10000c20:	4770      	bx	lr
10000c22:	46c0      	nop			; (mov r8, r8)
10000c24:	4006c000 	.word	0x4006c000

10000c28 <spin_locks_reset>:
10000c28:	2100      	movs	r1, #0
10000c2a:	4b04      	ldr	r3, [pc, #16]	; (10000c3c <spin_locks_reset+0x14>)
10000c2c:	4a04      	ldr	r2, [pc, #16]	; (10000c40 <spin_locks_reset+0x18>)
10000c2e:	f3bf 8f5f 	dmb	sy
10000c32:	c302      	stmia	r3!, {r1}
10000c34:	4293      	cmp	r3, r2
10000c36:	d1fa      	bne.n	10000c2e <spin_locks_reset+0x6>
10000c38:	4770      	bx	lr
10000c3a:	46c0      	nop			; (mov r8, r8)
10000c3c:	d0000100 	.word	0xd0000100
10000c40:	d0000180 	.word	0xd0000180

10000c44 <next_striped_spin_lock_num>:
10000c44:	4a04      	ldr	r2, [pc, #16]	; (10000c58 <next_striped_spin_lock_num+0x14>)
10000c46:	7810      	ldrb	r0, [r2, #0]
10000c48:	1c43      	adds	r3, r0, #1
10000c4a:	b2db      	uxtb	r3, r3
10000c4c:	2b17      	cmp	r3, #23
10000c4e:	d900      	bls.n	10000c52 <next_striped_spin_lock_num+0xe>
10000c50:	2310      	movs	r3, #16
10000c52:	7013      	strb	r3, [r2, #0]
10000c54:	4770      	bx	lr
10000c56:	46c0      	nop			; (mov r8, r8)
10000c58:	20000379 	.word	0x20000379

10000c5c <spin_lock_claim_unused>:
10000c5c:	b510      	push	{r4, lr}
10000c5e:	4b06      	ldr	r3, [pc, #24]	; (10000c78 <spin_lock_claim_unused+0x1c>)
10000c60:	4c06      	ldr	r4, [pc, #24]	; (10000c7c <spin_lock_claim_unused+0x20>)
10000c62:	b082      	sub	sp, #8
10000c64:	0001      	movs	r1, r0
10000c66:	9300      	str	r3, [sp, #0]
10000c68:	2218      	movs	r2, #24
10000c6a:	231f      	movs	r3, #31
10000c6c:	0020      	movs	r0, r4
10000c6e:	f7ff ff85 	bl	10000b7c <hw_claim_unused_from_range>
10000c72:	b002      	add	sp, #8
10000c74:	bd10      	pop	{r4, pc}
10000c76:	46c0      	nop			; (mov r8, r8)
10000c78:	1000868c 	.word	0x1000868c
10000c7c:	200015ac 	.word	0x200015ac

10000c80 <irq_set_enabled>:
10000c80:	2301      	movs	r3, #1
10000c82:	4083      	lsls	r3, r0
10000c84:	2900      	cmp	r1, #0
10000c86:	d004      	beq.n	10000c92 <irq_set_enabled+0x12>
10000c88:	4a03      	ldr	r2, [pc, #12]	; (10000c98 <irq_set_enabled+0x18>)
10000c8a:	6013      	str	r3, [r2, #0]
10000c8c:	4a03      	ldr	r2, [pc, #12]	; (10000c9c <irq_set_enabled+0x1c>)
10000c8e:	6013      	str	r3, [r2, #0]
10000c90:	4770      	bx	lr
10000c92:	4a03      	ldr	r2, [pc, #12]	; (10000ca0 <irq_set_enabled+0x20>)
10000c94:	6013      	str	r3, [r2, #0]
10000c96:	e7fb      	b.n	10000c90 <irq_set_enabled+0x10>
10000c98:	e000e280 	.word	0xe000e280
10000c9c:	e000e100 	.word	0xe000e100
10000ca0:	e000e180 	.word	0xe000e180

10000ca4 <irq_set_pending>:
10000ca4:	2301      	movs	r3, #1
10000ca6:	4083      	lsls	r3, r0
10000ca8:	4a01      	ldr	r2, [pc, #4]	; (10000cb0 <irq_set_pending+0xc>)
10000caa:	6013      	str	r3, [r2, #0]
10000cac:	4770      	bx	lr
10000cae:	46c0      	nop			; (mov r8, r8)
10000cb0:	e000e200 	.word	0xe000e200

10000cb4 <irq_has_shared_handler>:
10000cb4:	4b08      	ldr	r3, [pc, #32]	; (10000cd8 <irq_has_shared_handler+0x24>)
10000cb6:	3010      	adds	r0, #16
10000cb8:	689b      	ldr	r3, [r3, #8]
10000cba:	0080      	lsls	r0, r0, #2
10000cbc:	58c3      	ldr	r3, [r0, r3]
10000cbe:	2b00      	cmp	r3, #0
10000cc0:	d007      	beq.n	10000cd2 <irq_has_shared_handler+0x1e>
10000cc2:	4a06      	ldr	r2, [pc, #24]	; (10000cdc <irq_has_shared_handler+0x28>)
10000cc4:	2000      	movs	r0, #0
10000cc6:	1a9b      	subs	r3, r3, r2
10000cc8:	222f      	movs	r2, #47	; 0x2f
10000cca:	429a      	cmp	r2, r3
10000ccc:	4140      	adcs	r0, r0
10000cce:	b2c0      	uxtb	r0, r0
10000cd0:	4770      	bx	lr
10000cd2:	2000      	movs	r0, #0
10000cd4:	e7fc      	b.n	10000cd0 <irq_has_shared_handler+0x1c>
10000cd6:	46c0      	nop			; (mov r8, r8)
10000cd8:	e000ed00 	.word	0xe000ed00
10000cdc:	2000037c 	.word	0x2000037c

10000ce0 <irq_get_vtable_handler>:
10000ce0:	4b02      	ldr	r3, [pc, #8]	; (10000cec <irq_get_vtable_handler+0xc>)
10000ce2:	3010      	adds	r0, #16
10000ce4:	689b      	ldr	r3, [r3, #8]
10000ce6:	0080      	lsls	r0, r0, #2
10000ce8:	58c0      	ldr	r0, [r0, r3]
10000cea:	4770      	bx	lr
10000cec:	e000ed00 	.word	0xe000ed00

10000cf0 <irq_set_exclusive_handler>:
10000cf0:	b570      	push	{r4, r5, r6, lr}
10000cf2:	000d      	movs	r5, r1
10000cf4:	f3ef 8610 	mrs	r6, PRIMASK
10000cf8:	b672      	cpsid	i
10000cfa:	4a0f      	ldr	r2, [pc, #60]	; (10000d38 <irq_set_exclusive_handler+0x48>)
10000cfc:	6813      	ldr	r3, [r2, #0]
10000cfe:	2b00      	cmp	r3, #0
10000d00:	d0fc      	beq.n	10000cfc <irq_set_exclusive_handler+0xc>
10000d02:	f3bf 8f5f 	dmb	sy
10000d06:	4b0d      	ldr	r3, [pc, #52]	; (10000d3c <irq_set_exclusive_handler+0x4c>)
10000d08:	3010      	adds	r0, #16
10000d0a:	689b      	ldr	r3, [r3, #8]
10000d0c:	0084      	lsls	r4, r0, #2
10000d0e:	591b      	ldr	r3, [r3, r4]
10000d10:	4a0b      	ldr	r2, [pc, #44]	; (10000d40 <irq_set_exclusive_handler+0x50>)
10000d12:	4293      	cmp	r3, r2
10000d14:	d003      	beq.n	10000d1e <irq_set_exclusive_handler+0x2e>
10000d16:	429d      	cmp	r5, r3
10000d18:	d001      	beq.n	10000d1e <irq_set_exclusive_handler+0x2e>
10000d1a:	f001 fa7b 	bl	10002214 <hard_assertion_failure>
10000d1e:	4b07      	ldr	r3, [pc, #28]	; (10000d3c <irq_set_exclusive_handler+0x4c>)
10000d20:	689b      	ldr	r3, [r3, #8]
10000d22:	511d      	str	r5, [r3, r4]
10000d24:	f3bf 8f5f 	dmb	sy
10000d28:	f3bf 8f5f 	dmb	sy
10000d2c:	2200      	movs	r2, #0
10000d2e:	4b02      	ldr	r3, [pc, #8]	; (10000d38 <irq_set_exclusive_handler+0x48>)
10000d30:	601a      	str	r2, [r3, #0]
10000d32:	f386 8810 	msr	PRIMASK, r6
10000d36:	bd70      	pop	{r4, r5, r6, pc}
10000d38:	d0000124 	.word	0xd0000124
10000d3c:	e000ed00 	.word	0xe000ed00
10000d40:	100001cd 	.word	0x100001cd

10000d44 <irq_add_shared_handler>:
10000d44:	b5f0      	push	{r4, r5, r6, r7, lr}
10000d46:	464e      	mov	r6, r9
10000d48:	4645      	mov	r5, r8
10000d4a:	46de      	mov	lr, fp
10000d4c:	4657      	mov	r7, sl
10000d4e:	b5e0      	push	{r5, r6, r7, lr}
10000d50:	b083      	sub	sp, #12
10000d52:	0006      	movs	r6, r0
10000d54:	9100      	str	r1, [sp, #0]
10000d56:	4690      	mov	r8, r2
10000d58:	f3ef 8b10 	mrs	fp, PRIMASK
10000d5c:	b672      	cpsid	i
10000d5e:	4a66      	ldr	r2, [pc, #408]	; (10000ef8 <irq_add_shared_handler+0x1b4>)
10000d60:	6813      	ldr	r3, [r2, #0]
10000d62:	2b00      	cmp	r3, #0
10000d64:	d0fc      	beq.n	10000d60 <irq_add_shared_handler+0x1c>
10000d66:	f3bf 8f5f 	dmb	sy
10000d6a:	2500      	movs	r5, #0
10000d6c:	4b63      	ldr	r3, [pc, #396]	; (10000efc <irq_add_shared_handler+0x1b8>)
10000d6e:	575d      	ldrsb	r5, [r3, r5]
10000d70:	469a      	mov	sl, r3
10000d72:	2d00      	cmp	r5, #0
10000d74:	da00      	bge.n	10000d78 <irq_add_shared_handler+0x34>
10000d76:	e07a      	b.n	10000e6e <irq_add_shared_handler+0x12a>
10000d78:	4652      	mov	r2, sl
10000d7a:	006b      	lsls	r3, r5, #1
10000d7c:	4c60      	ldr	r4, [pc, #384]	; (10000f00 <irq_add_shared_handler+0x1bc>)
10000d7e:	195f      	adds	r7, r3, r5
10000d80:	00bf      	lsls	r7, r7, #2
10000d82:	9301      	str	r3, [sp, #4]
10000d84:	19e3      	adds	r3, r4, r7
10000d86:	4699      	mov	r9, r3
10000d88:	799b      	ldrb	r3, [r3, #6]
10000d8a:	3610      	adds	r6, #16
10000d8c:	7013      	strb	r3, [r2, #0]
10000d8e:	4b5d      	ldr	r3, [pc, #372]	; (10000f04 <irq_add_shared_handler+0x1c0>)
10000d90:	00b6      	lsls	r6, r6, #2
10000d92:	689b      	ldr	r3, [r3, #8]
10000d94:	5999      	ldr	r1, [r3, r6]
10000d96:	1b0b      	subs	r3, r1, r4
10000d98:	2b2f      	cmp	r3, #47	; 0x2f
10000d9a:	d933      	bls.n	10000e04 <irq_add_shared_handler+0xc0>
10000d9c:	4b5a      	ldr	r3, [pc, #360]	; (10000f08 <irq_add_shared_handler+0x1c4>)
10000d9e:	4299      	cmp	r1, r3
10000da0:	d000      	beq.n	10000da4 <irq_add_shared_handler+0x60>
10000da2:	e07d      	b.n	10000ea0 <irq_add_shared_handler+0x15c>
10000da4:	9b01      	ldr	r3, [sp, #4]
10000da6:	3702      	adds	r7, #2
10000da8:	469c      	mov	ip, r3
10000daa:	4b58      	ldr	r3, [pc, #352]	; (10000f0c <irq_add_shared_handler+0x1c8>)
10000dac:	4465      	add	r5, ip
10000dae:	00ad      	lsls	r5, r5, #2
10000db0:	5363      	strh	r3, [r4, r5]
10000db2:	4b57      	ldr	r3, [pc, #348]	; (10000f10 <irq_add_shared_handler+0x1cc>)
10000db4:	19e7      	adds	r7, r4, r7
10000db6:	3b04      	subs	r3, #4
10000db8:	1bdb      	subs	r3, r3, r7
10000dba:	4a56      	ldr	r2, [pc, #344]	; (10000f14 <irq_add_shared_handler+0x1d0>)
10000dbc:	051b      	lsls	r3, r3, #20
10000dbe:	0d5b      	lsrs	r3, r3, #21
10000dc0:	1965      	adds	r5, r4, r5
10000dc2:	4313      	orrs	r3, r2
10000dc4:	806b      	strh	r3, [r5, #2]
10000dc6:	4b54      	ldr	r3, [pc, #336]	; (10000f18 <irq_add_shared_handler+0x1d4>)
10000dc8:	2101      	movs	r1, #1
10000dca:	80ab      	strh	r3, [r5, #4]
10000dcc:	23ff      	movs	r3, #255	; 0xff
10000dce:	71ab      	strb	r3, [r5, #6]
10000dd0:	4643      	mov	r3, r8
10000dd2:	71eb      	strb	r3, [r5, #7]
10000dd4:	9b00      	ldr	r3, [sp, #0]
10000dd6:	60ab      	str	r3, [r5, #8]
10000dd8:	464b      	mov	r3, r9
10000dda:	430b      	orrs	r3, r1
10000ddc:	0019      	movs	r1, r3
10000dde:	4b49      	ldr	r3, [pc, #292]	; (10000f04 <irq_add_shared_handler+0x1c0>)
10000de0:	689b      	ldr	r3, [r3, #8]
10000de2:	5199      	str	r1, [r3, r6]
10000de4:	f3bf 8f5f 	dmb	sy
10000de8:	f3bf 8f5f 	dmb	sy
10000dec:	2200      	movs	r2, #0
10000dee:	4b42      	ldr	r3, [pc, #264]	; (10000ef8 <irq_add_shared_handler+0x1b4>)
10000df0:	601a      	str	r2, [r3, #0]
10000df2:	f38b 8810 	msr	PRIMASK, fp
10000df6:	b003      	add	sp, #12
10000df8:	bcf0      	pop	{r4, r5, r6, r7}
10000dfa:	46bb      	mov	fp, r7
10000dfc:	46b2      	mov	sl, r6
10000dfe:	46a9      	mov	r9, r5
10000e00:	46a0      	mov	r8, r4
10000e02:	bdf0      	pop	{r4, r5, r6, r7, pc}
10000e04:	2001      	movs	r0, #1
10000e06:	000a      	movs	r2, r1
10000e08:	4382      	bics	r2, r0
10000e0a:	79d3      	ldrb	r3, [r2, #7]
10000e0c:	4543      	cmp	r3, r8
10000e0e:	d94a      	bls.n	10000ea6 <irq_add_shared_handler+0x162>
10000e10:	46bc      	mov	ip, r7
10000e12:	4647      	mov	r7, r8
10000e14:	4688      	mov	r8, r1
10000e16:	e007      	b.n	10000e28 <irq_add_shared_handler+0xe4>
10000e18:	0058      	lsls	r0, r3, #1
10000e1a:	18c0      	adds	r0, r0, r3
10000e1c:	0080      	lsls	r0, r0, #2
10000e1e:	1820      	adds	r0, r4, r0
10000e20:	79c1      	ldrb	r1, [r0, #7]
10000e22:	42b9      	cmp	r1, r7
10000e24:	d929      	bls.n	10000e7a <irq_add_shared_handler+0x136>
10000e26:	0002      	movs	r2, r0
10000e28:	2306      	movs	r3, #6
10000e2a:	56d3      	ldrsb	r3, [r2, r3]
10000e2c:	2b00      	cmp	r3, #0
10000e2e:	daf3      	bge.n	10000e18 <irq_add_shared_handler+0xd4>
10000e30:	469a      	mov	sl, r3
10000e32:	4641      	mov	r1, r8
10000e34:	1d13      	adds	r3, r2, #4
10000e36:	46b8      	mov	r8, r7
10000e38:	27bd      	movs	r7, #189	; 0xbd
10000e3a:	469c      	mov	ip, r3
10000e3c:	023f      	lsls	r7, r7, #8
10000e3e:	4648      	mov	r0, r9
10000e40:	4663      	mov	r3, ip
10000e42:	3804      	subs	r0, #4
10000e44:	1ac0      	subs	r0, r0, r3
10000e46:	0500      	lsls	r0, r0, #20
10000e48:	4b32      	ldr	r3, [pc, #200]	; (10000f14 <irq_add_shared_handler+0x1d0>)
10000e4a:	0d40      	lsrs	r0, r0, #21
10000e4c:	4318      	orrs	r0, r3
10000e4e:	9b01      	ldr	r3, [sp, #4]
10000e50:	8090      	strh	r0, [r2, #4]
10000e52:	7195      	strb	r5, [r2, #6]
10000e54:	195a      	adds	r2, r3, r5
10000e56:	4653      	mov	r3, sl
10000e58:	0092      	lsls	r2, r2, #2
10000e5a:	18a4      	adds	r4, r4, r2
10000e5c:	71a3      	strb	r3, [r4, #6]
10000e5e:	4643      	mov	r3, r8
10000e60:	4a2e      	ldr	r2, [pc, #184]	; (10000f1c <irq_add_shared_handler+0x1d8>)
10000e62:	71e3      	strb	r3, [r4, #7]
10000e64:	9b00      	ldr	r3, [sp, #0]
10000e66:	6022      	str	r2, [r4, #0]
10000e68:	80a7      	strh	r7, [r4, #4]
10000e6a:	60a3      	str	r3, [r4, #8]
10000e6c:	e7b7      	b.n	10000dde <irq_add_shared_handler+0x9a>
10000e6e:	f001 f9d1 	bl	10002214 <hard_assertion_failure>
10000e72:	2500      	movs	r5, #0
10000e74:	4653      	mov	r3, sl
10000e76:	575d      	ldrsb	r5, [r3, r5]
10000e78:	e77e      	b.n	10000d78 <irq_add_shared_handler+0x34>
10000e7a:	469a      	mov	sl, r3
10000e7c:	4641      	mov	r1, r8
10000e7e:	1d13      	adds	r3, r2, #4
10000e80:	46b8      	mov	r8, r7
10000e82:	4667      	mov	r7, ip
10000e84:	469c      	mov	ip, r3
10000e86:	8890      	ldrh	r0, [r2, #4]
10000e88:	3704      	adds	r7, #4
10000e8a:	0540      	lsls	r0, r0, #21
10000e8c:	1500      	asrs	r0, r0, #20
10000e8e:	19e7      	adds	r7, r4, r7
10000e90:	4460      	add	r0, ip
10000e92:	1bc0      	subs	r0, r0, r7
10000e94:	27e0      	movs	r7, #224	; 0xe0
10000e96:	0500      	lsls	r0, r0, #20
10000e98:	0d40      	lsrs	r0, r0, #21
10000e9a:	023f      	lsls	r7, r7, #8
10000e9c:	4307      	orrs	r7, r0
10000e9e:	e7ce      	b.n	10000e3e <irq_add_shared_handler+0xfa>
10000ea0:	f001 f9b8 	bl	10002214 <hard_assertion_failure>
10000ea4:	e77e      	b.n	10000da4 <irq_add_shared_handler+0x60>
10000ea6:	0013      	movs	r3, r2
10000ea8:	491d      	ldr	r1, [pc, #116]	; (10000f20 <irq_add_shared_handler+0x1dc>)
10000eaa:	1b1b      	subs	r3, r3, r4
10000eac:	415b      	adcs	r3, r3
10000eae:	4359      	muls	r1, r3
10000eb0:	0d09      	lsrs	r1, r1, #20
10000eb2:	4b16      	ldr	r3, [pc, #88]	; (10000f0c <irq_add_shared_handler+0x1c8>)
10000eb4:	1cbd      	adds	r5, r7, #2
10000eb6:	53e3      	strh	r3, [r4, r7]
10000eb8:	4b15      	ldr	r3, [pc, #84]	; (10000f10 <irq_add_shared_handler+0x1cc>)
10000eba:	1965      	adds	r5, r4, r5
10000ebc:	3b04      	subs	r3, #4
10000ebe:	1b5b      	subs	r3, r3, r5
10000ec0:	051b      	lsls	r3, r3, #20
10000ec2:	4d14      	ldr	r5, [pc, #80]	; (10000f14 <irq_add_shared_handler+0x1d0>)
10000ec4:	0d5b      	lsrs	r3, r3, #21
10000ec6:	432b      	orrs	r3, r5
10000ec8:	46ac      	mov	ip, r5
10000eca:	464d      	mov	r5, r9
10000ecc:	806b      	strh	r3, [r5, #2]
10000ece:	4665      	mov	r5, ip
10000ed0:	3704      	adds	r7, #4
10000ed2:	1f13      	subs	r3, r2, #4
10000ed4:	19e7      	adds	r7, r4, r7
10000ed6:	1bdb      	subs	r3, r3, r7
10000ed8:	051b      	lsls	r3, r3, #20
10000eda:	0d5b      	lsrs	r3, r3, #21
10000edc:	431d      	orrs	r5, r3
10000ede:	464b      	mov	r3, r9
10000ee0:	7199      	strb	r1, [r3, #6]
10000ee2:	4641      	mov	r1, r8
10000ee4:	71d9      	strb	r1, [r3, #7]
10000ee6:	9900      	ldr	r1, [sp, #0]
10000ee8:	809d      	strh	r5, [r3, #4]
10000eea:	6099      	str	r1, [r3, #8]
10000eec:	4649      	mov	r1, r9
10000eee:	4b0b      	ldr	r3, [pc, #44]	; (10000f1c <irq_add_shared_handler+0x1d8>)
10000ef0:	4301      	orrs	r1, r0
10000ef2:	6013      	str	r3, [r2, #0]
10000ef4:	e773      	b.n	10000dde <irq_add_shared_handler+0x9a>
10000ef6:	46c0      	nop			; (mov r8, r8)
10000ef8:	d0000124 	.word	0xd0000124
10000efc:	20001ab9 	.word	0x20001ab9
10000f00:	2000037c 	.word	0x2000037c
10000f04:	e000ed00 	.word	0xe000ed00
10000f08:	100001cd 	.word	0x100001cd
10000f0c:	ffffa100 	.word	0xffffa100
10000f10:	200003ac 	.word	0x200003ac
10000f14:	ffffe000 	.word	0xffffe000
10000f18:	ffffbd00 	.word	0xffffbd00
10000f1c:	47804801 	.word	0x47804801
10000f20:	0000aaaa 	.word	0x0000aaaa

10000f24 <irq_remove_handler>:
10000f24:	b5f0      	push	{r4, r5, r6, r7, lr}
10000f26:	46de      	mov	lr, fp
10000f28:	4657      	mov	r7, sl
10000f2a:	464e      	mov	r6, r9
10000f2c:	4645      	mov	r5, r8
10000f2e:	b5e0      	push	{r5, r6, r7, lr}
10000f30:	000c      	movs	r4, r1
10000f32:	b083      	sub	sp, #12
10000f34:	f3ef 8a10 	mrs	sl, PRIMASK
10000f38:	b672      	cpsid	i
10000f3a:	4a60      	ldr	r2, [pc, #384]	; (100010bc <irq_remove_handler+0x198>)
10000f3c:	6813      	ldr	r3, [r2, #0]
10000f3e:	2b00      	cmp	r3, #0
10000f40:	d0fc      	beq.n	10000f3c <irq_remove_handler+0x18>
10000f42:	f3bf 8f5f 	dmb	sy
10000f46:	2210      	movs	r2, #16
10000f48:	4691      	mov	r9, r2
10000f4a:	4481      	add	r9, r0
10000f4c:	464a      	mov	r2, r9
10000f4e:	4b5c      	ldr	r3, [pc, #368]	; (100010c0 <irq_remove_handler+0x19c>)
10000f50:	0096      	lsls	r6, r2, #2
10000f52:	689b      	ldr	r3, [r3, #8]
10000f54:	599d      	ldr	r5, [r3, r6]
10000f56:	4b5b      	ldr	r3, [pc, #364]	; (100010c4 <irq_remove_handler+0x1a0>)
10000f58:	4698      	mov	r8, r3
10000f5a:	429d      	cmp	r5, r3
10000f5c:	d005      	beq.n	10000f6a <irq_remove_handler+0x46>
10000f5e:	42a5      	cmp	r5, r4
10000f60:	d016      	beq.n	10000f90 <irq_remove_handler+0x6c>
10000f62:	4f59      	ldr	r7, [pc, #356]	; (100010c8 <irq_remove_handler+0x1a4>)
10000f64:	1beb      	subs	r3, r5, r7
10000f66:	2b2f      	cmp	r3, #47	; 0x2f
10000f68:	d914      	bls.n	10000f94 <irq_remove_handler+0x70>
10000f6a:	4b55      	ldr	r3, [pc, #340]	; (100010c0 <irq_remove_handler+0x19c>)
10000f6c:	689b      	ldr	r3, [r3, #8]
10000f6e:	519d      	str	r5, [r3, r6]
10000f70:	f3bf 8f5f 	dmb	sy
10000f74:	f3bf 8f5f 	dmb	sy
10000f78:	2200      	movs	r2, #0
10000f7a:	4b50      	ldr	r3, [pc, #320]	; (100010bc <irq_remove_handler+0x198>)
10000f7c:	601a      	str	r2, [r3, #0]
10000f7e:	f38a 8810 	msr	PRIMASK, sl
10000f82:	b003      	add	sp, #12
10000f84:	bcf0      	pop	{r4, r5, r6, r7}
10000f86:	46bb      	mov	fp, r7
10000f88:	46b2      	mov	sl, r6
10000f8a:	46a9      	mov	r9, r5
10000f8c:	46a0      	mov	r8, r4
10000f8e:	bdf0      	pop	{r4, r5, r6, r7, pc}
10000f90:	001d      	movs	r5, r3
10000f92:	e7ea      	b.n	10000f6a <irq_remove_handler+0x46>
10000f94:	2301      	movs	r3, #1
10000f96:	4083      	lsls	r3, r0
10000f98:	469b      	mov	fp, r3
10000f9a:	465a      	mov	r2, fp
10000f9c:	4b4b      	ldr	r3, [pc, #300]	; (100010cc <irq_remove_handler+0x1a8>)
10000f9e:	681b      	ldr	r3, [r3, #0]
10000fa0:	401a      	ands	r2, r3
10000fa2:	9200      	str	r2, [sp, #0]
10000fa4:	465a      	mov	r2, fp
10000fa6:	4b4a      	ldr	r3, [pc, #296]	; (100010d0 <irq_remove_handler+0x1ac>)
10000fa8:	601a      	str	r2, [r3, #0]
10000faa:	f3bf 8f5f 	dmb	sy
10000fae:	f7ff f95a 	bl	10000266 <__get_current_exception>
10000fb2:	1e03      	subs	r3, r0, #0
10000fb4:	9001      	str	r0, [sp, #4]
10000fb6:	d11d      	bne.n	10000ff4 <irq_remove_handler+0xd0>
10000fb8:	002a      	movs	r2, r5
10000fba:	3301      	adds	r3, #1
10000fbc:	439a      	bics	r2, r3
10000fbe:	6890      	ldr	r0, [r2, #8]
10000fc0:	4284      	cmp	r4, r0
10000fc2:	d108      	bne.n	10000fd6 <irq_remove_handler+0xb2>
10000fc4:	e071      	b.n	100010aa <irq_remove_handler+0x186>
10000fc6:	004b      	lsls	r3, r1, #1
10000fc8:	185b      	adds	r3, r3, r1
10000fca:	009b      	lsls	r3, r3, #2
10000fcc:	18fb      	adds	r3, r7, r3
10000fce:	6898      	ldr	r0, [r3, #8]
10000fd0:	42a0      	cmp	r0, r4
10000fd2:	d045      	beq.n	10001060 <irq_remove_handler+0x13c>
10000fd4:	001a      	movs	r2, r3
10000fd6:	2106      	movs	r1, #6
10000fd8:	5651      	ldrsb	r1, [r2, r1]
10000fda:	2900      	cmp	r1, #0
10000fdc:	daf3      	bge.n	10000fc6 <irq_remove_handler+0xa2>
10000fde:	4284      	cmp	r4, r0
10000fe0:	d06a      	beq.n	100010b8 <irq_remove_handler+0x194>
10000fe2:	9b00      	ldr	r3, [sp, #0]
10000fe4:	2b00      	cmp	r3, #0
10000fe6:	d034      	beq.n	10001052 <irq_remove_handler+0x12e>
10000fe8:	465a      	mov	r2, fp
10000fea:	4b3a      	ldr	r3, [pc, #232]	; (100010d4 <irq_remove_handler+0x1b0>)
10000fec:	601a      	str	r2, [r3, #0]
10000fee:	4b37      	ldr	r3, [pc, #220]	; (100010cc <irq_remove_handler+0x1a8>)
10000ff0:	601a      	str	r2, [r3, #0]
10000ff2:	e7ba      	b.n	10000f6a <irq_remove_handler+0x46>
10000ff4:	4581      	cmp	r9, r0
10000ff6:	d130      	bne.n	1000105a <irq_remove_handler+0x136>
10000ff8:	002a      	movs	r2, r5
10000ffa:	2301      	movs	r3, #1
10000ffc:	439a      	bics	r2, r3
10000ffe:	6890      	ldr	r0, [r2, #8]
10001000:	4284      	cmp	r4, r0
10001002:	d1e8      	bne.n	10000fd6 <irq_remove_handler+0xb2>
10001004:	2106      	movs	r1, #6
10001006:	5651      	ldrsb	r1, [r2, r1]
10001008:	0013      	movs	r3, r2
1000100a:	2900      	cmp	r1, #0
1000100c:	db40      	blt.n	10001090 <irq_remove_handler+0x16c>
1000100e:	004a      	lsls	r2, r1, #1
10001010:	1850      	adds	r0, r2, r1
10001012:	0080      	lsls	r0, r0, #2
10001014:	183c      	adds	r4, r7, r0
10001016:	4680      	mov	r8, r0
10001018:	68a0      	ldr	r0, [r4, #8]
1000101a:	6098      	str	r0, [r3, #8]
1000101c:	79e0      	ldrb	r0, [r4, #7]
1000101e:	71d8      	strb	r0, [r3, #7]
10001020:	2006      	movs	r0, #6
10001022:	5620      	ldrsb	r0, [r4, r0]
10001024:	7198      	strb	r0, [r3, #6]
10001026:	2800      	cmp	r0, #0
10001028:	db2f      	blt.n	1000108a <irq_remove_handler+0x166>
1000102a:	88a4      	ldrh	r4, [r4, #4]
1000102c:	1af8      	subs	r0, r7, r3
1000102e:	0564      	lsls	r4, r4, #21
10001030:	1524      	asrs	r4, r4, #20
10001032:	4444      	add	r4, r8
10001034:	1900      	adds	r0, r0, r4
10001036:	24e0      	movs	r4, #224	; 0xe0
10001038:	0500      	lsls	r0, r0, #20
1000103a:	0d40      	lsrs	r0, r0, #21
1000103c:	0224      	lsls	r4, r4, #8
1000103e:	4320      	orrs	r0, r4
10001040:	8098      	strh	r0, [r3, #4]
10001042:	1853      	adds	r3, r2, r1
10001044:	4a24      	ldr	r2, [pc, #144]	; (100010d8 <irq_remove_handler+0x1b4>)
10001046:	009b      	lsls	r3, r3, #2
10001048:	7810      	ldrb	r0, [r2, #0]
1000104a:	18fb      	adds	r3, r7, r3
1000104c:	7198      	strb	r0, [r3, #6]
1000104e:	7011      	strb	r1, [r2, #0]
10001050:	e7c7      	b.n	10000fe2 <irq_remove_handler+0xbe>
10001052:	465a      	mov	r2, fp
10001054:	4b1e      	ldr	r3, [pc, #120]	; (100010d0 <irq_remove_handler+0x1ac>)
10001056:	601a      	str	r2, [r3, #0]
10001058:	e787      	b.n	10000f6a <irq_remove_handler+0x46>
1000105a:	f001 f8db 	bl	10002214 <hard_assertion_failure>
1000105e:	e7cb      	b.n	10000ff8 <irq_remove_handler+0xd4>
10001060:	2106      	movs	r1, #6
10001062:	5659      	ldrsb	r1, [r3, r1]
10001064:	2900      	cmp	r1, #0
10001066:	dad2      	bge.n	1000100e <irq_remove_handler+0xea>
10001068:	9901      	ldr	r1, [sp, #4]
1000106a:	2900      	cmp	r1, #0
1000106c:	d110      	bne.n	10001090 <irq_remove_handler+0x16c>
1000106e:	31ff      	adds	r1, #255	; 0xff
10001070:	7191      	strb	r1, [r2, #6]
10001072:	491a      	ldr	r1, [pc, #104]	; (100010dc <irq_remove_handler+0x1b8>)
10001074:	8091      	strh	r1, [r2, #4]
10001076:	4918      	ldr	r1, [pc, #96]	; (100010d8 <irq_remove_handler+0x1b4>)
10001078:	780a      	ldrb	r2, [r1, #0]
1000107a:	719a      	strb	r2, [r3, #6]
1000107c:	4a18      	ldr	r2, [pc, #96]	; (100010e0 <irq_remove_handler+0x1bc>)
1000107e:	1bdb      	subs	r3, r3, r7
10001080:	415b      	adcs	r3, r3
10001082:	435a      	muls	r2, r3
10001084:	0d12      	lsrs	r2, r2, #20
10001086:	700a      	strb	r2, [r1, #0]
10001088:	e7ab      	b.n	10000fe2 <irq_remove_handler+0xbe>
1000108a:	20bd      	movs	r0, #189	; 0xbd
1000108c:	0200      	lsls	r0, r0, #8
1000108e:	e7d7      	b.n	10001040 <irq_remove_handler+0x11c>
10001090:	4a14      	ldr	r2, [pc, #80]	; (100010e4 <irq_remove_handler+0x1c0>)
10001092:	4915      	ldr	r1, [pc, #84]	; (100010e8 <irq_remove_handler+0x1c4>)
10001094:	1ad2      	subs	r2, r2, r3
10001096:	3a08      	subs	r2, #8
10001098:	0250      	lsls	r0, r2, #9
1000109a:	0d40      	lsrs	r0, r0, #21
1000109c:	4301      	orrs	r1, r0
1000109e:	8099      	strh	r1, [r3, #4]
100010a0:	4912      	ldr	r1, [pc, #72]	; (100010ec <irq_remove_handler+0x1c8>)
100010a2:	0852      	lsrs	r2, r2, #1
100010a4:	430a      	orrs	r2, r1
100010a6:	80da      	strh	r2, [r3, #6]
100010a8:	e79b      	b.n	10000fe2 <irq_remove_handler+0xbe>
100010aa:	2106      	movs	r1, #6
100010ac:	5651      	ldrsb	r1, [r2, r1]
100010ae:	0013      	movs	r3, r2
100010b0:	2900      	cmp	r1, #0
100010b2:	daac      	bge.n	1000100e <irq_remove_handler+0xea>
100010b4:	4645      	mov	r5, r8
100010b6:	e7de      	b.n	10001076 <irq_remove_handler+0x152>
100010b8:	0013      	movs	r3, r2
100010ba:	e7d5      	b.n	10001068 <irq_remove_handler+0x144>
100010bc:	d0000124 	.word	0xd0000124
100010c0:	e000ed00 	.word	0xe000ed00
100010c4:	100001cd 	.word	0x100001cd
100010c8:	2000037c 	.word	0x2000037c
100010cc:	e000e100 	.word	0xe000e100
100010d0:	e000e180 	.word	0xe000e180
100010d4:	e000e280 	.word	0xe000e280
100010d8:	20001ab9 	.word	0x20001ab9
100010dc:	ffffbd00 	.word	0xffffbd00
100010e0:	0000aaaa 	.word	0x0000aaaa
100010e4:	200003b6 	.word	0x200003b6
100010e8:	fffff000 	.word	0xfffff000
100010ec:	fffff800 	.word	0xfffff800

100010f0 <irq_add_tail_to_free_list>:
100010f0:	b5f8      	push	{r3, r4, r5, r6, r7, lr}
100010f2:	2501      	movs	r5, #1
100010f4:	0004      	movs	r4, r0
100010f6:	4305      	orrs	r5, r0
100010f8:	f7ff f8b5 	bl	10000266 <__get_current_exception>
100010fc:	f3ef 8c10 	mrs	ip, PRIMASK
10001100:	b672      	cpsid	i
10001102:	4a21      	ldr	r2, [pc, #132]	; (10001188 <irq_add_tail_to_free_list+0x98>)
10001104:	6813      	ldr	r3, [r2, #0]
10001106:	2b00      	cmp	r3, #0
10001108:	d0fc      	beq.n	10001104 <irq_add_tail_to_free_list+0x14>
1000110a:	f3bf 8f5f 	dmb	sy
1000110e:	4e1f      	ldr	r6, [pc, #124]	; (1000118c <irq_add_tail_to_free_list+0x9c>)
10001110:	0021      	movs	r1, r4
10001112:	68b7      	ldr	r7, [r6, #8]
10001114:	4a1e      	ldr	r2, [pc, #120]	; (10001190 <irq_add_tail_to_free_list+0xa0>)
10001116:	4b1f      	ldr	r3, [pc, #124]	; (10001194 <irq_add_tail_to_free_list+0xa4>)
10001118:	1a89      	subs	r1, r1, r2
1000111a:	4149      	adcs	r1, r1
1000111c:	434b      	muls	r3, r1
1000111e:	0d1b      	lsrs	r3, r3, #20
10001120:	b259      	sxtb	r1, r3
10001122:	0083      	lsls	r3, r0, #2
10001124:	58f8      	ldr	r0, [r7, r3]
10001126:	42a8      	cmp	r0, r5
10001128:	d01c      	beq.n	10001164 <irq_add_tail_to_free_list+0x74>
1000112a:	2306      	movs	r3, #6
1000112c:	56d3      	ldrsb	r3, [r2, r3]
1000112e:	428b      	cmp	r3, r1
10001130:	d01c      	beq.n	1000116c <irq_add_tail_to_free_list+0x7c>
10001132:	2312      	movs	r3, #18
10001134:	56d3      	ldrsb	r3, [r2, r3]
10001136:	428b      	cmp	r3, r1
10001138:	d022      	beq.n	10001180 <irq_add_tail_to_free_list+0x90>
1000113a:	231e      	movs	r3, #30
1000113c:	56d3      	ldrsb	r3, [r2, r3]
1000113e:	428b      	cmp	r3, r1
10001140:	d020      	beq.n	10001184 <irq_add_tail_to_free_list+0x94>
10001142:	232a      	movs	r3, #42	; 0x2a
10001144:	56d3      	ldrsb	r3, [r2, r3]
10001146:	2003      	movs	r0, #3
10001148:	428b      	cmp	r3, r1
1000114a:	d010      	beq.n	1000116e <irq_add_tail_to_free_list+0x7e>
1000114c:	4b12      	ldr	r3, [pc, #72]	; (10001198 <irq_add_tail_to_free_list+0xa8>)
1000114e:	781a      	ldrb	r2, [r3, #0]
10001150:	7019      	strb	r1, [r3, #0]
10001152:	71a2      	strb	r2, [r4, #6]
10001154:	f3bf 8f5f 	dmb	sy
10001158:	2200      	movs	r2, #0
1000115a:	4b0b      	ldr	r3, [pc, #44]	; (10001188 <irq_add_tail_to_free_list+0x98>)
1000115c:	601a      	str	r2, [r3, #0]
1000115e:	f38c 8810 	msr	PRIMASK, ip
10001162:	bdf8      	pop	{r3, r4, r5, r6, r7, pc}
10001164:	68b2      	ldr	r2, [r6, #8]
10001166:	480d      	ldr	r0, [pc, #52]	; (1000119c <irq_add_tail_to_free_list+0xac>)
10001168:	50d0      	str	r0, [r2, r3]
1000116a:	e7ef      	b.n	1000114c <irq_add_tail_to_free_list+0x5c>
1000116c:	2000      	movs	r0, #0
1000116e:	0043      	lsls	r3, r0, #1
10001170:	181b      	adds	r3, r3, r0
10001172:	009b      	lsls	r3, r3, #2
10001174:	18d2      	adds	r2, r2, r3
10001176:	23ff      	movs	r3, #255	; 0xff
10001178:	7193      	strb	r3, [r2, #6]
1000117a:	4b09      	ldr	r3, [pc, #36]	; (100011a0 <irq_add_tail_to_free_list+0xb0>)
1000117c:	8093      	strh	r3, [r2, #4]
1000117e:	e7e5      	b.n	1000114c <irq_add_tail_to_free_list+0x5c>
10001180:	2001      	movs	r0, #1
10001182:	e7f4      	b.n	1000116e <irq_add_tail_to_free_list+0x7e>
10001184:	2002      	movs	r0, #2
10001186:	e7f2      	b.n	1000116e <irq_add_tail_to_free_list+0x7e>
10001188:	d0000124 	.word	0xd0000124
1000118c:	e000ed00 	.word	0xe000ed00
10001190:	2000037c 	.word	0x2000037c
10001194:	0000aaaa 	.word	0x0000aaaa
10001198:	20001ab9 	.word	0x20001ab9
1000119c:	100001cd 	.word	0x100001cd
100011a0:	ffffbd00 	.word	0xffffbd00

100011a4 <irq_init_priorities>:
100011a4:	4b05      	ldr	r3, [pc, #20]	; (100011bc <irq_init_priorities+0x18>)
100011a6:	4a06      	ldr	r2, [pc, #24]	; (100011c0 <irq_init_priorities+0x1c>)
100011a8:	6013      	str	r3, [r2, #0]
100011aa:	4a06      	ldr	r2, [pc, #24]	; (100011c4 <irq_init_priorities+0x20>)
100011ac:	6013      	str	r3, [r2, #0]
100011ae:	6053      	str	r3, [r2, #4]
100011b0:	6093      	str	r3, [r2, #8]
100011b2:	60d3      	str	r3, [r2, #12]
100011b4:	6113      	str	r3, [r2, #16]
100011b6:	6153      	str	r3, [r2, #20]
100011b8:	6193      	str	r3, [r2, #24]
100011ba:	4770      	bx	lr
100011bc:	80808080 	.word	0x80808080
100011c0:	e000e400 	.word	0xe000e400
100011c4:	e000e404 	.word	0xe000e404

100011c8 <user_irq_claim_unused>:
100011c8:	23d0      	movs	r3, #208	; 0xd0
100011ca:	b500      	push	{lr}
100011cc:	061b      	lsls	r3, r3, #24
100011ce:	681b      	ldr	r3, [r3, #0]
100011d0:	0001      	movs	r1, r0
100011d2:	4807      	ldr	r0, [pc, #28]	; (100011f0 <user_irq_claim_unused+0x28>)
100011d4:	b083      	sub	sp, #12
100011d6:	1818      	adds	r0, r3, r0
100011d8:	4b06      	ldr	r3, [pc, #24]	; (100011f4 <user_irq_claim_unused+0x2c>)
100011da:	2200      	movs	r2, #0
100011dc:	9300      	str	r3, [sp, #0]
100011de:	2305      	movs	r3, #5
100011e0:	f7ff fccc 	bl	10000b7c <hw_claim_unused_from_range>
100011e4:	2800      	cmp	r0, #0
100011e6:	db01      	blt.n	100011ec <user_irq_claim_unused+0x24>
100011e8:	231f      	movs	r3, #31
100011ea:	1a18      	subs	r0, r3, r0
100011ec:	b003      	add	sp, #12
100011ee:	bd00      	pop	{pc}
100011f0:	20001ab0 	.word	0x20001ab0
100011f4:	100086a8 	.word	0x100086a8

100011f8 <lock_init>:
100011f8:	4b02      	ldr	r3, [pc, #8]	; (10001204 <lock_init+0xc>)
100011fa:	469c      	mov	ip, r3
100011fc:	4461      	add	r1, ip
100011fe:	0089      	lsls	r1, r1, #2
10001200:	6001      	str	r1, [r0, #0]
10001202:	4770      	bx	lr
10001204:	34000040 	.word	0x34000040

10001208 <timer_pool_entry_comparator>:
10001208:	6883      	ldr	r3, [r0, #8]
1000120a:	480b      	ldr	r0, [pc, #44]	; (10001238 <timer_pool_entry_comparator+0x30>)
1000120c:	b510      	push	{r4, lr}
1000120e:	4684      	mov	ip, r0
10001210:	4461      	add	r1, ip
10001212:	4462      	add	r2, ip
10001214:	0112      	lsls	r2, r2, #4
10001216:	0109      	lsls	r1, r1, #4
10001218:	1859      	adds	r1, r3, r1
1000121a:	189b      	adds	r3, r3, r2
1000121c:	685c      	ldr	r4, [r3, #4]
1000121e:	684a      	ldr	r2, [r1, #4]
10001220:	2001      	movs	r0, #1
10001222:	4294      	cmp	r4, r2
10001224:	d801      	bhi.n	1000122a <timer_pool_entry_comparator+0x22>
10001226:	d002      	beq.n	1000122e <timer_pool_entry_comparator+0x26>
10001228:	2000      	movs	r0, #0
1000122a:	b2c0      	uxtb	r0, r0
1000122c:	bd10      	pop	{r4, pc}
1000122e:	681a      	ldr	r2, [r3, #0]
10001230:	680b      	ldr	r3, [r1, #0]
10001232:	429a      	cmp	r2, r3
10001234:	d8f9      	bhi.n	1000122a <timer_pool_entry_comparator+0x22>
10001236:	e7f7      	b.n	10001228 <timer_pool_entry_comparator+0x20>
10001238:	0fffffff 	.word	0x0fffffff

1000123c <sleep_until_callback>:
1000123c:	4b0a      	ldr	r3, [pc, #40]	; (10001268 <sleep_until_callback+0x2c>)
1000123e:	6819      	ldr	r1, [r3, #0]
10001240:	f3ef 8010 	mrs	r0, PRIMASK
10001244:	b672      	cpsid	i
10001246:	680a      	ldr	r2, [r1, #0]
10001248:	2a00      	cmp	r2, #0
1000124a:	d0fc      	beq.n	10001246 <sleep_until_callback+0xa>
1000124c:	f3bf 8f5f 	dmb	sy
10001250:	681b      	ldr	r3, [r3, #0]
10001252:	f3bf 8f5f 	dmb	sy
10001256:	2200      	movs	r2, #0
10001258:	601a      	str	r2, [r3, #0]
1000125a:	f380 8810 	msr	PRIMASK, r0
1000125e:	bf40      	sev
10001260:	2000      	movs	r0, #0
10001262:	2100      	movs	r1, #0
10001264:	4770      	bx	lr
10001266:	46c0      	nop			; (mov r8, r8)
10001268:	20001a78 	.word	0x20001a78

1000126c <add_alarm_under_lock.isra.0>:
1000126c:	b5f8      	push	{r3, r4, r5, r6, r7, lr}
1000126e:	4657      	mov	r7, sl
10001270:	4645      	mov	r5, r8
10001272:	464e      	mov	r6, r9
10001274:	46de      	mov	lr, fp
10001276:	b5e0      	push	{r5, r6, r7, lr}
10001278:	4698      	mov	r8, r3
1000127a:	ab0c      	add	r3, sp, #48	; 0x30
1000127c:	781c      	ldrb	r4, [r3, #0]
1000127e:	ab0d      	add	r3, sp, #52	; 0x34
10001280:	781b      	ldrb	r3, [r3, #0]
10001282:	0007      	movs	r7, r0
10001284:	4691      	mov	r9, r2
10001286:	469a      	mov	sl, r3
10001288:	6805      	ldr	r5, [r0, #0]
1000128a:	2c00      	cmp	r4, #0
1000128c:	d15a      	bne.n	10001344 <add_alarm_under_lock.isra.0+0xd8>
1000128e:	7bac      	ldrb	r4, [r5, #14]
10001290:	2c00      	cmp	r4, #0
10001292:	d03b      	beq.n	1000130c <add_alarm_under_lock.isra.0+0xa0>
10001294:	0066      	lsls	r6, r4, #1
10001296:	6829      	ldr	r1, [r5, #0]
10001298:	1936      	adds	r6, r6, r4
1000129a:	3e03      	subs	r6, #3
1000129c:	1989      	adds	r1, r1, r6
1000129e:	784b      	ldrb	r3, [r1, #1]
100012a0:	73ab      	strb	r3, [r5, #14]
100012a2:	2b00      	cmp	r3, #0
100012a4:	d100      	bne.n	100012a8 <add_alarm_under_lock.isra.0+0x3c>
100012a6:	73eb      	strb	r3, [r5, #15]
100012a8:	2300      	movs	r3, #0
100012aa:	708b      	strb	r3, [r1, #2]
100012ac:	704b      	strb	r3, [r1, #1]
100012ae:	700b      	strb	r3, [r1, #0]
100012b0:	4b2b      	ldr	r3, [pc, #172]	; (10001360 <add_alarm_under_lock.isra.0+0xf4>)
100012b2:	18e2      	adds	r2, r4, r3
100012b4:	68bb      	ldr	r3, [r7, #8]
100012b6:	0112      	lsls	r2, r2, #4
100012b8:	189b      	adds	r3, r3, r2
100012ba:	464a      	mov	r2, r9
100012bc:	601a      	str	r2, [r3, #0]
100012be:	4642      	mov	r2, r8
100012c0:	605a      	str	r2, [r3, #4]
100012c2:	9a0a      	ldr	r2, [sp, #40]	; 0x28
100012c4:	609a      	str	r2, [r3, #8]
100012c6:	9a0b      	ldr	r2, [sp, #44]	; 0x2c
100012c8:	60da      	str	r2, [r3, #12]
100012ca:	2300      	movs	r3, #0
100012cc:	708b      	strb	r3, [r1, #2]
100012ce:	704b      	strb	r3, [r1, #1]
100012d0:	700b      	strb	r3, [r1, #0]
100012d2:	7b6b      	ldrb	r3, [r5, #13]
100012d4:	469b      	mov	fp, r3
100012d6:	2b00      	cmp	r3, #0
100012d8:	d027      	beq.n	1000132a <add_alarm_under_lock.isra.0+0xbe>
100012da:	0022      	movs	r2, r4
100012dc:	686b      	ldr	r3, [r5, #4]
100012de:	4659      	mov	r1, fp
100012e0:	68a8      	ldr	r0, [r5, #8]
100012e2:	4798      	blx	r3
100012e4:	465b      	mov	r3, fp
100012e6:	005b      	lsls	r3, r3, #1
100012e8:	445b      	add	r3, fp
100012ea:	682a      	ldr	r2, [r5, #0]
100012ec:	3b03      	subs	r3, #3
100012ee:	2800      	cmp	r0, #0
100012f0:	d012      	beq.n	10001318 <add_alarm_under_lock.isra.0+0xac>
100012f2:	4658      	mov	r0, fp
100012f4:	1996      	adds	r6, r2, r6
100012f6:	70b0      	strb	r0, [r6, #2]
100012f8:	18d1      	adds	r1, r2, r3
100012fa:	5cd3      	ldrb	r3, [r2, r3]
100012fc:	2b00      	cmp	r3, #0
100012fe:	d000      	beq.n	10001302 <add_alarm_under_lock.isra.0+0x96>
10001300:	7073      	strb	r3, [r6, #1]
10001302:	465b      	mov	r3, fp
10001304:	700c      	strb	r4, [r1, #0]
10001306:	736b      	strb	r3, [r5, #13]
10001308:	455c      	cmp	r4, fp
1000130a:	d00f      	beq.n	1000132c <add_alarm_under_lock.isra.0+0xc0>
1000130c:	bcf0      	pop	{r4, r5, r6, r7}
1000130e:	46bb      	mov	fp, r7
10001310:	46b2      	mov	sl, r6
10001312:	46a9      	mov	r9, r5
10001314:	46a0      	mov	r8, r4
10001316:	bdf8      	pop	{r3, r4, r5, r6, r7, pc}
10001318:	18d3      	adds	r3, r2, r3
1000131a:	709c      	strb	r4, [r3, #2]
1000131c:	1991      	adds	r1, r2, r6
1000131e:	5d92      	ldrb	r2, [r2, r6]
10001320:	2a00      	cmp	r2, #0
10001322:	d000      	beq.n	10001326 <add_alarm_under_lock.isra.0+0xba>
10001324:	705a      	strb	r2, [r3, #1]
10001326:	465b      	mov	r3, fp
10001328:	700b      	strb	r3, [r1, #0]
1000132a:	736c      	strb	r4, [r5, #13]
1000132c:	464a      	mov	r2, r9
1000132e:	4643      	mov	r3, r8
10001330:	7d38      	ldrb	r0, [r7, #20]
10001332:	f000 fc15 	bl	10001b60 <hardware_alarm_set_target>
10001336:	1e05      	subs	r5, r0, #0
10001338:	d10a      	bne.n	10001350 <add_alarm_under_lock.isra.0+0xe4>
1000133a:	9b0e      	ldr	r3, [sp, #56]	; 0x38
1000133c:	2b00      	cmp	r3, #0
1000133e:	d0e5      	beq.n	1000130c <add_alarm_under_lock.isra.0+0xa0>
10001340:	701d      	strb	r5, [r3, #0]
10001342:	e7e3      	b.n	1000130c <add_alarm_under_lock.isra.0+0xa0>
10001344:	0066      	lsls	r6, r4, #1
10001346:	6829      	ldr	r1, [r5, #0]
10001348:	1936      	adds	r6, r6, r4
1000134a:	3e03      	subs	r6, #3
1000134c:	1989      	adds	r1, r1, r6
1000134e:	e7af      	b.n	100012b0 <add_alarm_under_lock.isra.0+0x44>
10001350:	4653      	mov	r3, sl
10001352:	2b00      	cmp	r3, #0
10001354:	d1f1      	bne.n	1000133a <add_alarm_under_lock.isra.0+0xce>
10001356:	0021      	movs	r1, r4
10001358:	6838      	ldr	r0, [r7, #0]
1000135a:	f000 fe4b 	bl	10001ff4 <ph_remove_and_free_node>
1000135e:	e7ec      	b.n	1000133a <add_alarm_under_lock.isra.0+0xce>
10001360:	0fffffff 	.word	0x0fffffff

10001364 <alarm_pool_alarm_callback>:
10001364:	b5f0      	push	{r4, r5, r6, r7, lr}
10001366:	46de      	mov	lr, fp
10001368:	4657      	mov	r7, sl
1000136a:	464e      	mov	r6, r9
1000136c:	4645      	mov	r5, r8
1000136e:	2300      	movs	r3, #0
10001370:	b5e0      	push	{r5, r6, r7, lr}
10001372:	b08d      	sub	sp, #52	; 0x34
10001374:	930a      	str	r3, [sp, #40]	; 0x28
10001376:	4b6a      	ldr	r3, [pc, #424]	; (10001520 <alarm_pool_alarm_callback+0x1bc>)
10001378:	0082      	lsls	r2, r0, #2
1000137a:	58d7      	ldr	r7, [r2, r3]
1000137c:	2300      	movs	r3, #0
1000137e:	469b      	mov	fp, r3
10001380:	900b      	str	r0, [sp, #44]	; 0x2c
10001382:	f000 fb8d 	bl	10001aa0 <time_us_64>
10001386:	0002      	movs	r2, r0
10001388:	000b      	movs	r3, r1
1000138a:	6878      	ldr	r0, [r7, #4]
1000138c:	f3ef 8910 	mrs	r9, PRIMASK
10001390:	b672      	cpsid	i
10001392:	464d      	mov	r5, r9
10001394:	6801      	ldr	r1, [r0, #0]
10001396:	2900      	cmp	r1, #0
10001398:	d0fc      	beq.n	10001394 <alarm_pool_alarm_callback+0x30>
1000139a:	46a9      	mov	r9, r5
1000139c:	f3bf 8f5f 	dmb	sy
100013a0:	6839      	ldr	r1, [r7, #0]
100013a2:	7b4e      	ldrb	r6, [r1, #13]
100013a4:	468c      	mov	ip, r1
100013a6:	2e00      	cmp	r6, #0
100013a8:	d02e      	beq.n	10001408 <alarm_pool_alarm_callback+0xa4>
100013aa:	68bc      	ldr	r4, [r7, #8]
100013ac:	495d      	ldr	r1, [pc, #372]	; (10001524 <alarm_pool_alarm_callback+0x1c0>)
100013ae:	46a2      	mov	sl, r4
100013b0:	1871      	adds	r1, r6, r1
100013b2:	0109      	lsls	r1, r1, #4
100013b4:	448a      	add	sl, r1
100013b6:	4651      	mov	r1, sl
100013b8:	6808      	ldr	r0, [r1, #0]
100013ba:	6849      	ldr	r1, [r1, #4]
100013bc:	0004      	movs	r4, r0
100013be:	000d      	movs	r5, r1
100013c0:	1aa4      	subs	r4, r4, r2
100013c2:	419d      	sbcs	r5, r3
100013c4:	2d00      	cmp	r5, #0
100013c6:	dd5e      	ble.n	10001486 <alarm_pool_alarm_callback+0x122>
100013c8:	0002      	movs	r2, r0
100013ca:	000b      	movs	r3, r1
100013cc:	980b      	ldr	r0, [sp, #44]	; 0x2c
100013ce:	f000 fbc7 	bl	10001b60 <hardware_alarm_set_target>
100013d2:	2300      	movs	r3, #0
100013d4:	2200      	movs	r2, #0
100013d6:	469a      	mov	sl, r3
100013d8:	2300      	movs	r3, #0
100013da:	9208      	str	r2, [sp, #32]
100013dc:	9309      	str	r3, [sp, #36]	; 0x24
100013de:	2300      	movs	r3, #0
100013e0:	4698      	mov	r8, r3
100013e2:	687b      	ldr	r3, [r7, #4]
100013e4:	f3bf 8f5f 	dmb	sy
100013e8:	465a      	mov	r2, fp
100013ea:	601a      	str	r2, [r3, #0]
100013ec:	f389 8810 	msr	PRIMASK, r9
100013f0:	4643      	mov	r3, r8
100013f2:	2b00      	cmp	r3, #0
100013f4:	d112      	bne.n	1000141c <alarm_pool_alarm_callback+0xb8>
100013f6:	2800      	cmp	r0, #0
100013f8:	d1c3      	bne.n	10001382 <alarm_pool_alarm_callback+0x1e>
100013fa:	b00d      	add	sp, #52	; 0x34
100013fc:	bcf0      	pop	{r4, r5, r6, r7}
100013fe:	46bb      	mov	fp, r7
10001400:	46b2      	mov	sl, r6
10001402:	46a9      	mov	r9, r5
10001404:	46a0      	mov	r8, r4
10001406:	bdf0      	pop	{r4, r5, r6, r7, pc}
10001408:	2300      	movs	r3, #0
1000140a:	2200      	movs	r2, #0
1000140c:	469a      	mov	sl, r3
1000140e:	2300      	movs	r3, #0
10001410:	9208      	str	r2, [sp, #32]
10001412:	9309      	str	r3, [sp, #36]	; 0x24
10001414:	2300      	movs	r3, #0
10001416:	2000      	movs	r0, #0
10001418:	4698      	mov	r8, r3
1000141a:	e7e2      	b.n	100013e2 <alarm_pool_alarm_callback+0x7e>
1000141c:	9b0a      	ldr	r3, [sp, #40]	; 0x28
1000141e:	4651      	mov	r1, sl
10001420:	0218      	lsls	r0, r3, #8
10001422:	4330      	orrs	r0, r6
10001424:	47c0      	blx	r8
10001426:	9006      	str	r0, [sp, #24]
10001428:	9107      	str	r1, [sp, #28]
1000142a:	687a      	ldr	r2, [r7, #4]
1000142c:	f3ef 8510 	mrs	r5, PRIMASK
10001430:	b672      	cpsid	i
10001432:	4654      	mov	r4, sl
10001434:	6813      	ldr	r3, [r2, #0]
10001436:	2b00      	cmp	r3, #0
10001438:	d0fc      	beq.n	10001434 <alarm_pool_alarm_callback+0xd0>
1000143a:	46a2      	mov	sl, r4
1000143c:	f3bf 8f5f 	dmb	sy
10001440:	9906      	ldr	r1, [sp, #24]
10001442:	9a07      	ldr	r2, [sp, #28]
10001444:	2a00      	cmp	r2, #0
10001446:	db3b      	blt.n	100014c0 <alarm_pool_alarm_callback+0x15c>
10001448:	4311      	orrs	r1, r2
1000144a:	d002      	beq.n	10001452 <alarm_pool_alarm_callback+0xee>
1000144c:	693b      	ldr	r3, [r7, #16]
1000144e:	2b00      	cmp	r3, #0
10001450:	d152      	bne.n	100014f8 <alarm_pool_alarm_callback+0x194>
10001452:	683b      	ldr	r3, [r7, #0]
10001454:	7bd9      	ldrb	r1, [r3, #15]
10001456:	2900      	cmp	r1, #0
10001458:	d005      	beq.n	10001466 <alarm_pool_alarm_callback+0x102>
1000145a:	681a      	ldr	r2, [r3, #0]
1000145c:	0048      	lsls	r0, r1, #1
1000145e:	1841      	adds	r1, r0, r1
10001460:	1852      	adds	r2, r2, r1
10001462:	3a03      	subs	r2, #3
10001464:	7056      	strb	r6, [r2, #1]
10001466:	73de      	strb	r6, [r3, #15]
10001468:	68fa      	ldr	r2, [r7, #12]
1000146a:	3e01      	subs	r6, #1
1000146c:	5d93      	ldrb	r3, [r2, r6]
1000146e:	3301      	adds	r3, #1
10001470:	5593      	strb	r3, [r2, r6]
10001472:	465b      	mov	r3, fp
10001474:	613b      	str	r3, [r7, #16]
10001476:	687b      	ldr	r3, [r7, #4]
10001478:	f3bf 8f5f 	dmb	sy
1000147c:	465a      	mov	r2, fp
1000147e:	601a      	str	r2, [r3, #0]
10001480:	f385 8810 	msr	PRIMASK, r5
10001484:	e77d      	b.n	10001382 <alarm_pool_alarm_callback+0x1e>
10001486:	2d00      	cmp	r5, #0
10001488:	d101      	bne.n	1000148e <alarm_pool_alarm_callback+0x12a>
1000148a:	2c00      	cmp	r4, #0
1000148c:	d19c      	bne.n	100013c8 <alarm_pool_alarm_callback+0x64>
1000148e:	2100      	movs	r1, #0
10001490:	4660      	mov	r0, ip
10001492:	f000 fd17 	bl	10001ec4 <ph_remove_head>
10001496:	4653      	mov	r3, sl
10001498:	685c      	ldr	r4, [r3, #4]
1000149a:	681b      	ldr	r3, [r3, #0]
1000149c:	9308      	str	r3, [sp, #32]
1000149e:	9409      	str	r4, [sp, #36]	; 0x24
100014a0:	4653      	mov	r3, sl
100014a2:	689b      	ldr	r3, [r3, #8]
100014a4:	4698      	mov	r8, r3
100014a6:	4653      	mov	r3, sl
100014a8:	68db      	ldr	r3, [r3, #12]
100014aa:	469a      	mov	sl, r3
100014ac:	68fb      	ldr	r3, [r7, #12]
100014ae:	199b      	adds	r3, r3, r6
100014b0:	3b01      	subs	r3, #1
100014b2:	781b      	ldrb	r3, [r3, #0]
100014b4:	930a      	str	r3, [sp, #40]	; 0x28
100014b6:	021b      	lsls	r3, r3, #8
100014b8:	4303      	orrs	r3, r0
100014ba:	613b      	str	r3, [r7, #16]
100014bc:	2000      	movs	r0, #0
100014be:	e790      	b.n	100013e2 <alarm_pool_alarm_callback+0x7e>
100014c0:	693b      	ldr	r3, [r7, #16]
100014c2:	2b00      	cmp	r3, #0
100014c4:	d0c5      	beq.n	10001452 <alarm_pool_alarm_callback+0xee>
100014c6:	9b08      	ldr	r3, [sp, #32]
100014c8:	9c09      	ldr	r4, [sp, #36]	; 0x24
100014ca:	1a5b      	subs	r3, r3, r1
100014cc:	4194      	sbcs	r4, r2
100014ce:	9808      	ldr	r0, [sp, #32]
100014d0:	9909      	ldr	r1, [sp, #36]	; 0x24
100014d2:	001a      	movs	r2, r3
100014d4:	0023      	movs	r3, r4
100014d6:	42a1      	cmp	r1, r4
100014d8:	d819      	bhi.n	1000150e <alarm_pool_alarm_callback+0x1aa>
100014da:	4299      	cmp	r1, r3
100014dc:	d01b      	beq.n	10001516 <alarm_pool_alarm_callback+0x1b2>
100014de:	2100      	movs	r1, #0
100014e0:	9104      	str	r1, [sp, #16]
100014e2:	3101      	adds	r1, #1
100014e4:	9103      	str	r1, [sp, #12]
100014e6:	4651      	mov	r1, sl
100014e8:	9101      	str	r1, [sp, #4]
100014ea:	4641      	mov	r1, r8
100014ec:	0038      	movs	r0, r7
100014ee:	9602      	str	r6, [sp, #8]
100014f0:	9100      	str	r1, [sp, #0]
100014f2:	f7ff febb 	bl	1000126c <add_alarm_under_lock.isra.0>
100014f6:	e7bc      	b.n	10001472 <alarm_pool_alarm_callback+0x10e>
100014f8:	f000 fad2 	bl	10001aa0 <time_us_64>
100014fc:	9a06      	ldr	r2, [sp, #24]
100014fe:	9b07      	ldr	r3, [sp, #28]
10001500:	1812      	adds	r2, r2, r0
10001502:	414b      	adcs	r3, r1
10001504:	4299      	cmp	r1, r3
10001506:	d802      	bhi.n	1000150e <alarm_pool_alarm_callback+0x1aa>
10001508:	d1e9      	bne.n	100014de <alarm_pool_alarm_callback+0x17a>
1000150a:	4290      	cmp	r0, r2
1000150c:	d9e7      	bls.n	100014de <alarm_pool_alarm_callback+0x17a>
1000150e:	2201      	movs	r2, #1
10001510:	4252      	negs	r2, r2
10001512:	17d3      	asrs	r3, r2, #31
10001514:	e7e3      	b.n	100014de <alarm_pool_alarm_callback+0x17a>
10001516:	9908      	ldr	r1, [sp, #32]
10001518:	4291      	cmp	r1, r2
1000151a:	d9e0      	bls.n	100014de <alarm_pool_alarm_callback+0x17a>
1000151c:	e7f7      	b.n	1000150e <alarm_pool_alarm_callback+0x1aa>
1000151e:	46c0      	nop			; (mov r8, r8)
10001520:	20001a4c 	.word	0x20001a4c
10001524:	0fffffff 	.word	0x0fffffff

10001528 <alarm_pool_add_alarm_at.constprop.0>:
10001528:	b5f8      	push	{r3, r4, r5, r6, r7, lr}
1000152a:	4657      	mov	r7, sl
1000152c:	464e      	mov	r6, r9
1000152e:	4645      	mov	r5, r8
10001530:	46de      	mov	lr, fp
10001532:	b5e0      	push	{r5, r6, r7, lr}
10001534:	4d3e      	ldr	r5, [pc, #248]	; (10001630 <alarm_pool_add_alarm_at.constprop.0+0x108>)
10001536:	4682      	mov	sl, r0
10001538:	4689      	mov	r9, r1
1000153a:	686a      	ldr	r2, [r5, #4]
1000153c:	f3ef 8810 	mrs	r8, PRIMASK
10001540:	b672      	cpsid	i
10001542:	6813      	ldr	r3, [r2, #0]
10001544:	2b00      	cmp	r3, #0
10001546:	d0fc      	beq.n	10001542 <alarm_pool_add_alarm_at.constprop.0+0x1a>
10001548:	f3bf 8f5f 	dmb	sy
1000154c:	682e      	ldr	r6, [r5, #0]
1000154e:	7bb4      	ldrb	r4, [r6, #14]
10001550:	2c00      	cmp	r4, #0
10001552:	d048      	beq.n	100015e6 <alarm_pool_add_alarm_at.constprop.0+0xbe>
10001554:	0067      	lsls	r7, r4, #1
10001556:	6833      	ldr	r3, [r6, #0]
10001558:	193f      	adds	r7, r7, r4
1000155a:	3f03      	subs	r7, #3
1000155c:	19db      	adds	r3, r3, r7
1000155e:	785a      	ldrb	r2, [r3, #1]
10001560:	73b2      	strb	r2, [r6, #14]
10001562:	2a00      	cmp	r2, #0
10001564:	d100      	bne.n	10001568 <alarm_pool_add_alarm_at.constprop.0+0x40>
10001566:	73f2      	strb	r2, [r6, #15]
10001568:	4a32      	ldr	r2, [pc, #200]	; (10001634 <alarm_pool_add_alarm_at.constprop.0+0x10c>)
1000156a:	18a1      	adds	r1, r4, r2
1000156c:	68aa      	ldr	r2, [r5, #8]
1000156e:	0109      	lsls	r1, r1, #4
10001570:	1852      	adds	r2, r2, r1
10001572:	4651      	mov	r1, sl
10001574:	6011      	str	r1, [r2, #0]
10001576:	4649      	mov	r1, r9
10001578:	6051      	str	r1, [r2, #4]
1000157a:	492f      	ldr	r1, [pc, #188]	; (10001638 <alarm_pool_add_alarm_at.constprop.0+0x110>)
1000157c:	6091      	str	r1, [r2, #8]
1000157e:	2100      	movs	r1, #0
10001580:	60d1      	str	r1, [r2, #12]
10001582:	7099      	strb	r1, [r3, #2]
10001584:	7059      	strb	r1, [r3, #1]
10001586:	7019      	strb	r1, [r3, #0]
10001588:	7b73      	ldrb	r3, [r6, #13]
1000158a:	469b      	mov	fp, r3
1000158c:	2b00      	cmp	r3, #0
1000158e:	d041      	beq.n	10001614 <alarm_pool_add_alarm_at.constprop.0+0xec>
10001590:	0022      	movs	r2, r4
10001592:	6873      	ldr	r3, [r6, #4]
10001594:	4659      	mov	r1, fp
10001596:	68b0      	ldr	r0, [r6, #8]
10001598:	4798      	blx	r3
1000159a:	465b      	mov	r3, fp
1000159c:	005b      	lsls	r3, r3, #1
1000159e:	445b      	add	r3, fp
100015a0:	6832      	ldr	r2, [r6, #0]
100015a2:	3b03      	subs	r3, #3
100015a4:	2800      	cmp	r0, #0
100015a6:	d02c      	beq.n	10001602 <alarm_pool_add_alarm_at.constprop.0+0xda>
100015a8:	4658      	mov	r0, fp
100015aa:	19d7      	adds	r7, r2, r7
100015ac:	70b8      	strb	r0, [r7, #2]
100015ae:	18d1      	adds	r1, r2, r3
100015b0:	5cd3      	ldrb	r3, [r2, r3]
100015b2:	2b00      	cmp	r3, #0
100015b4:	d000      	beq.n	100015b8 <alarm_pool_add_alarm_at.constprop.0+0x90>
100015b6:	707b      	strb	r3, [r7, #1]
100015b8:	465b      	mov	r3, fp
100015ba:	700c      	strb	r4, [r1, #0]
100015bc:	7373      	strb	r3, [r6, #13]
100015be:	455c      	cmp	r4, fp
100015c0:	d029      	beq.n	10001616 <alarm_pool_add_alarm_at.constprop.0+0xee>
100015c2:	2600      	movs	r6, #0
100015c4:	68eb      	ldr	r3, [r5, #12]
100015c6:	191b      	adds	r3, r3, r4
100015c8:	3b01      	subs	r3, #1
100015ca:	7819      	ldrb	r1, [r3, #0]
100015cc:	686b      	ldr	r3, [r5, #4]
100015ce:	f3bf 8f5f 	dmb	sy
100015d2:	2200      	movs	r2, #0
100015d4:	601a      	str	r2, [r3, #0]
100015d6:	f388 8810 	msr	PRIMASK, r8
100015da:	2000      	movs	r0, #0
100015dc:	2e00      	cmp	r6, #0
100015de:	d10a      	bne.n	100015f6 <alarm_pool_add_alarm_at.constprop.0+0xce>
100015e0:	0208      	lsls	r0, r1, #8
100015e2:	4320      	orrs	r0, r4
100015e4:	e007      	b.n	100015f6 <alarm_pool_add_alarm_at.constprop.0+0xce>
100015e6:	686b      	ldr	r3, [r5, #4]
100015e8:	f3bf 8f5f 	dmb	sy
100015ec:	601c      	str	r4, [r3, #0]
100015ee:	f388 8810 	msr	PRIMASK, r8
100015f2:	2001      	movs	r0, #1
100015f4:	4240      	negs	r0, r0
100015f6:	bcf0      	pop	{r4, r5, r6, r7}
100015f8:	46bb      	mov	fp, r7
100015fa:	46b2      	mov	sl, r6
100015fc:	46a9      	mov	r9, r5
100015fe:	46a0      	mov	r8, r4
10001600:	bdf8      	pop	{r3, r4, r5, r6, r7, pc}
10001602:	18d3      	adds	r3, r2, r3
10001604:	709c      	strb	r4, [r3, #2]
10001606:	19d1      	adds	r1, r2, r7
10001608:	5dd2      	ldrb	r2, [r2, r7]
1000160a:	2a00      	cmp	r2, #0
1000160c:	d000      	beq.n	10001610 <alarm_pool_add_alarm_at.constprop.0+0xe8>
1000160e:	705a      	strb	r2, [r3, #1]
10001610:	465b      	mov	r3, fp
10001612:	700b      	strb	r3, [r1, #0]
10001614:	7374      	strb	r4, [r6, #13]
10001616:	4652      	mov	r2, sl
10001618:	464b      	mov	r3, r9
1000161a:	7d28      	ldrb	r0, [r5, #20]
1000161c:	f000 faa0 	bl	10001b60 <hardware_alarm_set_target>
10001620:	1e06      	subs	r6, r0, #0
10001622:	d0ce      	beq.n	100015c2 <alarm_pool_add_alarm_at.constprop.0+0x9a>
10001624:	0021      	movs	r1, r4
10001626:	6828      	ldr	r0, [r5, #0]
10001628:	f000 fce4 	bl	10001ff4 <ph_remove_and_free_node>
1000162c:	e7ca      	b.n	100015c4 <alarm_pool_add_alarm_at.constprop.0+0x9c>
1000162e:	46c0      	nop			; (mov r8, r8)
10001630:	200003c4 	.word	0x200003c4
10001634:	0fffffff 	.word	0x0fffffff
10001638:	1000123d 	.word	0x1000123d

1000163c <alarm_pool_init_default>:
1000163c:	b510      	push	{r4, lr}
1000163e:	4c12      	ldr	r4, [pc, #72]	; (10001688 <alarm_pool_init_default+0x4c>)
10001640:	6863      	ldr	r3, [r4, #4]
10001642:	2b00      	cmp	r3, #0
10001644:	d004      	beq.n	10001650 <alarm_pool_init_default+0x14>
10001646:	210a      	movs	r1, #10
10001648:	4810      	ldr	r0, [pc, #64]	; (1000168c <alarm_pool_init_default+0x50>)
1000164a:	f7ff fdd5 	bl	100011f8 <lock_init>
1000164e:	bd10      	pop	{r4, pc}
10001650:	0023      	movs	r3, r4
10001652:	4a0f      	ldr	r2, [pc, #60]	; (10001690 <alarm_pool_init_default+0x54>)
10001654:	2110      	movs	r1, #16
10001656:	6820      	ldr	r0, [r4, #0]
10001658:	f000 fb3a 	bl	10001cd0 <ph_post_alloc_init>
1000165c:	2003      	movs	r0, #3
1000165e:	f000 fa13 	bl	10001a88 <hardware_alarm_claim>
10001662:	2003      	movs	r0, #3
10001664:	f000 faea 	bl	10001c3c <hardware_alarm_cancel>
10001668:	2003      	movs	r0, #3
1000166a:	490a      	ldr	r1, [pc, #40]	; (10001694 <alarm_pool_init_default+0x58>)
1000166c:	f000 fa32 	bl	10001ad4 <hardware_alarm_set_callback>
10001670:	f7ff fae8 	bl	10000c44 <next_striped_spin_lock_num>
10001674:	4b08      	ldr	r3, [pc, #32]	; (10001698 <alarm_pool_init_default+0x5c>)
10001676:	469c      	mov	ip, r3
10001678:	2303      	movs	r3, #3
1000167a:	4460      	add	r0, ip
1000167c:	7523      	strb	r3, [r4, #20]
1000167e:	4b07      	ldr	r3, [pc, #28]	; (1000169c <alarm_pool_init_default+0x60>)
10001680:	0080      	lsls	r0, r0, #2
10001682:	6060      	str	r0, [r4, #4]
10001684:	60dc      	str	r4, [r3, #12]
10001686:	e7de      	b.n	10001646 <alarm_pool_init_default+0xa>
10001688:	200003c4 	.word	0x200003c4
1000168c:	20001a78 	.word	0x20001a78
10001690:	10001209 	.word	0x10001209
10001694:	10001365 	.word	0x10001365
10001698:	34000040 	.word	0x34000040
1000169c:	20001a4c 	.word	0x20001a4c

100016a0 <alarm_pool_get_default>:
100016a0:	4800      	ldr	r0, [pc, #0]	; (100016a4 <alarm_pool_get_default+0x4>)
100016a2:	4770      	bx	lr
100016a4:	200003c4 	.word	0x200003c4

100016a8 <alarm_pool_add_alarm_at>:
100016a8:	b5f0      	push	{r4, r5, r6, r7, lr}
100016aa:	4657      	mov	r7, sl
100016ac:	464e      	mov	r6, r9
100016ae:	4645      	mov	r5, r8
100016b0:	46de      	mov	lr, fp
100016b2:	b5e0      	push	{r5, r6, r7, lr}
100016b4:	b085      	sub	sp, #20
100016b6:	9301      	str	r3, [sp, #4]
100016b8:	ab10      	add	r3, sp, #64	; 0x40
100016ba:	781b      	ldrb	r3, [r3, #0]
100016bc:	0006      	movs	r6, r0
100016be:	9303      	str	r3, [sp, #12]
100016c0:	2300      	movs	r3, #0
100016c2:	469a      	mov	sl, r3
100016c4:	4698      	mov	r8, r3
100016c6:	9200      	str	r2, [sp, #0]
100016c8:	6872      	ldr	r2, [r6, #4]
100016ca:	f3ef 8b10 	mrs	fp, PRIMASK
100016ce:	b672      	cpsid	i
100016d0:	6813      	ldr	r3, [r2, #0]
100016d2:	2b00      	cmp	r3, #0
100016d4:	d0fc      	beq.n	100016d0 <alarm_pool_add_alarm_at+0x28>
100016d6:	f3bf 8f5f 	dmb	sy
100016da:	6835      	ldr	r5, [r6, #0]
100016dc:	7bac      	ldrb	r4, [r5, #14]
100016de:	2c00      	cmp	r4, #0
100016e0:	d06a      	beq.n	100017b8 <alarm_pool_add_alarm_at+0x110>
100016e2:	0067      	lsls	r7, r4, #1
100016e4:	682b      	ldr	r3, [r5, #0]
100016e6:	193f      	adds	r7, r7, r4
100016e8:	3f03      	subs	r7, #3
100016ea:	19db      	adds	r3, r3, r7
100016ec:	785a      	ldrb	r2, [r3, #1]
100016ee:	73aa      	strb	r2, [r5, #14]
100016f0:	2a00      	cmp	r2, #0
100016f2:	d100      	bne.n	100016f6 <alarm_pool_add_alarm_at+0x4e>
100016f4:	73ea      	strb	r2, [r5, #15]
100016f6:	4a50      	ldr	r2, [pc, #320]	; (10001838 <alarm_pool_add_alarm_at+0x190>)
100016f8:	18a1      	adds	r1, r4, r2
100016fa:	68b2      	ldr	r2, [r6, #8]
100016fc:	0109      	lsls	r1, r1, #4
100016fe:	1852      	adds	r2, r2, r1
10001700:	9800      	ldr	r0, [sp, #0]
10001702:	9901      	ldr	r1, [sp, #4]
10001704:	6010      	str	r0, [r2, #0]
10001706:	6051      	str	r1, [r2, #4]
10001708:	990e      	ldr	r1, [sp, #56]	; 0x38
1000170a:	6091      	str	r1, [r2, #8]
1000170c:	990f      	ldr	r1, [sp, #60]	; 0x3c
1000170e:	60d1      	str	r1, [r2, #12]
10001710:	4642      	mov	r2, r8
10001712:	709a      	strb	r2, [r3, #2]
10001714:	705a      	strb	r2, [r3, #1]
10001716:	701a      	strb	r2, [r3, #0]
10001718:	7b6b      	ldrb	r3, [r5, #13]
1000171a:	4699      	mov	r9, r3
1000171c:	2b00      	cmp	r3, #0
1000171e:	d100      	bne.n	10001722 <alarm_pool_add_alarm_at+0x7a>
10001720:	e070      	b.n	10001804 <alarm_pool_add_alarm_at+0x15c>
10001722:	0022      	movs	r2, r4
10001724:	686b      	ldr	r3, [r5, #4]
10001726:	4649      	mov	r1, r9
10001728:	68a8      	ldr	r0, [r5, #8]
1000172a:	4798      	blx	r3
1000172c:	464b      	mov	r3, r9
1000172e:	005b      	lsls	r3, r3, #1
10001730:	444b      	add	r3, r9
10001732:	682a      	ldr	r2, [r5, #0]
10001734:	3b03      	subs	r3, #3
10001736:	2800      	cmp	r0, #0
10001738:	d05b      	beq.n	100017f2 <alarm_pool_add_alarm_at+0x14a>
1000173a:	4648      	mov	r0, r9
1000173c:	19d7      	adds	r7, r2, r7
1000173e:	70b8      	strb	r0, [r7, #2]
10001740:	18d1      	adds	r1, r2, r3
10001742:	5cd3      	ldrb	r3, [r2, r3]
10001744:	2b00      	cmp	r3, #0
10001746:	d000      	beq.n	1000174a <alarm_pool_add_alarm_at+0xa2>
10001748:	707b      	strb	r3, [r7, #1]
1000174a:	464b      	mov	r3, r9
1000174c:	700c      	strb	r4, [r1, #0]
1000174e:	736b      	strb	r3, [r5, #13]
10001750:	454c      	cmp	r4, r9
10001752:	d058      	beq.n	10001806 <alarm_pool_add_alarm_at+0x15e>
10001754:	68f3      	ldr	r3, [r6, #12]
10001756:	191b      	adds	r3, r3, r4
10001758:	3b01      	subs	r3, #1
1000175a:	7818      	ldrb	r0, [r3, #0]
1000175c:	6873      	ldr	r3, [r6, #4]
1000175e:	f3bf 8f5f 	dmb	sy
10001762:	4642      	mov	r2, r8
10001764:	601a      	str	r2, [r3, #0]
10001766:	f38b 8810 	msr	PRIMASK, fp
1000176a:	4653      	mov	r3, sl
1000176c:	2b00      	cmp	r3, #0
1000176e:	d108      	bne.n	10001782 <alarm_pool_add_alarm_at+0xda>
10001770:	0200      	lsls	r0, r0, #8
10001772:	4320      	orrs	r0, r4
10001774:	b005      	add	sp, #20
10001776:	bcf0      	pop	{r4, r5, r6, r7}
10001778:	46bb      	mov	fp, r7
1000177a:	46b2      	mov	sl, r6
1000177c:	46a9      	mov	r9, r5
1000177e:	46a0      	mov	r8, r4
10001780:	bdf0      	pop	{r4, r5, r6, r7, pc}
10001782:	9b03      	ldr	r3, [sp, #12]
10001784:	2b00      	cmp	r3, #0
10001786:	d054      	beq.n	10001832 <alarm_pool_add_alarm_at+0x18a>
10001788:	9b0e      	ldr	r3, [sp, #56]	; 0x38
1000178a:	2000      	movs	r0, #0
1000178c:	990f      	ldr	r1, [sp, #60]	; 0x3c
1000178e:	4798      	blx	r3
10001790:	0003      	movs	r3, r0
10001792:	430b      	orrs	r3, r1
10001794:	d04d      	beq.n	10001832 <alarm_pool_add_alarm_at+0x18a>
10001796:	0004      	movs	r4, r0
10001798:	1e0d      	subs	r5, r1, #0
1000179a:	da16      	bge.n	100017ca <alarm_pool_add_alarm_at+0x122>
1000179c:	9800      	ldr	r0, [sp, #0]
1000179e:	9901      	ldr	r1, [sp, #4]
100017a0:	0002      	movs	r2, r0
100017a2:	000b      	movs	r3, r1
100017a4:	1b12      	subs	r2, r2, r4
100017a6:	41ab      	sbcs	r3, r5
100017a8:	4299      	cmp	r1, r3
100017aa:	d81c      	bhi.n	100017e6 <alarm_pool_add_alarm_at+0x13e>
100017ac:	d038      	beq.n	10001820 <alarm_pool_add_alarm_at+0x178>
100017ae:	9200      	str	r2, [sp, #0]
100017b0:	9301      	str	r3, [sp, #4]
100017b2:	9b03      	ldr	r3, [sp, #12]
100017b4:	469a      	mov	sl, r3
100017b6:	e787      	b.n	100016c8 <alarm_pool_add_alarm_at+0x20>
100017b8:	6873      	ldr	r3, [r6, #4]
100017ba:	f3bf 8f5f 	dmb	sy
100017be:	601c      	str	r4, [r3, #0]
100017c0:	f38b 8810 	msr	PRIMASK, fp
100017c4:	2001      	movs	r0, #1
100017c6:	4240      	negs	r0, r0
100017c8:	e7d4      	b.n	10001774 <alarm_pool_add_alarm_at+0xcc>
100017ca:	f000 f969 	bl	10001aa0 <time_us_64>
100017ce:	0002      	movs	r2, r0
100017d0:	000b      	movs	r3, r1
100017d2:	18a4      	adds	r4, r4, r2
100017d4:	415d      	adcs	r5, r3
100017d6:	9400      	str	r4, [sp, #0]
100017d8:	9501      	str	r5, [sp, #4]
100017da:	42a9      	cmp	r1, r5
100017dc:	d803      	bhi.n	100017e6 <alarm_pool_add_alarm_at+0x13e>
100017de:	d1e8      	bne.n	100017b2 <alarm_pool_add_alarm_at+0x10a>
100017e0:	9900      	ldr	r1, [sp, #0]
100017e2:	428a      	cmp	r2, r1
100017e4:	d9e5      	bls.n	100017b2 <alarm_pool_add_alarm_at+0x10a>
100017e6:	2301      	movs	r3, #1
100017e8:	425b      	negs	r3, r3
100017ea:	17dc      	asrs	r4, r3, #31
100017ec:	9300      	str	r3, [sp, #0]
100017ee:	9401      	str	r4, [sp, #4]
100017f0:	e7df      	b.n	100017b2 <alarm_pool_add_alarm_at+0x10a>
100017f2:	18d3      	adds	r3, r2, r3
100017f4:	709c      	strb	r4, [r3, #2]
100017f6:	19d1      	adds	r1, r2, r7
100017f8:	5dd2      	ldrb	r2, [r2, r7]
100017fa:	2a00      	cmp	r2, #0
100017fc:	d000      	beq.n	10001800 <alarm_pool_add_alarm_at+0x158>
100017fe:	705a      	strb	r2, [r3, #1]
10001800:	464b      	mov	r3, r9
10001802:	700b      	strb	r3, [r1, #0]
10001804:	736c      	strb	r4, [r5, #13]
10001806:	7d30      	ldrb	r0, [r6, #20]
10001808:	9a00      	ldr	r2, [sp, #0]
1000180a:	9b01      	ldr	r3, [sp, #4]
1000180c:	f000 f9a8 	bl	10001b60 <hardware_alarm_set_target>
10001810:	4682      	mov	sl, r0
10001812:	2800      	cmp	r0, #0
10001814:	d09e      	beq.n	10001754 <alarm_pool_add_alarm_at+0xac>
10001816:	0021      	movs	r1, r4
10001818:	6830      	ldr	r0, [r6, #0]
1000181a:	f000 fbeb 	bl	10001ff4 <ph_remove_and_free_node>
1000181e:	e799      	b.n	10001754 <alarm_pool_add_alarm_at+0xac>
10001820:	9900      	ldr	r1, [sp, #0]
10001822:	4291      	cmp	r1, r2
10001824:	d9c3      	bls.n	100017ae <alarm_pool_add_alarm_at+0x106>
10001826:	2301      	movs	r3, #1
10001828:	425b      	negs	r3, r3
1000182a:	17dc      	asrs	r4, r3, #31
1000182c:	9300      	str	r3, [sp, #0]
1000182e:	9401      	str	r4, [sp, #4]
10001830:	e7bf      	b.n	100017b2 <alarm_pool_add_alarm_at+0x10a>
10001832:	2000      	movs	r0, #0
10001834:	e79e      	b.n	10001774 <alarm_pool_add_alarm_at+0xcc>
10001836:	46c0      	nop			; (mov r8, r8)
10001838:	0fffffff 	.word	0x0fffffff

1000183c <sleep_until>:
1000183c:	b5f0      	push	{r4, r5, r6, r7, lr}
1000183e:	0004      	movs	r4, r0
10001840:	000d      	movs	r5, r1
10001842:	2606      	movs	r6, #6
10001844:	4276      	negs	r6, r6
10001846:	17f7      	asrs	r7, r6, #31
10001848:	46c6      	mov	lr, r8
1000184a:	1936      	adds	r6, r6, r4
1000184c:	416f      	adcs	r7, r5
1000184e:	b500      	push	{lr}
10001850:	428f      	cmp	r7, r1
10001852:	d813      	bhi.n	1000187c <sleep_until+0x40>
10001854:	d010      	beq.n	10001878 <sleep_until+0x3c>
10001856:	f000 f923 	bl	10001aa0 <time_us_64>
1000185a:	0032      	movs	r2, r6
1000185c:	003b      	movs	r3, r7
1000185e:	1a12      	subs	r2, r2, r0
10001860:	418b      	sbcs	r3, r1
10001862:	2b00      	cmp	r3, #0
10001864:	dc14      	bgt.n	10001890 <sleep_until+0x54>
10001866:	2b00      	cmp	r3, #0
10001868:	d037      	beq.n	100018da <sleep_until+0x9e>
1000186a:	0029      	movs	r1, r5
1000186c:	0020      	movs	r0, r4
1000186e:	f000 f921 	bl	10001ab4 <busy_wait_until>
10001872:	bc80      	pop	{r7}
10001874:	46b8      	mov	r8, r7
10001876:	bdf0      	pop	{r4, r5, r6, r7, pc}
10001878:	4286      	cmp	r6, r0
1000187a:	d9ec      	bls.n	10001856 <sleep_until+0x1a>
1000187c:	2600      	movs	r6, #0
1000187e:	2700      	movs	r7, #0
10001880:	f000 f90e 	bl	10001aa0 <time_us_64>
10001884:	0032      	movs	r2, r6
10001886:	003b      	movs	r3, r7
10001888:	1a12      	subs	r2, r2, r0
1000188a:	418b      	sbcs	r3, r1
1000188c:	2b00      	cmp	r3, #0
1000188e:	ddea      	ble.n	10001866 <sleep_until+0x2a>
10001890:	0030      	movs	r0, r6
10001892:	0039      	movs	r1, r7
10001894:	f7ff fe48 	bl	10001528 <alarm_pool_add_alarm_at.constprop.0>
10001898:	2800      	cmp	r0, #0
1000189a:	dbe6      	blt.n	1000186a <sleep_until+0x2e>
1000189c:	2300      	movs	r3, #0
1000189e:	4698      	mov	r8, r3
100018a0:	46bc      	mov	ip, r7
100018a2:	4a0f      	ldr	r2, [pc, #60]	; (100018e0 <sleep_until+0xa4>)
100018a4:	4f0f      	ldr	r7, [pc, #60]	; (100018e4 <sleep_until+0xa8>)
100018a6:	6a7b      	ldr	r3, [r7, #36]	; 0x24
100018a8:	459c      	cmp	ip, r3
100018aa:	d804      	bhi.n	100018b6 <sleep_until+0x7a>
100018ac:	6ab9      	ldr	r1, [r7, #40]	; 0x28
100018ae:	42b1      	cmp	r1, r6
100018b0:	d2db      	bcs.n	1000186a <sleep_until+0x2e>
100018b2:	459c      	cmp	ip, r3
100018b4:	d1d9      	bne.n	1000186a <sleep_until+0x2e>
100018b6:	6811      	ldr	r1, [r2, #0]
100018b8:	f3ef 8010 	mrs	r0, PRIMASK
100018bc:	b672      	cpsid	i
100018be:	680b      	ldr	r3, [r1, #0]
100018c0:	2b00      	cmp	r3, #0
100018c2:	d0fc      	beq.n	100018be <sleep_until+0x82>
100018c4:	f3bf 8f5f 	dmb	sy
100018c8:	6813      	ldr	r3, [r2, #0]
100018ca:	f3bf 8f5f 	dmb	sy
100018ce:	4641      	mov	r1, r8
100018d0:	6019      	str	r1, [r3, #0]
100018d2:	f380 8810 	msr	PRIMASK, r0
100018d6:	bf20      	wfe
100018d8:	e7e5      	b.n	100018a6 <sleep_until+0x6a>
100018da:	2a00      	cmp	r2, #0
100018dc:	d0c5      	beq.n	1000186a <sleep_until+0x2e>
100018de:	e7d7      	b.n	10001890 <sleep_until+0x54>
100018e0:	20001a78 	.word	0x20001a78
100018e4:	40054000 	.word	0x40054000

100018e8 <sleep_ms>:
100018e8:	b570      	push	{r4, r5, r6, lr}
100018ea:	0006      	movs	r6, r0
100018ec:	f000 f8d8 	bl	10001aa0 <time_us_64>
100018f0:	22fa      	movs	r2, #250	; 0xfa
100018f2:	0004      	movs	r4, r0
100018f4:	000d      	movs	r5, r1
100018f6:	2300      	movs	r3, #0
100018f8:	0030      	movs	r0, r6
100018fa:	2100      	movs	r1, #0
100018fc:	0092      	lsls	r2, r2, #2
100018fe:	f003 f979 	bl	10004bf4 <__wrap___aeabi_lmul>
10001902:	1900      	adds	r0, r0, r4
10001904:	4169      	adcs	r1, r5
10001906:	428d      	cmp	r5, r1
10001908:	d805      	bhi.n	10001916 <sleep_ms+0x2e>
1000190a:	d002      	beq.n	10001912 <sleep_ms+0x2a>
1000190c:	f7ff ff96 	bl	1000183c <sleep_until>
10001910:	bd70      	pop	{r4, r5, r6, pc}
10001912:	4284      	cmp	r4, r0
10001914:	d9fa      	bls.n	1000190c <sleep_ms+0x24>
10001916:	2001      	movs	r0, #1
10001918:	4240      	negs	r0, r0
1000191a:	17c1      	asrs	r1, r0, #31
1000191c:	e7f6      	b.n	1000190c <sleep_ms+0x24>
1000191e:	46c0      	nop			; (mov r8, r8)

10001920 <best_effort_wfe_or_timeout>:
10001920:	b5f8      	push	{r3, r4, r5, r6, r7, lr}
10001922:	46ce      	mov	lr, r9
10001924:	4647      	mov	r7, r8
10001926:	b580      	push	{r7, lr}
10001928:	0005      	movs	r5, r0
1000192a:	000c      	movs	r4, r1
1000192c:	f7ff fdfc 	bl	10001528 <alarm_pool_add_alarm_at.constprop.0>
10001930:	1e03      	subs	r3, r0, #0
10001932:	dc11      	bgt.n	10001958 <best_effort_wfe_or_timeout+0x38>
10001934:	4a24      	ldr	r2, [pc, #144]	; (100019c8 <best_effort_wfe_or_timeout+0xa8>)
10001936:	2000      	movs	r0, #0
10001938:	6a53      	ldr	r3, [r2, #36]	; 0x24
1000193a:	42a3      	cmp	r3, r4
1000193c:	d303      	bcc.n	10001946 <best_effort_wfe_or_timeout+0x26>
1000193e:	6a92      	ldr	r2, [r2, #40]	; 0x28
10001940:	3001      	adds	r0, #1
10001942:	42aa      	cmp	r2, r5
10001944:	d303      	bcc.n	1000194e <best_effort_wfe_or_timeout+0x2e>
10001946:	bcc0      	pop	{r6, r7}
10001948:	46b9      	mov	r9, r7
1000194a:	46b0      	mov	r8, r6
1000194c:	bdf8      	pop	{r3, r4, r5, r6, r7, pc}
1000194e:	1b1b      	subs	r3, r3, r4
10001950:	1e5a      	subs	r2, r3, #1
10001952:	4193      	sbcs	r3, r2
10001954:	b2d8      	uxtb	r0, r3
10001956:	e7f6      	b.n	10001946 <best_effort_wfe_or_timeout+0x26>
10001958:	bf20      	wfe
1000195a:	4e1c      	ldr	r6, [pc, #112]	; (100019cc <best_effort_wfe_or_timeout+0xac>)
1000195c:	6871      	ldr	r1, [r6, #4]
1000195e:	f3ef 8710 	mrs	r7, PRIMASK
10001962:	b672      	cpsid	i
10001964:	680a      	ldr	r2, [r1, #0]
10001966:	2a00      	cmp	r2, #0
10001968:	d0fc      	beq.n	10001964 <best_effort_wfe_or_timeout+0x44>
1000196a:	f3bf 8f5f 	dmb	sy
1000196e:	b2da      	uxtb	r2, r3
10001970:	4694      	mov	ip, r2
10001972:	22ff      	movs	r2, #255	; 0xff
10001974:	6830      	ldr	r0, [r6, #0]
10001976:	401a      	ands	r2, r3
10001978:	7b41      	ldrb	r1, [r0, #13]
1000197a:	4561      	cmp	r1, ip
1000197c:	d00a      	beq.n	10001994 <best_effort_wfe_or_timeout+0x74>
1000197e:	6801      	ldr	r1, [r0, #0]
10001980:	4689      	mov	r9, r1
10001982:	0051      	lsls	r1, r2, #1
10001984:	4688      	mov	r8, r1
10001986:	4649      	mov	r1, r9
10001988:	4490      	add	r8, r2
1000198a:	4441      	add	r1, r8
1000198c:	3903      	subs	r1, #3
1000198e:	7889      	ldrb	r1, [r1, #2]
10001990:	2900      	cmp	r1, #0
10001992:	d00f      	beq.n	100019b4 <best_effort_wfe_or_timeout+0x94>
10001994:	68f1      	ldr	r1, [r6, #12]
10001996:	0a1b      	lsrs	r3, r3, #8
10001998:	188a      	adds	r2, r1, r2
1000199a:	3a01      	subs	r2, #1
1000199c:	7812      	ldrb	r2, [r2, #0]
1000199e:	b2db      	uxtb	r3, r3
100019a0:	429a      	cmp	r2, r3
100019a2:	d00c      	beq.n	100019be <best_effort_wfe_or_timeout+0x9e>
100019a4:	6873      	ldr	r3, [r6, #4]
100019a6:	f3bf 8f5f 	dmb	sy
100019aa:	2200      	movs	r2, #0
100019ac:	601a      	str	r2, [r3, #0]
100019ae:	f387 8810 	msr	PRIMASK, r7
100019b2:	e7bf      	b.n	10001934 <best_effort_wfe_or_timeout+0x14>
100019b4:	6932      	ldr	r2, [r6, #16]
100019b6:	4293      	cmp	r3, r2
100019b8:	d1f4      	bne.n	100019a4 <best_effort_wfe_or_timeout+0x84>
100019ba:	6131      	str	r1, [r6, #16]
100019bc:	e7f2      	b.n	100019a4 <best_effort_wfe_or_timeout+0x84>
100019be:	4661      	mov	r1, ip
100019c0:	f000 fb18 	bl	10001ff4 <ph_remove_and_free_node>
100019c4:	e7ee      	b.n	100019a4 <best_effort_wfe_or_timeout+0x84>
100019c6:	46c0      	nop			; (mov r8, r8)
100019c8:	40054000 	.word	0x40054000
100019cc:	200003c4 	.word	0x200003c4

100019d0 <hardware_alarm_irq_handler>:
100019d0:	b5f0      	push	{r4, r5, r6, r7, lr}
100019d2:	46d6      	mov	lr, sl
100019d4:	464f      	mov	r7, r9
100019d6:	4646      	mov	r6, r8
100019d8:	b5c0      	push	{r6, r7, lr}
100019da:	f3ef 8205 	mrs	r2, IPSR
100019de:	233f      	movs	r3, #63	; 0x3f
100019e0:	4013      	ands	r3, r2
100019e2:	0018      	movs	r0, r3
100019e4:	3810      	subs	r0, #16
100019e6:	f3ef 8c10 	mrs	ip, PRIMASK
100019ea:	b672      	cpsid	i
100019ec:	4920      	ldr	r1, [pc, #128]	; (10001a70 <hardware_alarm_irq_handler+0xa0>)
100019ee:	680a      	ldr	r2, [r1, #0]
100019f0:	2a00      	cmp	r2, #0
100019f2:	d0fc      	beq.n	100019ee <hardware_alarm_irq_handler+0x1e>
100019f4:	f3bf 8f5f 	dmb	sy
100019f8:	2201      	movs	r2, #1
100019fa:	0017      	movs	r7, r2
100019fc:	4087      	lsls	r7, r0
100019fe:	4c1d      	ldr	r4, [pc, #116]	; (10001a74 <hardware_alarm_irq_handler+0xa4>)
10001a00:	0016      	movs	r6, r2
10001a02:	46a2      	mov	sl, r4
10001a04:	6367      	str	r7, [r4, #52]	; 0x34
10001a06:	4c1c      	ldr	r4, [pc, #112]	; (10001a78 <hardware_alarm_irq_handler+0xa8>)
10001a08:	7825      	ldrb	r5, [r4, #0]
10001a0a:	46a0      	mov	r8, r4
10001a0c:	002c      	movs	r4, r5
10001a0e:	40c4      	lsrs	r4, r0
10001a10:	4026      	ands	r6, r4
10001a12:	4222      	tst	r2, r4
10001a14:	d015      	beq.n	10001a42 <hardware_alarm_irq_handler+0x72>
10001a16:	4652      	mov	r2, sl
10001a18:	6a56      	ldr	r6, [r2, #36]	; 0x24
10001a1a:	4a18      	ldr	r2, [pc, #96]	; (10001a7c <hardware_alarm_irq_handler+0xac>)
10001a1c:	0084      	lsls	r4, r0, #2
10001a1e:	58a2      	ldr	r2, [r4, r2]
10001a20:	4296      	cmp	r6, r2
10001a22:	d318      	bcc.n	10001a56 <hardware_alarm_irq_handler+0x86>
10001a24:	4642      	mov	r2, r8
10001a26:	4b16      	ldr	r3, [pc, #88]	; (10001a80 <hardware_alarm_irq_handler+0xb0>)
10001a28:	43bd      	bics	r5, r7
10001a2a:	58e3      	ldr	r3, [r4, r3]
10001a2c:	7015      	strb	r5, [r2, #0]
10001a2e:	f3bf 8f5f 	dmb	sy
10001a32:	2200      	movs	r2, #0
10001a34:	600a      	str	r2, [r1, #0]
10001a36:	f38c 8810 	msr	PRIMASK, ip
10001a3a:	2b00      	cmp	r3, #0
10001a3c:	d006      	beq.n	10001a4c <hardware_alarm_irq_handler+0x7c>
10001a3e:	4798      	blx	r3
10001a40:	e004      	b.n	10001a4c <hardware_alarm_irq_handler+0x7c>
10001a42:	f3bf 8f5f 	dmb	sy
10001a46:	600e      	str	r6, [r1, #0]
10001a48:	f38c 8810 	msr	PRIMASK, ip
10001a4c:	bce0      	pop	{r5, r6, r7}
10001a4e:	46ba      	mov	sl, r7
10001a50:	46b1      	mov	r9, r6
10001a52:	46a8      	mov	r8, r5
10001a54:	bdf0      	pop	{r4, r5, r6, r7, pc}
10001a56:	4a0b      	ldr	r2, [pc, #44]	; (10001a84 <hardware_alarm_irq_handler+0xb4>)
10001a58:	009b      	lsls	r3, r3, #2
10001a5a:	4690      	mov	r8, r2
10001a5c:	4443      	add	r3, r8
10001a5e:	681a      	ldr	r2, [r3, #0]
10001a60:	601a      	str	r2, [r3, #0]
10001a62:	f3bf 8f5f 	dmb	sy
10001a66:	2300      	movs	r3, #0
10001a68:	600b      	str	r3, [r1, #0]
10001a6a:	f38c 8810 	msr	PRIMASK, ip
10001a6e:	e7ed      	b.n	10001a4c <hardware_alarm_irq_handler+0x7c>
10001a70:	d0000128 	.word	0xd0000128
10001a74:	40054000 	.word	0x40054000
10001a78:	20001abc 	.word	0x20001abc
10001a7c:	20001a84 	.word	0x20001a84
10001a80:	20001490 	.word	0x20001490
10001a84:	40053fd0 	.word	0x40053fd0

10001a88 <hardware_alarm_claim>:
10001a88:	b510      	push	{r4, lr}
10001a8a:	4b03      	ldr	r3, [pc, #12]	; (10001a98 <hardware_alarm_claim+0x10>)
10001a8c:	0001      	movs	r1, r0
10001a8e:	0018      	movs	r0, r3
10001a90:	4a02      	ldr	r2, [pc, #8]	; (10001a9c <hardware_alarm_claim+0x14>)
10001a92:	f7ff f851 	bl	10000b38 <hw_claim_or_assert>
10001a96:	bd10      	pop	{r4, pc}
10001a98:	20001ab7 	.word	0x20001ab7
10001a9c:	100086c4 	.word	0x100086c4

10001aa0 <time_us_64>:
10001aa0:	4b03      	ldr	r3, [pc, #12]	; (10001ab0 <time_us_64+0x10>)
10001aa2:	6a59      	ldr	r1, [r3, #36]	; 0x24
10001aa4:	000a      	movs	r2, r1
10001aa6:	6a98      	ldr	r0, [r3, #40]	; 0x28
10001aa8:	6a59      	ldr	r1, [r3, #36]	; 0x24
10001aaa:	428a      	cmp	r2, r1
10001aac:	d1fa      	bne.n	10001aa4 <time_us_64+0x4>
10001aae:	4770      	bx	lr
10001ab0:	40054000 	.word	0x40054000

10001ab4 <busy_wait_until>:
10001ab4:	4a06      	ldr	r2, [pc, #24]	; (10001ad0 <busy_wait_until+0x1c>)
10001ab6:	6a53      	ldr	r3, [r2, #36]	; 0x24
10001ab8:	4299      	cmp	r1, r3
10001aba:	d8fc      	bhi.n	10001ab6 <busy_wait_until+0x2>
10001abc:	d107      	bne.n	10001ace <busy_wait_until+0x1a>
10001abe:	4b04      	ldr	r3, [pc, #16]	; (10001ad0 <busy_wait_until+0x1c>)
10001ac0:	e002      	b.n	10001ac8 <busy_wait_until+0x14>
10001ac2:	6a5a      	ldr	r2, [r3, #36]	; 0x24
10001ac4:	4291      	cmp	r1, r2
10001ac6:	d102      	bne.n	10001ace <busy_wait_until+0x1a>
10001ac8:	6a9a      	ldr	r2, [r3, #40]	; 0x28
10001aca:	4282      	cmp	r2, r0
10001acc:	d3f9      	bcc.n	10001ac2 <busy_wait_until+0xe>
10001ace:	4770      	bx	lr
10001ad0:	40054000 	.word	0x40054000

10001ad4 <hardware_alarm_set_callback>:
10001ad4:	b570      	push	{r4, r5, r6, lr}
10001ad6:	0004      	movs	r4, r0
10001ad8:	000d      	movs	r5, r1
10001ada:	f3ef 8610 	mrs	r6, PRIMASK
10001ade:	b672      	cpsid	i
10001ae0:	4a1a      	ldr	r2, [pc, #104]	; (10001b4c <hardware_alarm_set_callback+0x78>)
10001ae2:	6813      	ldr	r3, [r2, #0]
10001ae4:	2b00      	cmp	r3, #0
10001ae6:	d0fc      	beq.n	10001ae2 <hardware_alarm_set_callback+0xe>
10001ae8:	f3bf 8f5f 	dmb	sy
10001aec:	2d00      	cmp	r5, #0
10001aee:	d01b      	beq.n	10001b28 <hardware_alarm_set_callback+0x54>
10001af0:	0020      	movs	r0, r4
10001af2:	f7ff f8f5 	bl	10000ce0 <irq_get_vtable_handler>
10001af6:	4916      	ldr	r1, [pc, #88]	; (10001b50 <hardware_alarm_set_callback+0x7c>)
10001af8:	4281      	cmp	r1, r0
10001afa:	d00a      	beq.n	10001b12 <hardware_alarm_set_callback+0x3e>
10001afc:	0020      	movs	r0, r4
10001afe:	f7ff f8f7 	bl	10000cf0 <irq_set_exclusive_handler>
10001b02:	2101      	movs	r1, #1
10001b04:	0020      	movs	r0, r4
10001b06:	f7ff f8bb 	bl	10000c80 <irq_set_enabled>
10001b0a:	2301      	movs	r3, #1
10001b0c:	40a3      	lsls	r3, r4
10001b0e:	4a11      	ldr	r2, [pc, #68]	; (10001b54 <hardware_alarm_set_callback+0x80>)
10001b10:	6013      	str	r3, [r2, #0]
10001b12:	4b11      	ldr	r3, [pc, #68]	; (10001b58 <hardware_alarm_set_callback+0x84>)
10001b14:	00a4      	lsls	r4, r4, #2
10001b16:	50e5      	str	r5, [r4, r3]
10001b18:	f3bf 8f5f 	dmb	sy
10001b1c:	2200      	movs	r2, #0
10001b1e:	4b0b      	ldr	r3, [pc, #44]	; (10001b4c <hardware_alarm_set_callback+0x78>)
10001b20:	601a      	str	r2, [r3, #0]
10001b22:	f386 8810 	msr	PRIMASK, r6
10001b26:	bd70      	pop	{r4, r5, r6, pc}
10001b28:	2101      	movs	r1, #1
10001b2a:	40a1      	lsls	r1, r4
10001b2c:	4b0a      	ldr	r3, [pc, #40]	; (10001b58 <hardware_alarm_set_callback+0x84>)
10001b2e:	00a2      	lsls	r2, r4, #2
10001b30:	50d5      	str	r5, [r2, r3]
10001b32:	4b0a      	ldr	r3, [pc, #40]	; (10001b5c <hardware_alarm_set_callback+0x88>)
10001b34:	0020      	movs	r0, r4
10001b36:	781a      	ldrb	r2, [r3, #0]
10001b38:	438a      	bics	r2, r1
10001b3a:	4905      	ldr	r1, [pc, #20]	; (10001b50 <hardware_alarm_set_callback+0x7c>)
10001b3c:	701a      	strb	r2, [r3, #0]
10001b3e:	f7ff f9f1 	bl	10000f24 <irq_remove_handler>
10001b42:	2100      	movs	r1, #0
10001b44:	0020      	movs	r0, r4
10001b46:	f7ff f89b 	bl	10000c80 <irq_set_enabled>
10001b4a:	e7e5      	b.n	10001b18 <hardware_alarm_set_callback+0x44>
10001b4c:	d0000128 	.word	0xd0000128
10001b50:	100019d1 	.word	0x100019d1
10001b54:	40056038 	.word	0x40056038
10001b58:	20001490 	.word	0x20001490
10001b5c:	20001abc 	.word	0x20001abc

10001b60 <hardware_alarm_set_target>:
10001b60:	b5f0      	push	{r4, r5, r6, r7, lr}
10001b62:	464f      	mov	r7, r9
10001b64:	46d6      	mov	lr, sl
10001b66:	4646      	mov	r6, r8
10001b68:	b5c0      	push	{r6, r7, lr}
10001b6a:	0007      	movs	r7, r0
10001b6c:	4c2e      	ldr	r4, [pc, #184]	; (10001c28 <hardware_alarm_set_target+0xc8>)
10001b6e:	6a61      	ldr	r1, [r4, #36]	; 0x24
10001b70:	000d      	movs	r5, r1
10001b72:	6aa6      	ldr	r6, [r4, #40]	; 0x28
10001b74:	6a61      	ldr	r1, [r4, #36]	; 0x24
10001b76:	42a9      	cmp	r1, r5
10001b78:	d1fa      	bne.n	10001b70 <hardware_alarm_set_target+0x10>
10001b7a:	428b      	cmp	r3, r1
10001b7c:	d808      	bhi.n	10001b90 <hardware_alarm_set_target+0x30>
10001b7e:	d005      	beq.n	10001b8c <hardware_alarm_set_target+0x2c>
10001b80:	2001      	movs	r0, #1
10001b82:	bce0      	pop	{r5, r6, r7}
10001b84:	46ba      	mov	sl, r7
10001b86:	46b1      	mov	r9, r6
10001b88:	46a8      	mov	r8, r5
10001b8a:	bdf0      	pop	{r4, r5, r6, r7, pc}
10001b8c:	42b2      	cmp	r2, r6
10001b8e:	d9f7      	bls.n	10001b80 <hardware_alarm_set_target+0x20>
10001b90:	f3ef 8a10 	mrs	sl, PRIMASK
10001b94:	b672      	cpsid	i
10001b96:	4825      	ldr	r0, [pc, #148]	; (10001c2c <hardware_alarm_set_target+0xcc>)
10001b98:	6801      	ldr	r1, [r0, #0]
10001b9a:	2900      	cmp	r1, #0
10001b9c:	d0fc      	beq.n	10001b98 <hardware_alarm_set_target+0x38>
10001b9e:	f3bf 8f5f 	dmb	sy
10001ba2:	2501      	movs	r5, #1
10001ba4:	40bd      	lsls	r5, r7
10001ba6:	4922      	ldr	r1, [pc, #136]	; (10001c30 <hardware_alarm_set_target+0xd0>)
10001ba8:	4c1f      	ldr	r4, [pc, #124]	; (10001c28 <hardware_alarm_set_target+0xc8>)
10001baa:	4688      	mov	r8, r1
10001bac:	7809      	ldrb	r1, [r1, #0]
10001bae:	4689      	mov	r9, r1
10001bb0:	4329      	orrs	r1, r5
10001bb2:	b2c9      	uxtb	r1, r1
10001bb4:	468c      	mov	ip, r1
10001bb6:	4641      	mov	r1, r8
10001bb8:	4660      	mov	r0, ip
10001bba:	7008      	strb	r0, [r1, #0]
10001bbc:	1d39      	adds	r1, r7, #4
10001bbe:	0089      	lsls	r1, r1, #2
10001bc0:	6365      	str	r5, [r4, #52]	; 0x34
10001bc2:	510a      	str	r2, [r1, r4]
10001bc4:	491b      	ldr	r1, [pc, #108]	; (10001c34 <hardware_alarm_set_target+0xd4>)
10001bc6:	00b8      	lsls	r0, r7, #2
10001bc8:	5043      	str	r3, [r0, r1]
10001bca:	6a21      	ldr	r1, [r4, #32]
10001bcc:	2000      	movs	r0, #0
10001bce:	4229      	tst	r1, r5
10001bd0:	d019      	beq.n	10001c06 <hardware_alarm_set_target+0xa6>
10001bd2:	6a61      	ldr	r1, [r4, #36]	; 0x24
10001bd4:	0008      	movs	r0, r1
10001bd6:	6aa6      	ldr	r6, [r4, #40]	; 0x28
10001bd8:	6a61      	ldr	r1, [r4, #36]	; 0x24
10001bda:	4281      	cmp	r1, r0
10001bdc:	d1fa      	bne.n	10001bd4 <hardware_alarm_set_target+0x74>
10001bde:	428b      	cmp	r3, r1
10001be0:	d819      	bhi.n	10001c16 <hardware_alarm_set_target+0xb6>
10001be2:	d101      	bne.n	10001be8 <hardware_alarm_set_target+0x88>
10001be4:	42b2      	cmp	r2, r6
10001be6:	d816      	bhi.n	10001c16 <hardware_alarm_set_target+0xb6>
10001be8:	45cc      	cmp	ip, r9
10001bea:	d00b      	beq.n	10001c04 <hardware_alarm_set_target+0xa4>
10001bec:	4b0e      	ldr	r3, [pc, #56]	; (10001c28 <hardware_alarm_set_target+0xc8>)
10001bee:	221f      	movs	r2, #31
10001bf0:	621d      	str	r5, [r3, #32]
10001bf2:	635d      	str	r5, [r3, #52]	; 0x34
10001bf4:	2301      	movs	r3, #1
10001bf6:	403a      	ands	r2, r7
10001bf8:	4093      	lsls	r3, r2
10001bfa:	4a0f      	ldr	r2, [pc, #60]	; (10001c38 <hardware_alarm_set_target+0xd8>)
10001bfc:	6013      	str	r3, [r2, #0]
10001bfe:	4643      	mov	r3, r8
10001c00:	464a      	mov	r2, r9
10001c02:	701a      	strb	r2, [r3, #0]
10001c04:	2001      	movs	r0, #1
10001c06:	f3bf 8f5f 	dmb	sy
10001c0a:	2200      	movs	r2, #0
10001c0c:	4b07      	ldr	r3, [pc, #28]	; (10001c2c <hardware_alarm_set_target+0xcc>)
10001c0e:	601a      	str	r2, [r3, #0]
10001c10:	f38a 8810 	msr	PRIMASK, sl
10001c14:	e7b5      	b.n	10001b82 <hardware_alarm_set_target+0x22>
10001c16:	2000      	movs	r0, #0
10001c18:	f3bf 8f5f 	dmb	sy
10001c1c:	2200      	movs	r2, #0
10001c1e:	4b03      	ldr	r3, [pc, #12]	; (10001c2c <hardware_alarm_set_target+0xcc>)
10001c20:	601a      	str	r2, [r3, #0]
10001c22:	f38a 8810 	msr	PRIMASK, sl
10001c26:	e7ac      	b.n	10001b82 <hardware_alarm_set_target+0x22>
10001c28:	40054000 	.word	0x40054000
10001c2c:	d0000128 	.word	0xd0000128
10001c30:	20001abc 	.word	0x20001abc
10001c34:	20001a84 	.word	0x20001a84
10001c38:	e000e280 	.word	0xe000e280

10001c3c <hardware_alarm_cancel>:
10001c3c:	f3ef 8c10 	mrs	ip, PRIMASK
10001c40:	b672      	cpsid	i
10001c42:	490a      	ldr	r1, [pc, #40]	; (10001c6c <hardware_alarm_cancel+0x30>)
10001c44:	680b      	ldr	r3, [r1, #0]
10001c46:	2b00      	cmp	r3, #0
10001c48:	d0fc      	beq.n	10001c44 <hardware_alarm_cancel+0x8>
10001c4a:	f3bf 8f5f 	dmb	sy
10001c4e:	2301      	movs	r3, #1
10001c50:	4083      	lsls	r3, r0
10001c52:	4a07      	ldr	r2, [pc, #28]	; (10001c70 <hardware_alarm_cancel+0x34>)
10001c54:	4807      	ldr	r0, [pc, #28]	; (10001c74 <hardware_alarm_cancel+0x38>)
10001c56:	6213      	str	r3, [r2, #32]
10001c58:	7802      	ldrb	r2, [r0, #0]
10001c5a:	439a      	bics	r2, r3
10001c5c:	7002      	strb	r2, [r0, #0]
10001c5e:	f3bf 8f5f 	dmb	sy
10001c62:	2300      	movs	r3, #0
10001c64:	600b      	str	r3, [r1, #0]
10001c66:	f38c 8810 	msr	PRIMASK, ip
10001c6a:	4770      	bx	lr
10001c6c:	d0000128 	.word	0xd0000128
10001c70:	40054000 	.word	0x40054000
10001c74:	20001abc 	.word	0x20001abc

10001c78 <ph_merge_nodes>:
10001c78:	b570      	push	{r4, r5, r6, lr}
10001c7a:	0006      	movs	r6, r0
10001c7c:	000d      	movs	r5, r1
10001c7e:	0014      	movs	r4, r2
10001c80:	2900      	cmp	r1, #0
10001c82:	d01d      	beq.n	10001cc0 <ph_merge_nodes+0x48>
10001c84:	2a00      	cmp	r2, #0
10001c86:	d012      	beq.n	10001cae <ph_merge_nodes+0x36>
10001c88:	6873      	ldr	r3, [r6, #4]
10001c8a:	6880      	ldr	r0, [r0, #8]
10001c8c:	4798      	blx	r3
10001c8e:	0062      	lsls	r2, r4, #1
10001c90:	006b      	lsls	r3, r5, #1
10001c92:	1912      	adds	r2, r2, r4
10001c94:	195b      	adds	r3, r3, r5
10001c96:	6831      	ldr	r1, [r6, #0]
10001c98:	3a03      	subs	r2, #3
10001c9a:	3b03      	subs	r3, #3
10001c9c:	2800      	cmp	r0, #0
10001c9e:	d008      	beq.n	10001cb2 <ph_merge_nodes+0x3a>
10001ca0:	188a      	adds	r2, r1, r2
10001ca2:	7095      	strb	r5, [r2, #2]
10001ca4:	18c8      	adds	r0, r1, r3
10001ca6:	5ccb      	ldrb	r3, [r1, r3]
10001ca8:	2b00      	cmp	r3, #0
10001caa:	d10b      	bne.n	10001cc4 <ph_merge_nodes+0x4c>
10001cac:	7004      	strb	r4, [r0, #0]
10001cae:	0028      	movs	r0, r5
10001cb0:	bd70      	pop	{r4, r5, r6, pc}
10001cb2:	18cb      	adds	r3, r1, r3
10001cb4:	709c      	strb	r4, [r3, #2]
10001cb6:	1888      	adds	r0, r1, r2
10001cb8:	5c8a      	ldrb	r2, [r1, r2]
10001cba:	2a00      	cmp	r2, #0
10001cbc:	d105      	bne.n	10001cca <ph_merge_nodes+0x52>
10001cbe:	7005      	strb	r5, [r0, #0]
10001cc0:	0020      	movs	r0, r4
10001cc2:	e7f5      	b.n	10001cb0 <ph_merge_nodes+0x38>
10001cc4:	7053      	strb	r3, [r2, #1]
10001cc6:	7004      	strb	r4, [r0, #0]
10001cc8:	e7f1      	b.n	10001cae <ph_merge_nodes+0x36>
10001cca:	705a      	strb	r2, [r3, #1]
10001ccc:	7005      	strb	r5, [r0, #0]
10001cce:	e7f7      	b.n	10001cc0 <ph_merge_nodes+0x48>

10001cd0 <ph_post_alloc_init>:
10001cd0:	b510      	push	{r4, lr}
10001cd2:	6083      	str	r3, [r0, #8]
10001cd4:	2300      	movs	r3, #0
10001cd6:	b2cc      	uxtb	r4, r1
10001cd8:	7343      	strb	r3, [r0, #13]
10001cda:	3301      	adds	r3, #1
10001cdc:	6042      	str	r2, [r0, #4]
10001cde:	7304      	strb	r4, [r0, #12]
10001ce0:	7383      	strb	r3, [r0, #14]
10001ce2:	73c4      	strb	r4, [r0, #15]
10001ce4:	6800      	ldr	r0, [r0, #0]
10001ce6:	1c42      	adds	r2, r0, #1
10001ce8:	2c01      	cmp	r4, #1
10001cea:	d905      	bls.n	10001cf8 <ph_post_alloc_init+0x28>
10001cec:	3301      	adds	r3, #1
10001cee:	b2db      	uxtb	r3, r3
10001cf0:	7013      	strb	r3, [r2, #0]
10001cf2:	3203      	adds	r2, #3
10001cf4:	429c      	cmp	r4, r3
10001cf6:	d1f9      	bne.n	10001cec <ph_post_alloc_init+0x1c>
10001cf8:	23ff      	movs	r3, #255	; 0xff
10001cfa:	400b      	ands	r3, r1
10001cfc:	005a      	lsls	r2, r3, #1
10001cfe:	18d3      	adds	r3, r2, r3
10001d00:	18c0      	adds	r0, r0, r3
10001d02:	2300      	movs	r3, #0
10001d04:	3803      	subs	r0, #3
10001d06:	7043      	strb	r3, [r0, #1]
10001d08:	bd10      	pop	{r4, pc}
10001d0a:	46c0      	nop			; (mov r8, r8)

10001d0c <ph_merge_two_pass>:
10001d0c:	b570      	push	{r4, r5, r6, lr}
10001d0e:	0005      	movs	r5, r0
10001d10:	1e0c      	subs	r4, r1, #0
10001d12:	d007      	beq.n	10001d24 <ph_merge_two_pass+0x18>
10001d14:	0063      	lsls	r3, r4, #1
10001d16:	6801      	ldr	r1, [r0, #0]
10001d18:	191b      	adds	r3, r3, r4
10001d1a:	3b03      	subs	r3, #3
10001d1c:	18cb      	adds	r3, r1, r3
10001d1e:	785a      	ldrb	r2, [r3, #1]
10001d20:	2a00      	cmp	r2, #0
10001d22:	d101      	bne.n	10001d28 <ph_merge_two_pass+0x1c>
10001d24:	0020      	movs	r0, r4
10001d26:	bd70      	pop	{r4, r5, r6, pc}
10001d28:	0050      	lsls	r0, r2, #1
10001d2a:	1880      	adds	r0, r0, r2
10001d2c:	3803      	subs	r0, #3
10001d2e:	1809      	adds	r1, r1, r0
10001d30:	2000      	movs	r0, #0
10001d32:	784e      	ldrb	r6, [r1, #1]
10001d34:	7048      	strb	r0, [r1, #1]
10001d36:	0021      	movs	r1, r4
10001d38:	7058      	strb	r0, [r3, #1]
10001d3a:	0028      	movs	r0, r5
10001d3c:	f7ff ff9c 	bl	10001c78 <ph_merge_nodes>
10001d40:	0031      	movs	r1, r6
10001d42:	0004      	movs	r4, r0
10001d44:	0028      	movs	r0, r5
10001d46:	f7ff ffe1 	bl	10001d0c <ph_merge_two_pass>
10001d4a:	0006      	movs	r6, r0
10001d4c:	2c00      	cmp	r4, #0
10001d4e:	d020      	beq.n	10001d92 <ph_merge_two_pass+0x86>
10001d50:	2800      	cmp	r0, #0
10001d52:	d0e7      	beq.n	10001d24 <ph_merge_two_pass+0x18>
10001d54:	0032      	movs	r2, r6
10001d56:	0021      	movs	r1, r4
10001d58:	686b      	ldr	r3, [r5, #4]
10001d5a:	68a8      	ldr	r0, [r5, #8]
10001d5c:	4798      	blx	r3
10001d5e:	0072      	lsls	r2, r6, #1
10001d60:	0063      	lsls	r3, r4, #1
10001d62:	1992      	adds	r2, r2, r6
10001d64:	191b      	adds	r3, r3, r4
10001d66:	6829      	ldr	r1, [r5, #0]
10001d68:	3a03      	subs	r2, #3
10001d6a:	3b03      	subs	r3, #3
10001d6c:	2800      	cmp	r0, #0
10001d6e:	d008      	beq.n	10001d82 <ph_merge_two_pass+0x76>
10001d70:	188a      	adds	r2, r1, r2
10001d72:	7094      	strb	r4, [r2, #2]
10001d74:	18c8      	adds	r0, r1, r3
10001d76:	5ccb      	ldrb	r3, [r1, r3]
10001d78:	2b00      	cmp	r3, #0
10001d7a:	d000      	beq.n	10001d7e <ph_merge_two_pass+0x72>
10001d7c:	7053      	strb	r3, [r2, #1]
10001d7e:	7006      	strb	r6, [r0, #0]
10001d80:	e7d0      	b.n	10001d24 <ph_merge_two_pass+0x18>
10001d82:	18cb      	adds	r3, r1, r3
10001d84:	709e      	strb	r6, [r3, #2]
10001d86:	1888      	adds	r0, r1, r2
10001d88:	5c8a      	ldrb	r2, [r1, r2]
10001d8a:	2a00      	cmp	r2, #0
10001d8c:	d000      	beq.n	10001d90 <ph_merge_two_pass+0x84>
10001d8e:	705a      	strb	r2, [r3, #1]
10001d90:	7004      	strb	r4, [r0, #0]
10001d92:	0034      	movs	r4, r6
10001d94:	e7c6      	b.n	10001d24 <ph_merge_two_pass+0x18>
10001d96:	46c0      	nop			; (mov r8, r8)

10001d98 <ph_remove_any_head>:
10001d98:	b5f8      	push	{r3, r4, r5, r6, r7, lr}
10001d9a:	4657      	mov	r7, sl
10001d9c:	464e      	mov	r6, r9
10001d9e:	4645      	mov	r5, r8
10001da0:	46de      	mov	lr, fp
10001da2:	004c      	lsls	r4, r1, #1
10001da4:	b5e0      	push	{r5, r6, r7, lr}
10001da6:	1864      	adds	r4, r4, r1
10001da8:	0017      	movs	r7, r2
10001daa:	6802      	ldr	r2, [r0, #0]
10001dac:	3c03      	subs	r4, #3
10001dae:	0005      	movs	r5, r0
10001db0:	5d10      	ldrb	r0, [r2, r4]
10001db2:	1913      	adds	r3, r2, r4
10001db4:	000e      	movs	r6, r1
10001db6:	469c      	mov	ip, r3
10001db8:	2800      	cmp	r0, #0
10001dba:	d052      	beq.n	10001e62 <ph_remove_any_head+0xca>
10001dbc:	0043      	lsls	r3, r0, #1
10001dbe:	4698      	mov	r8, r3
10001dc0:	181b      	adds	r3, r3, r0
10001dc2:	3b03      	subs	r3, #3
10001dc4:	18d3      	adds	r3, r2, r3
10001dc6:	7859      	ldrb	r1, [r3, #1]
10001dc8:	468a      	mov	sl, r1
10001dca:	2900      	cmp	r1, #0
10001dcc:	d119      	bne.n	10001e02 <ph_remove_any_head+0x6a>
10001dce:	2f00      	cmp	r7, #0
10001dd0:	d00c      	beq.n	10001dec <ph_remove_any_head+0x54>
10001dd2:	7bec      	ldrb	r4, [r5, #15]
10001dd4:	2c00      	cmp	r4, #0
10001dd6:	d050      	beq.n	10001e7a <ph_remove_any_head+0xe2>
10001dd8:	0063      	lsls	r3, r4, #1
10001dda:	191b      	adds	r3, r3, r4
10001ddc:	18d3      	adds	r3, r2, r3
10001dde:	3b03      	subs	r3, #3
10001de0:	705e      	strb	r6, [r3, #1]
10001de2:	73ee      	strb	r6, [r5, #15]
10001de4:	4643      	mov	r3, r8
10001de6:	1819      	adds	r1, r3, r0
10001de8:	3903      	subs	r1, #3
10001dea:	1853      	adds	r3, r2, r1
10001dec:	2200      	movs	r2, #0
10001dee:	709a      	strb	r2, [r3, #2]
10001df0:	2300      	movs	r3, #0
10001df2:	4662      	mov	r2, ip
10001df4:	7053      	strb	r3, [r2, #1]
10001df6:	bcf0      	pop	{r4, r5, r6, r7}
10001df8:	46bb      	mov	fp, r7
10001dfa:	46b2      	mov	sl, r6
10001dfc:	46a9      	mov	r9, r5
10001dfe:	46a0      	mov	r8, r4
10001e00:	bdf8      	pop	{r3, r4, r5, r6, r7, pc}
10001e02:	0049      	lsls	r1, r1, #1
10001e04:	4451      	add	r1, sl
10001e06:	3903      	subs	r1, #3
10001e08:	1852      	adds	r2, r2, r1
10001e0a:	7851      	ldrb	r1, [r2, #1]
10001e0c:	4688      	mov	r8, r1
10001e0e:	2100      	movs	r1, #0
10001e10:	7051      	strb	r1, [r2, #1]
10001e12:	4689      	mov	r9, r1
10001e14:	7059      	strb	r1, [r3, #1]
10001e16:	4652      	mov	r2, sl
10001e18:	0001      	movs	r1, r0
10001e1a:	0028      	movs	r0, r5
10001e1c:	f7ff ff2c 	bl	10001c78 <ph_merge_nodes>
10001e20:	4643      	mov	r3, r8
10001e22:	4682      	mov	sl, r0
10001e24:	2b00      	cmp	r3, #0
10001e26:	d007      	beq.n	10001e38 <ph_remove_any_head+0xa0>
10001e28:	005b      	lsls	r3, r3, #1
10001e2a:	6829      	ldr	r1, [r5, #0]
10001e2c:	4443      	add	r3, r8
10001e2e:	3b03      	subs	r3, #3
10001e30:	18cb      	adds	r3, r1, r3
10001e32:	785a      	ldrb	r2, [r3, #1]
10001e34:	2a00      	cmp	r2, #0
10001e36:	d12c      	bne.n	10001e92 <ph_remove_any_head+0xfa>
10001e38:	4651      	mov	r1, sl
10001e3a:	4642      	mov	r2, r8
10001e3c:	0028      	movs	r0, r5
10001e3e:	f7ff ff1b 	bl	10001c78 <ph_merge_nodes>
10001e42:	0001      	movs	r1, r0
10001e44:	2f00      	cmp	r7, #0
10001e46:	d01a      	beq.n	10001e7e <ph_remove_any_head+0xe6>
10001e48:	46a4      	mov	ip, r4
10001e4a:	682a      	ldr	r2, [r5, #0]
10001e4c:	7bef      	ldrb	r7, [r5, #15]
10001e4e:	4494      	add	ip, r2
10001e50:	2f00      	cmp	r7, #0
10001e52:	d004      	beq.n	10001e5e <ph_remove_any_head+0xc6>
10001e54:	007b      	lsls	r3, r7, #1
10001e56:	19db      	adds	r3, r3, r7
10001e58:	18d3      	adds	r3, r2, r3
10001e5a:	3b03      	subs	r3, #3
10001e5c:	705e      	strb	r6, [r3, #1]
10001e5e:	73ee      	strb	r6, [r5, #15]
10001e60:	e010      	b.n	10001e84 <ph_remove_any_head+0xec>
10001e62:	2f00      	cmp	r7, #0
10001e64:	d0c4      	beq.n	10001df0 <ph_remove_any_head+0x58>
10001e66:	7be9      	ldrb	r1, [r5, #15]
10001e68:	2900      	cmp	r1, #0
10001e6a:	d010      	beq.n	10001e8e <ph_remove_any_head+0xf6>
10001e6c:	004b      	lsls	r3, r1, #1
10001e6e:	185b      	adds	r3, r3, r1
10001e70:	18d3      	adds	r3, r2, r3
10001e72:	3b03      	subs	r3, #3
10001e74:	705e      	strb	r6, [r3, #1]
10001e76:	73ee      	strb	r6, [r5, #15]
10001e78:	e7ba      	b.n	10001df0 <ph_remove_any_head+0x58>
10001e7a:	73ee      	strb	r6, [r5, #15]
10001e7c:	e7b6      	b.n	10001dec <ph_remove_any_head+0x54>
10001e7e:	46a4      	mov	ip, r4
10001e80:	682a      	ldr	r2, [r5, #0]
10001e82:	4494      	add	ip, r2
10001e84:	2900      	cmp	r1, #0
10001e86:	d0b3      	beq.n	10001df0 <ph_remove_any_head+0x58>
10001e88:	004b      	lsls	r3, r1, #1
10001e8a:	4698      	mov	r8, r3
10001e8c:	e7aa      	b.n	10001de4 <ph_remove_any_head+0x4c>
10001e8e:	73ee      	strb	r6, [r5, #15]
10001e90:	e7ae      	b.n	10001df0 <ph_remove_any_head+0x58>
10001e92:	0050      	lsls	r0, r2, #1
10001e94:	1880      	adds	r0, r0, r2
10001e96:	3803      	subs	r0, #3
10001e98:	1809      	adds	r1, r1, r0
10001e9a:	7848      	ldrb	r0, [r1, #1]
10001e9c:	4683      	mov	fp, r0
10001e9e:	4648      	mov	r0, r9
10001ea0:	7048      	strb	r0, [r1, #1]
10001ea2:	7058      	strb	r0, [r3, #1]
10001ea4:	4641      	mov	r1, r8
10001ea6:	0028      	movs	r0, r5
10001ea8:	f7ff fee6 	bl	10001c78 <ph_merge_nodes>
10001eac:	4659      	mov	r1, fp
10001eae:	4680      	mov	r8, r0
10001eb0:	0028      	movs	r0, r5
10001eb2:	f7ff ff2b 	bl	10001d0c <ph_merge_two_pass>
10001eb6:	4641      	mov	r1, r8
10001eb8:	0002      	movs	r2, r0
10001eba:	0028      	movs	r0, r5
10001ebc:	f7ff fedc 	bl	10001c78 <ph_merge_nodes>
10001ec0:	4680      	mov	r8, r0
10001ec2:	e7b9      	b.n	10001e38 <ph_remove_any_head+0xa0>

10001ec4 <ph_remove_head>:
10001ec4:	b5f8      	push	{r3, r4, r5, r6, r7, lr}
10001ec6:	4657      	mov	r7, sl
10001ec8:	464e      	mov	r6, r9
10001eca:	4645      	mov	r5, r8
10001ecc:	46de      	mov	lr, fp
10001ece:	b5e0      	push	{r5, r6, r7, lr}
10001ed0:	7b46      	ldrb	r6, [r0, #13]
10001ed2:	6802      	ldr	r2, [r0, #0]
10001ed4:	0075      	lsls	r5, r6, #1
10001ed6:	19ad      	adds	r5, r5, r6
10001ed8:	3d03      	subs	r5, #3
10001eda:	000f      	movs	r7, r1
10001edc:	5d51      	ldrb	r1, [r2, r5]
10001ede:	1953      	adds	r3, r2, r5
10001ee0:	0004      	movs	r4, r0
10001ee2:	469c      	mov	ip, r3
10001ee4:	2900      	cmp	r1, #0
10001ee6:	d053      	beq.n	10001f90 <ph_remove_head+0xcc>
10001ee8:	004b      	lsls	r3, r1, #1
10001eea:	4698      	mov	r8, r3
10001eec:	185b      	adds	r3, r3, r1
10001eee:	3b03      	subs	r3, #3
10001ef0:	18d3      	adds	r3, r2, r3
10001ef2:	7858      	ldrb	r0, [r3, #1]
10001ef4:	4682      	mov	sl, r0
10001ef6:	2800      	cmp	r0, #0
10001ef8:	d11b      	bne.n	10001f32 <ph_remove_head+0x6e>
10001efa:	2f00      	cmp	r7, #0
10001efc:	d00c      	beq.n	10001f18 <ph_remove_head+0x54>
10001efe:	7be5      	ldrb	r5, [r4, #15]
10001f00:	2d00      	cmp	r5, #0
10001f02:	d051      	beq.n	10001fa8 <ph_remove_head+0xe4>
10001f04:	006b      	lsls	r3, r5, #1
10001f06:	195b      	adds	r3, r3, r5
10001f08:	18d3      	adds	r3, r2, r3
10001f0a:	3b03      	subs	r3, #3
10001f0c:	705e      	strb	r6, [r3, #1]
10001f0e:	73e6      	strb	r6, [r4, #15]
10001f10:	4643      	mov	r3, r8
10001f12:	1858      	adds	r0, r3, r1
10001f14:	3803      	subs	r0, #3
10001f16:	1813      	adds	r3, r2, r0
10001f18:	2200      	movs	r2, #0
10001f1a:	709a      	strb	r2, [r3, #2]
10001f1c:	2300      	movs	r3, #0
10001f1e:	4662      	mov	r2, ip
10001f20:	0030      	movs	r0, r6
10001f22:	7053      	strb	r3, [r2, #1]
10001f24:	7361      	strb	r1, [r4, #13]
10001f26:	bcf0      	pop	{r4, r5, r6, r7}
10001f28:	46bb      	mov	fp, r7
10001f2a:	46b2      	mov	sl, r6
10001f2c:	46a9      	mov	r9, r5
10001f2e:	46a0      	mov	r8, r4
10001f30:	bdf8      	pop	{r3, r4, r5, r6, r7, pc}
10001f32:	0040      	lsls	r0, r0, #1
10001f34:	4450      	add	r0, sl
10001f36:	3803      	subs	r0, #3
10001f38:	1812      	adds	r2, r2, r0
10001f3a:	7850      	ldrb	r0, [r2, #1]
10001f3c:	4680      	mov	r8, r0
10001f3e:	2000      	movs	r0, #0
10001f40:	7050      	strb	r0, [r2, #1]
10001f42:	4681      	mov	r9, r0
10001f44:	7058      	strb	r0, [r3, #1]
10001f46:	4652      	mov	r2, sl
10001f48:	0020      	movs	r0, r4
10001f4a:	f7ff fe95 	bl	10001c78 <ph_merge_nodes>
10001f4e:	4643      	mov	r3, r8
10001f50:	4682      	mov	sl, r0
10001f52:	2b00      	cmp	r3, #0
10001f54:	d007      	beq.n	10001f66 <ph_remove_head+0xa2>
10001f56:	005b      	lsls	r3, r3, #1
10001f58:	6821      	ldr	r1, [r4, #0]
10001f5a:	4443      	add	r3, r8
10001f5c:	3b03      	subs	r3, #3
10001f5e:	18cb      	adds	r3, r1, r3
10001f60:	785a      	ldrb	r2, [r3, #1]
10001f62:	2a00      	cmp	r2, #0
10001f64:	d12c      	bne.n	10001fc0 <ph_remove_head+0xfc>
10001f66:	4651      	mov	r1, sl
10001f68:	4642      	mov	r2, r8
10001f6a:	0020      	movs	r0, r4
10001f6c:	f7ff fe84 	bl	10001c78 <ph_merge_nodes>
10001f70:	0001      	movs	r1, r0
10001f72:	2f00      	cmp	r7, #0
10001f74:	d01a      	beq.n	10001fac <ph_remove_head+0xe8>
10001f76:	46ac      	mov	ip, r5
10001f78:	6822      	ldr	r2, [r4, #0]
10001f7a:	7be7      	ldrb	r7, [r4, #15]
10001f7c:	4494      	add	ip, r2
10001f7e:	2f00      	cmp	r7, #0
10001f80:	d004      	beq.n	10001f8c <ph_remove_head+0xc8>
10001f82:	007b      	lsls	r3, r7, #1
10001f84:	19db      	adds	r3, r3, r7
10001f86:	18d3      	adds	r3, r2, r3
10001f88:	3b03      	subs	r3, #3
10001f8a:	705e      	strb	r6, [r3, #1]
10001f8c:	73e6      	strb	r6, [r4, #15]
10001f8e:	e010      	b.n	10001fb2 <ph_remove_head+0xee>
10001f90:	2f00      	cmp	r7, #0
10001f92:	d0c3      	beq.n	10001f1c <ph_remove_head+0x58>
10001f94:	7bc0      	ldrb	r0, [r0, #15]
10001f96:	2800      	cmp	r0, #0
10001f98:	d010      	beq.n	10001fbc <ph_remove_head+0xf8>
10001f9a:	0043      	lsls	r3, r0, #1
10001f9c:	181b      	adds	r3, r3, r0
10001f9e:	18d3      	adds	r3, r2, r3
10001fa0:	3b03      	subs	r3, #3
10001fa2:	705e      	strb	r6, [r3, #1]
10001fa4:	73e6      	strb	r6, [r4, #15]
10001fa6:	e7b9      	b.n	10001f1c <ph_remove_head+0x58>
10001fa8:	73e6      	strb	r6, [r4, #15]
10001faa:	e7b5      	b.n	10001f18 <ph_remove_head+0x54>
10001fac:	46ac      	mov	ip, r5
10001fae:	6822      	ldr	r2, [r4, #0]
10001fb0:	4494      	add	ip, r2
10001fb2:	2800      	cmp	r0, #0
10001fb4:	d0b2      	beq.n	10001f1c <ph_remove_head+0x58>
10001fb6:	0043      	lsls	r3, r0, #1
10001fb8:	4698      	mov	r8, r3
10001fba:	e7a9      	b.n	10001f10 <ph_remove_head+0x4c>
10001fbc:	73e6      	strb	r6, [r4, #15]
10001fbe:	e7ad      	b.n	10001f1c <ph_remove_head+0x58>
10001fc0:	0050      	lsls	r0, r2, #1
10001fc2:	1880      	adds	r0, r0, r2
10001fc4:	3803      	subs	r0, #3
10001fc6:	1809      	adds	r1, r1, r0
10001fc8:	7848      	ldrb	r0, [r1, #1]
10001fca:	4683      	mov	fp, r0
10001fcc:	4648      	mov	r0, r9
10001fce:	7048      	strb	r0, [r1, #1]
10001fd0:	7058      	strb	r0, [r3, #1]
10001fd2:	4641      	mov	r1, r8
10001fd4:	0020      	movs	r0, r4
10001fd6:	f7ff fe4f 	bl	10001c78 <ph_merge_nodes>
10001fda:	4659      	mov	r1, fp
10001fdc:	4680      	mov	r8, r0
10001fde:	0020      	movs	r0, r4
10001fe0:	f7ff fe94 	bl	10001d0c <ph_merge_two_pass>
10001fe4:	4641      	mov	r1, r8
10001fe6:	0002      	movs	r2, r0
10001fe8:	0020      	movs	r0, r4
10001fea:	f7ff fe45 	bl	10001c78 <ph_merge_nodes>
10001fee:	4680      	mov	r8, r0
10001ff0:	e7b9      	b.n	10001f66 <ph_remove_head+0xa2>
10001ff2:	46c0      	nop			; (mov r8, r8)

10001ff4 <ph_remove_and_free_node>:
10001ff4:	b570      	push	{r4, r5, r6, lr}
10001ff6:	0005      	movs	r5, r0
10001ff8:	2900      	cmp	r1, #0
10001ffa:	d02c      	beq.n	10002056 <ph_remove_and_free_node+0x62>
10001ffc:	7b43      	ldrb	r3, [r0, #13]
10001ffe:	428b      	cmp	r3, r1
10002000:	d02e      	beq.n	10002060 <ph_remove_and_free_node+0x6c>
10002002:	004c      	lsls	r4, r1, #1
10002004:	6800      	ldr	r0, [r0, #0]
10002006:	1864      	adds	r4, r4, r1
10002008:	3c03      	subs	r4, #3
1000200a:	1904      	adds	r4, r0, r4
1000200c:	78a2      	ldrb	r2, [r4, #2]
1000200e:	2a00      	cmp	r2, #0
10002010:	d021      	beq.n	10002056 <ph_remove_and_free_node+0x62>
10002012:	0053      	lsls	r3, r2, #1
10002014:	189b      	adds	r3, r3, r2
10002016:	3b03      	subs	r3, #3
10002018:	5cc2      	ldrb	r2, [r0, r3]
1000201a:	18c6      	adds	r6, r0, r3
1000201c:	428a      	cmp	r2, r1
1000201e:	d102      	bne.n	10002026 <ph_remove_and_free_node+0x32>
10002020:	e01b      	b.n	1000205a <ph_remove_and_free_node+0x66>
10002022:	2a00      	cmp	r2, #0
10002024:	d008      	beq.n	10002038 <ph_remove_and_free_node+0x44>
10002026:	0053      	lsls	r3, r2, #1
10002028:	189b      	adds	r3, r3, r2
1000202a:	3b03      	subs	r3, #3
1000202c:	18c3      	adds	r3, r0, r3
1000202e:	785a      	ldrb	r2, [r3, #1]
10002030:	428a      	cmp	r2, r1
10002032:	d1f6      	bne.n	10002022 <ph_remove_and_free_node+0x2e>
10002034:	7862      	ldrb	r2, [r4, #1]
10002036:	705a      	strb	r2, [r3, #1]
10002038:	2300      	movs	r3, #0
1000203a:	2201      	movs	r2, #1
1000203c:	0028      	movs	r0, r5
1000203e:	70a3      	strb	r3, [r4, #2]
10002040:	7063      	strb	r3, [r4, #1]
10002042:	f7ff fea9 	bl	10001d98 <ph_remove_any_head>
10002046:	7b69      	ldrb	r1, [r5, #13]
10002048:	0002      	movs	r2, r0
1000204a:	0028      	movs	r0, r5
1000204c:	f7ff fe14 	bl	10001c78 <ph_merge_nodes>
10002050:	7368      	strb	r0, [r5, #13]
10002052:	2001      	movs	r0, #1
10002054:	e000      	b.n	10002058 <ph_remove_and_free_node+0x64>
10002056:	2000      	movs	r0, #0
10002058:	bd70      	pop	{r4, r5, r6, pc}
1000205a:	7863      	ldrb	r3, [r4, #1]
1000205c:	7033      	strb	r3, [r6, #0]
1000205e:	e7eb      	b.n	10002038 <ph_remove_and_free_node+0x44>
10002060:	2201      	movs	r2, #1
10002062:	0019      	movs	r1, r3
10002064:	f7ff fe98 	bl	10001d98 <ph_remove_any_head>
10002068:	e7f2      	b.n	10002050 <ph_remove_and_free_node+0x5c>
1000206a:	46c0      	nop			; (mov r8, r8)

1000206c <mutex_init>:
1000206c:	b510      	push	{r4, lr}
1000206e:	0004      	movs	r4, r0
10002070:	f7fe fde8 	bl	10000c44 <next_striped_spin_lock_num>
10002074:	0001      	movs	r1, r0
10002076:	0020      	movs	r0, r4
10002078:	f7ff f8be 	bl	100011f8 <lock_init>
1000207c:	23ff      	movs	r3, #255	; 0xff
1000207e:	7123      	strb	r3, [r4, #4]
10002080:	f3bf 8f5f 	dmb	sy
10002084:	bd10      	pop	{r4, pc}
10002086:	46c0      	nop			; (mov r8, r8)

10002088 <recursive_mutex_init>:
10002088:	b510      	push	{r4, lr}
1000208a:	0004      	movs	r4, r0
1000208c:	f7fe fdda 	bl	10000c44 <next_striped_spin_lock_num>
10002090:	0001      	movs	r1, r0
10002092:	0020      	movs	r0, r4
10002094:	f7ff f8b0 	bl	100011f8 <lock_init>
10002098:	23ff      	movs	r3, #255	; 0xff
1000209a:	80a3      	strh	r3, [r4, #4]
1000209c:	f3bf 8f5f 	dmb	sy
100020a0:	bd10      	pop	{r4, pc}
100020a2:	46c0      	nop			; (mov r8, r8)

100020a4 <critical_section_init>:
100020a4:	b510      	push	{r4, lr}
100020a6:	0004      	movs	r4, r0
100020a8:	2001      	movs	r0, #1
100020aa:	f7fe fdd7 	bl	10000c5c <spin_lock_claim_unused>
100020ae:	4b03      	ldr	r3, [pc, #12]	; (100020bc <critical_section_init+0x18>)
100020b0:	18c3      	adds	r3, r0, r3
100020b2:	009b      	lsls	r3, r3, #2
100020b4:	6023      	str	r3, [r4, #0]
100020b6:	f3bf 8f5f 	dmb	sy
100020ba:	bd10      	pop	{r4, pc}
100020bc:	34000040 	.word	0x34000040

100020c0 <runtime_init>:
100020c0:	4b2b      	ldr	r3, [pc, #172]	; (10002170 <runtime_init+0xb0>)
100020c2:	4a2c      	ldr	r2, [pc, #176]	; (10002174 <runtime_init+0xb4>)
100020c4:	b570      	push	{r4, r5, r6, lr}
100020c6:	601a      	str	r2, [r3, #0]
100020c8:	4a2b      	ldr	r2, [pc, #172]	; (10002178 <runtime_init+0xb8>)
100020ca:	4b2c      	ldr	r3, [pc, #176]	; (1000217c <runtime_init+0xbc>)
100020cc:	492c      	ldr	r1, [pc, #176]	; (10002180 <runtime_init+0xc0>)
100020ce:	601a      	str	r2, [r3, #0]
100020d0:	0014      	movs	r4, r2
100020d2:	688b      	ldr	r3, [r1, #8]
100020d4:	439c      	bics	r4, r3
100020d6:	d1fb      	bne.n	100020d0 <runtime_init+0x10>
100020d8:	4d2a      	ldr	r5, [pc, #168]	; (10002184 <runtime_init+0xc4>)
100020da:	4e2b      	ldr	r6, [pc, #172]	; (10002188 <runtime_init+0xc8>)
100020dc:	42b5      	cmp	r5, r6
100020de:	d208      	bcs.n	100020f2 <runtime_init+0x32>
100020e0:	3e01      	subs	r6, #1
100020e2:	1b76      	subs	r6, r6, r5
100020e4:	08b6      	lsrs	r6, r6, #2
100020e6:	cd08      	ldmia	r5!, {r3}
100020e8:	4798      	blx	r3
100020ea:	0023      	movs	r3, r4
100020ec:	3401      	adds	r4, #1
100020ee:	42b3      	cmp	r3, r6
100020f0:	d1f9      	bne.n	100020e6 <runtime_init+0x26>
100020f2:	f000 f939 	bl	10002368 <clocks_init>
100020f6:	4a25      	ldr	r2, [pc, #148]	; (1000218c <runtime_init+0xcc>)
100020f8:	4b20      	ldr	r3, [pc, #128]	; (1000217c <runtime_init+0xbc>)
100020fa:	601a      	str	r2, [r3, #0]
100020fc:	4a20      	ldr	r2, [pc, #128]	; (10002180 <runtime_init+0xc0>)
100020fe:	6893      	ldr	r3, [r2, #8]
10002100:	43db      	mvns	r3, r3
10002102:	01db      	lsls	r3, r3, #7
10002104:	09dd      	lsrs	r5, r3, #7
10002106:	2b00      	cmp	r3, #0
10002108:	d1f9      	bne.n	100020fe <runtime_init+0x3e>
1000210a:	2240      	movs	r2, #64	; 0x40
1000210c:	4b20      	ldr	r3, [pc, #128]	; (10002190 <runtime_init+0xd0>)
1000210e:	4e21      	ldr	r6, [pc, #132]	; (10002194 <runtime_init+0xd4>)
10002110:	4c21      	ldr	r4, [pc, #132]	; (10002198 <runtime_init+0xd8>)
10002112:	679a      	str	r2, [r3, #120]	; 0x78
10002114:	675a      	str	r2, [r3, #116]	; 0x74
10002116:	671a      	str	r2, [r3, #112]	; 0x70
10002118:	66da      	str	r2, [r3, #108]	; 0x6c
1000211a:	42b4      	cmp	r4, r6
1000211c:	d208      	bcs.n	10002130 <runtime_init+0x70>
1000211e:	6823      	ldr	r3, [r4, #0]
10002120:	0020      	movs	r0, r4
10002122:	3408      	adds	r4, #8
10002124:	2b00      	cmp	r3, #0
10002126:	d01f      	beq.n	10002168 <runtime_init+0xa8>
10002128:	f7ff ffae 	bl	10002088 <recursive_mutex_init>
1000212c:	42b4      	cmp	r4, r6
1000212e:	d3f6      	bcc.n	1000211e <runtime_init+0x5e>
10002130:	4c1a      	ldr	r4, [pc, #104]	; (1000219c <runtime_init+0xdc>)
10002132:	4e1b      	ldr	r6, [pc, #108]	; (100021a0 <runtime_init+0xe0>)
10002134:	22c0      	movs	r2, #192	; 0xc0
10002136:	68b1      	ldr	r1, [r6, #8]
10002138:	0020      	movs	r0, r4
1000213a:	f002 fe2f 	bl	10004d9c <__wrap___aeabi_memcpy>
1000213e:	60b4      	str	r4, [r6, #8]
10002140:	f7fe fd72 	bl	10000c28 <spin_locks_reset>
10002144:	f7ff f82e 	bl	100011a4 <irq_init_priorities>
10002148:	f7ff fa78 	bl	1000163c <alarm_pool_init_default>
1000214c:	4c15      	ldr	r4, [pc, #84]	; (100021a4 <runtime_init+0xe4>)
1000214e:	4e16      	ldr	r6, [pc, #88]	; (100021a8 <runtime_init+0xe8>)
10002150:	42b4      	cmp	r4, r6
10002152:	d208      	bcs.n	10002166 <runtime_init+0xa6>
10002154:	3e01      	subs	r6, #1
10002156:	1b36      	subs	r6, r6, r4
10002158:	08b6      	lsrs	r6, r6, #2
1000215a:	cc08      	ldmia	r4!, {r3}
1000215c:	4798      	blx	r3
1000215e:	002b      	movs	r3, r5
10002160:	3501      	adds	r5, #1
10002162:	429e      	cmp	r6, r3
10002164:	d1f9      	bne.n	1000215a <runtime_init+0x9a>
10002166:	bd70      	pop	{r4, r5, r6, pc}
10002168:	f7ff ff80 	bl	1000206c <mutex_init>
1000216c:	e7d5      	b.n	1000211a <runtime_init+0x5a>
1000216e:	46c0      	nop			; (mov r8, r8)
10002170:	4000e000 	.word	0x4000e000
10002174:	fefbcdbf 	.word	0xfefbcdbf
10002178:	003c7ffe 	.word	0x003c7ffe
1000217c:	4000f000 	.word	0x4000f000
10002180:	4000c000 	.word	0x4000c000
10002184:	20000c9c 	.word	0x20000c9c
10002188:	20000cac 	.word	0x20000cac
1000218c:	01ffffff 	.word	0x01ffffff
10002190:	4001f000 	.word	0x4001f000
10002194:	20000c9c 	.word	0x20000c9c
10002198:	20000c94 	.word	0x20000c94
1000219c:	20000000 	.word	0x20000000
100021a0:	e000ed00 	.word	0xe000ed00
100021a4:	20000cac 	.word	0x20000cac
100021a8:	20000cbc 	.word	0x20000cbc

100021ac <_sbrk>:
100021ac:	4a09      	ldr	r2, [pc, #36]	; (100021d4 <_sbrk+0x28>)
100021ae:	0003      	movs	r3, r0
100021b0:	6810      	ldr	r0, [r2, #0]
100021b2:	2800      	cmp	r0, #0
100021b4:	d005      	beq.n	100021c2 <_sbrk+0x16>
100021b6:	4908      	ldr	r1, [pc, #32]	; (100021d8 <_sbrk+0x2c>)
100021b8:	18c3      	adds	r3, r0, r3
100021ba:	428b      	cmp	r3, r1
100021bc:	d807      	bhi.n	100021ce <_sbrk+0x22>
100021be:	6013      	str	r3, [r2, #0]
100021c0:	4770      	bx	lr
100021c2:	4806      	ldr	r0, [pc, #24]	; (100021dc <_sbrk+0x30>)
100021c4:	4904      	ldr	r1, [pc, #16]	; (100021d8 <_sbrk+0x2c>)
100021c6:	18c3      	adds	r3, r0, r3
100021c8:	6010      	str	r0, [r2, #0]
100021ca:	428b      	cmp	r3, r1
100021cc:	d9f7      	bls.n	100021be <_sbrk+0x12>
100021ce:	2001      	movs	r0, #1
100021d0:	4240      	negs	r0, r0
100021d2:	e7f5      	b.n	100021c0 <_sbrk+0x14>
100021d4:	20001624 	.word	0x20001624
100021d8:	20040000 	.word	0x20040000
100021dc:	20001ac0 	.word	0x20001ac0

100021e0 <exit>:
100021e0:	be00      	bkpt	0x0000
100021e2:	e7fd      	b.n	100021e0 <exit>

100021e4 <panic>:
100021e4:	b40f      	push	{r0, r1, r2, r3}
100021e6:	b500      	push	{lr}
100021e8:	4808      	ldr	r0, [pc, #32]	; (1000220c <panic+0x28>)
100021ea:	b083      	sub	sp, #12
100021ec:	f002 feae 	bl	10004f4c <__wrap_puts>
100021f0:	9b04      	ldr	r3, [sp, #16]
100021f2:	2b00      	cmp	r3, #0
100021f4:	d007      	beq.n	10002206 <panic+0x22>
100021f6:	a905      	add	r1, sp, #20
100021f8:	0018      	movs	r0, r3
100021fa:	9101      	str	r1, [sp, #4]
100021fc:	f001 fe60 	bl	10003ec0 <weak_raw_vprintf>
10002200:	4803      	ldr	r0, [pc, #12]	; (10002210 <panic+0x2c>)
10002202:	f002 fea3 	bl	10004f4c <__wrap_puts>
10002206:	be00      	bkpt	0x0000
10002208:	e7fd      	b.n	10002206 <panic+0x22>
1000220a:	46c0      	nop			; (mov r8, r8)
1000220c:	100086e8 	.word	0x100086e8
10002210:	100086f8 	.word	0x100086f8

10002214 <hard_assertion_failure>:
10002214:	b510      	push	{r4, lr}
10002216:	4801      	ldr	r0, [pc, #4]	; (1000221c <hard_assertion_failure+0x8>)
10002218:	f7ff ffe4 	bl	100021e4 <panic>
1000221c:	100086fc 	.word	0x100086fc

10002220 <clock_configure>:
10002220:	b5f0      	push	{r4, r5, r6, r7, lr}
10002222:	4657      	mov	r7, sl
10002224:	464e      	mov	r6, r9
10002226:	4645      	mov	r5, r8
10002228:	46de      	mov	lr, fp
1000222a:	b5e0      	push	{r5, r6, r7, lr}
1000222c:	b083      	sub	sp, #12
1000222e:	0017      	movs	r7, r2
10002230:	9a0c      	ldr	r2, [sp, #48]	; 0x30
10002232:	0005      	movs	r5, r0
10002234:	4689      	mov	r9, r1
10002236:	429a      	cmp	r2, r3
10002238:	d900      	bls.n	1000223c <clock_configure+0x1c>
1000223a:	e071      	b.n	10002320 <clock_configure+0x100>
1000223c:	0e1a      	lsrs	r2, r3, #24
1000223e:	4693      	mov	fp, r2
10002240:	021e      	lsls	r6, r3, #8
10002242:	0030      	movs	r0, r6
10002244:	2300      	movs	r3, #0
10002246:	4659      	mov	r1, fp
10002248:	9a0c      	ldr	r2, [sp, #48]	; 0x30
1000224a:	f001 fef5 	bl	10004038 <__wrap___aeabi_uldivmod>
1000224e:	4b44      	ldr	r3, [pc, #272]	; (10002360 <clock_configure+0x140>)
10002250:	006c      	lsls	r4, r5, #1
10002252:	469c      	mov	ip, r3
10002254:	1964      	adds	r4, r4, r5
10002256:	00a4      	lsls	r4, r4, #2
10002258:	4464      	add	r4, ip
1000225a:	6863      	ldr	r3, [r4, #4]
1000225c:	4680      	mov	r8, r0
1000225e:	4283      	cmp	r3, r0
10002260:	d200      	bcs.n	10002264 <clock_configure+0x44>
10002262:	6060      	str	r0, [r4, #4]
10002264:	1f2b      	subs	r3, r5, #4
10002266:	b2da      	uxtb	r2, r3
10002268:	23c0      	movs	r3, #192	; 0xc0
1000226a:	019b      	lsls	r3, r3, #6
1000226c:	9201      	str	r2, [sp, #4]
1000226e:	4323      	orrs	r3, r4
10002270:	2a01      	cmp	r2, #1
10002272:	d933      	bls.n	100022dc <clock_configure+0xbc>
10002274:	2280      	movs	r2, #128	; 0x80
10002276:	0112      	lsls	r2, r2, #4
10002278:	601a      	str	r2, [r3, #0]
1000227a:	4b3a      	ldr	r3, [pc, #232]	; (10002364 <clock_configure+0x144>)
1000227c:	00ad      	lsls	r5, r5, #2
1000227e:	5959      	ldr	r1, [r3, r5]
10002280:	469a      	mov	sl, r3
10002282:	2900      	cmp	r1, #0
10002284:	d04e      	beq.n	10002324 <clock_configure+0x104>
10002286:	4653      	mov	r3, sl
10002288:	6958      	ldr	r0, [r3, #20]
1000228a:	f001 fe93 	bl	10003fb4 <__wrap___aeabi_uidiv>
1000228e:	3001      	adds	r0, #1
10002290:	3801      	subs	r0, #1
10002292:	d1fd      	bne.n	10002290 <clock_configure+0x70>
10002294:	017b      	lsls	r3, r7, #5
10002296:	27e0      	movs	r7, #224	; 0xe0
10002298:	6822      	ldr	r2, [r4, #0]
1000229a:	4053      	eors	r3, r2
1000229c:	401f      	ands	r7, r3
1000229e:	2380      	movs	r3, #128	; 0x80
100022a0:	9a01      	ldr	r2, [sp, #4]
100022a2:	015b      	lsls	r3, r3, #5
100022a4:	4323      	orrs	r3, r4
100022a6:	601f      	str	r7, [r3, #0]
100022a8:	2a01      	cmp	r2, #1
100022aa:	d92c      	bls.n	10002306 <clock_configure+0xe6>
100022ac:	2380      	movs	r3, #128	; 0x80
100022ae:	2280      	movs	r2, #128	; 0x80
100022b0:	019b      	lsls	r3, r3, #6
100022b2:	4323      	orrs	r3, r4
100022b4:	0112      	lsls	r2, r2, #4
100022b6:	601a      	str	r2, [r3, #0]
100022b8:	4643      	mov	r3, r8
100022ba:	4642      	mov	r2, r8
100022bc:	6063      	str	r3, [r4, #4]
100022be:	0030      	movs	r0, r6
100022c0:	2300      	movs	r3, #0
100022c2:	4659      	mov	r1, fp
100022c4:	f001 feb8 	bl	10004038 <__wrap___aeabi_uldivmod>
100022c8:	4653      	mov	r3, sl
100022ca:	5158      	str	r0, [r3, r5]
100022cc:	2001      	movs	r0, #1
100022ce:	b003      	add	sp, #12
100022d0:	bcf0      	pop	{r4, r5, r6, r7}
100022d2:	46bb      	mov	fp, r7
100022d4:	46b2      	mov	sl, r6
100022d6:	46a9      	mov	r9, r5
100022d8:	46a0      	mov	r8, r4
100022da:	bdf0      	pop	{r4, r5, r6, r7, pc}
100022dc:	464a      	mov	r2, r9
100022de:	2a01      	cmp	r2, #1
100022e0:	d02a      	beq.n	10002338 <clock_configure+0x118>
100022e2:	2280      	movs	r2, #128	; 0x80
100022e4:	0112      	lsls	r2, r2, #4
100022e6:	601a      	str	r2, [r3, #0]
100022e8:	4b1e      	ldr	r3, [pc, #120]	; (10002364 <clock_configure+0x144>)
100022ea:	00ad      	lsls	r5, r5, #2
100022ec:	5959      	ldr	r1, [r3, r5]
100022ee:	469a      	mov	sl, r3
100022f0:	2900      	cmp	r1, #0
100022f2:	d1c8      	bne.n	10002286 <clock_configure+0x66>
100022f4:	017b      	lsls	r3, r7, #5
100022f6:	27e0      	movs	r7, #224	; 0xe0
100022f8:	6822      	ldr	r2, [r4, #0]
100022fa:	4053      	eors	r3, r2
100022fc:	401f      	ands	r7, r3
100022fe:	2380      	movs	r3, #128	; 0x80
10002300:	015b      	lsls	r3, r3, #5
10002302:	4323      	orrs	r3, r4
10002304:	601f      	str	r7, [r3, #0]
10002306:	464a      	mov	r2, r9
10002308:	6821      	ldr	r1, [r4, #0]
1000230a:	4051      	eors	r1, r2
1000230c:	2203      	movs	r2, #3
1000230e:	400a      	ands	r2, r1
10002310:	601a      	str	r2, [r3, #0]
10002312:	2201      	movs	r2, #1
10002314:	464b      	mov	r3, r9
10002316:	409a      	lsls	r2, r3
10002318:	68a3      	ldr	r3, [r4, #8]
1000231a:	421a      	tst	r2, r3
1000231c:	d0fc      	beq.n	10002318 <clock_configure+0xf8>
1000231e:	e7c5      	b.n	100022ac <clock_configure+0x8c>
10002320:	2000      	movs	r0, #0
10002322:	e7d4      	b.n	100022ce <clock_configure+0xae>
10002324:	017b      	lsls	r3, r7, #5
10002326:	27e0      	movs	r7, #224	; 0xe0
10002328:	6822      	ldr	r2, [r4, #0]
1000232a:	4053      	eors	r3, r2
1000232c:	401f      	ands	r7, r3
1000232e:	2380      	movs	r3, #128	; 0x80
10002330:	015b      	lsls	r3, r3, #5
10002332:	4323      	orrs	r3, r4
10002334:	601f      	str	r7, [r3, #0]
10002336:	e7b9      	b.n	100022ac <clock_configure+0x8c>
10002338:	3202      	adds	r2, #2
1000233a:	601a      	str	r2, [r3, #0]
1000233c:	3a02      	subs	r2, #2
1000233e:	68a3      	ldr	r3, [r4, #8]
10002340:	421a      	tst	r2, r3
10002342:	d0fc      	beq.n	1000233e <clock_configure+0x11e>
10002344:	017b      	lsls	r3, r7, #5
10002346:	27e0      	movs	r7, #224	; 0xe0
10002348:	6822      	ldr	r2, [r4, #0]
1000234a:	00ad      	lsls	r5, r5, #2
1000234c:	4053      	eors	r3, r2
1000234e:	401f      	ands	r7, r3
10002350:	2380      	movs	r3, #128	; 0x80
10002352:	4a04      	ldr	r2, [pc, #16]	; (10002364 <clock_configure+0x144>)
10002354:	015b      	lsls	r3, r3, #5
10002356:	4323      	orrs	r3, r4
10002358:	4692      	mov	sl, r2
1000235a:	601f      	str	r7, [r3, #0]
1000235c:	e7d3      	b.n	10002306 <clock_configure+0xe6>
1000235e:	46c0      	nop			; (mov r8, r8)
10002360:	40008000 	.word	0x40008000
10002364:	20000cc0 	.word	0x20000cc0

10002368 <clocks_init>:
10002368:	b510      	push	{r4, lr}
1000236a:	200c      	movs	r0, #12
1000236c:	b082      	sub	sp, #8
1000236e:	f000 f9af 	bl	100026d0 <watchdog_start_tick>
10002372:	f7fe fc51 	bl	10000c18 <running_on_fpga>
10002376:	2800      	cmp	r0, #0
10002378:	d010      	beq.n	1000239c <clocks_init+0x34>
1000237a:	4b86      	ldr	r3, [pc, #536]	; (10002594 <clocks_init+0x22c>)
1000237c:	4886      	ldr	r0, [pc, #536]	; (10002598 <clocks_init+0x230>)
1000237e:	4986      	ldr	r1, [pc, #536]	; (10002598 <clocks_init+0x230>)
10002380:	4a86      	ldr	r2, [pc, #536]	; (1000259c <clocks_init+0x234>)
10002382:	6018      	str	r0, [r3, #0]
10002384:	6059      	str	r1, [r3, #4]
10002386:	6098      	str	r0, [r3, #8]
10002388:	60d9      	str	r1, [r3, #12]
1000238a:	6118      	str	r0, [r3, #16]
1000238c:	6159      	str	r1, [r3, #20]
1000238e:	6198      	str	r0, [r3, #24]
10002390:	61d9      	str	r1, [r3, #28]
10002392:	6218      	str	r0, [r3, #32]
10002394:	6259      	str	r1, [r3, #36]	; 0x24
10002396:	625a      	str	r2, [r3, #36]	; 0x24
10002398:	b002      	add	sp, #8
1000239a:	bd10      	pop	{r4, pc}
1000239c:	4c80      	ldr	r4, [pc, #512]	; (100025a0 <clocks_init+0x238>)
1000239e:	67a0      	str	r0, [r4, #120]	; 0x78
100023a0:	f000 f9ec 	bl	1000277c <xosc_init>
100023a4:	2201      	movs	r2, #1
100023a6:	4b7f      	ldr	r3, [pc, #508]	; (100025a4 <clocks_init+0x23c>)
100023a8:	601a      	str	r2, [r3, #0]
100023aa:	6c63      	ldr	r3, [r4, #68]	; 0x44
100023ac:	2b01      	cmp	r3, #1
100023ae:	d1fc      	bne.n	100023aa <clocks_init+0x42>
100023b0:	2203      	movs	r2, #3
100023b2:	4b7d      	ldr	r3, [pc, #500]	; (100025a8 <clocks_init+0x240>)
100023b4:	601a      	str	r2, [r3, #0]
100023b6:	4a7a      	ldr	r2, [pc, #488]	; (100025a0 <clocks_init+0x238>)
100023b8:	6b93      	ldr	r3, [r2, #56]	; 0x38
100023ba:	2b01      	cmp	r3, #1
100023bc:	d1fc      	bne.n	100023b8 <clocks_init+0x50>
100023be:	3301      	adds	r3, #1
100023c0:	2101      	movs	r1, #1
100023c2:	4a7a      	ldr	r2, [pc, #488]	; (100025ac <clocks_init+0x244>)
100023c4:	487a      	ldr	r0, [pc, #488]	; (100025b0 <clocks_init+0x248>)
100023c6:	9300      	str	r3, [sp, #0]
100023c8:	3304      	adds	r3, #4
100023ca:	f000 f92d 	bl	10002628 <pll_init>
100023ce:	2305      	movs	r3, #5
100023d0:	4a78      	ldr	r2, [pc, #480]	; (100025b4 <clocks_init+0x24c>)
100023d2:	9300      	str	r3, [sp, #0]
100023d4:	2101      	movs	r1, #1
100023d6:	4878      	ldr	r0, [pc, #480]	; (100025b8 <clocks_init+0x250>)
100023d8:	f000 f926 	bl	10002628 <pll_init>
100023dc:	4b77      	ldr	r3, [pc, #476]	; (100025bc <clocks_init+0x254>)
100023de:	685a      	ldr	r2, [r3, #4]
100023e0:	2aff      	cmp	r2, #255	; 0xff
100023e2:	d802      	bhi.n	100023ea <clocks_init+0x82>
100023e4:	2280      	movs	r2, #128	; 0x80
100023e6:	0052      	lsls	r2, r2, #1
100023e8:	605a      	str	r2, [r3, #4]
100023ea:	2280      	movs	r2, #128	; 0x80
100023ec:	4b6e      	ldr	r3, [pc, #440]	; (100025a8 <clocks_init+0x240>)
100023ee:	4c69      	ldr	r4, [pc, #420]	; (10002594 <clocks_init+0x22c>)
100023f0:	0112      	lsls	r2, r2, #4
100023f2:	601a      	str	r2, [r3, #0]
100023f4:	6921      	ldr	r1, [r4, #16]
100023f6:	2900      	cmp	r1, #0
100023f8:	d005      	beq.n	10002406 <clocks_init+0x9e>
100023fa:	6960      	ldr	r0, [r4, #20]
100023fc:	f001 fdda 	bl	10003fb4 <__wrap___aeabi_uidiv>
10002400:	3001      	adds	r0, #1
10002402:	3801      	subs	r0, #1
10002404:	d1fd      	bne.n	10002402 <clocks_init+0x9a>
10002406:	22e0      	movs	r2, #224	; 0xe0
10002408:	4b6c      	ldr	r3, [pc, #432]	; (100025bc <clocks_init+0x254>)
1000240a:	486d      	ldr	r0, [pc, #436]	; (100025c0 <clocks_init+0x258>)
1000240c:	6819      	ldr	r1, [r3, #0]
1000240e:	400a      	ands	r2, r1
10002410:	6002      	str	r2, [r0, #0]
10002412:	2202      	movs	r2, #2
10002414:	6819      	ldr	r1, [r3, #0]
10002416:	4051      	eors	r1, r2
10002418:	3201      	adds	r2, #1
1000241a:	400a      	ands	r2, r1
1000241c:	2104      	movs	r1, #4
1000241e:	6002      	str	r2, [r0, #0]
10002420:	689a      	ldr	r2, [r3, #8]
10002422:	4211      	tst	r1, r2
10002424:	d0fc      	beq.n	10002420 <clocks_init+0xb8>
10002426:	2180      	movs	r1, #128	; 0x80
10002428:	4a66      	ldr	r2, [pc, #408]	; (100025c4 <clocks_init+0x25c>)
1000242a:	0109      	lsls	r1, r1, #4
1000242c:	6011      	str	r1, [r2, #0]
1000242e:	2280      	movs	r2, #128	; 0x80
10002430:	0052      	lsls	r2, r2, #1
10002432:	605a      	str	r2, [r3, #4]
10002434:	4b64      	ldr	r3, [pc, #400]	; (100025c8 <clocks_init+0x260>)
10002436:	6123      	str	r3, [r4, #16]
10002438:	4b64      	ldr	r3, [pc, #400]	; (100025cc <clocks_init+0x264>)
1000243a:	6859      	ldr	r1, [r3, #4]
1000243c:	29ff      	cmp	r1, #255	; 0xff
1000243e:	d800      	bhi.n	10002442 <clocks_init+0xda>
10002440:	605a      	str	r2, [r3, #4]
10002442:	2203      	movs	r2, #3
10002444:	2101      	movs	r1, #1
10002446:	4b57      	ldr	r3, [pc, #348]	; (100025a4 <clocks_init+0x23c>)
10002448:	601a      	str	r2, [r3, #0]
1000244a:	4a60      	ldr	r2, [pc, #384]	; (100025cc <clocks_init+0x264>)
1000244c:	6893      	ldr	r3, [r2, #8]
1000244e:	4219      	tst	r1, r3
10002450:	d0fc      	beq.n	1000244c <clocks_init+0xe4>
10002452:	23e0      	movs	r3, #224	; 0xe0
10002454:	6810      	ldr	r0, [r2, #0]
10002456:	4003      	ands	r3, r0
10002458:	485d      	ldr	r0, [pc, #372]	; (100025d0 <clocks_init+0x268>)
1000245a:	6003      	str	r3, [r0, #0]
1000245c:	6812      	ldr	r2, [r2, #0]
1000245e:	2303      	movs	r3, #3
10002460:	404a      	eors	r2, r1
10002462:	2102      	movs	r1, #2
10002464:	4013      	ands	r3, r2
10002466:	4a59      	ldr	r2, [pc, #356]	; (100025cc <clocks_init+0x264>)
10002468:	6003      	str	r3, [r0, #0]
1000246a:	6893      	ldr	r3, [r2, #8]
1000246c:	4219      	tst	r1, r3
1000246e:	d0fc      	beq.n	1000246a <clocks_init+0x102>
10002470:	2180      	movs	r1, #128	; 0x80
10002472:	4b58      	ldr	r3, [pc, #352]	; (100025d4 <clocks_init+0x26c>)
10002474:	0109      	lsls	r1, r1, #4
10002476:	6019      	str	r1, [r3, #0]
10002478:	2180      	movs	r1, #128	; 0x80
1000247a:	4b57      	ldr	r3, [pc, #348]	; (100025d8 <clocks_init+0x270>)
1000247c:	0049      	lsls	r1, r1, #1
1000247e:	6051      	str	r1, [r2, #4]
10002480:	6163      	str	r3, [r4, #20]
10002482:	4b56      	ldr	r3, [pc, #344]	; (100025dc <clocks_init+0x274>)
10002484:	685a      	ldr	r2, [r3, #4]
10002486:	2aff      	cmp	r2, #255	; 0xff
10002488:	d800      	bhi.n	1000248c <clocks_init+0x124>
1000248a:	6059      	str	r1, [r3, #4]
1000248c:	2280      	movs	r2, #128	; 0x80
1000248e:	4b54      	ldr	r3, [pc, #336]	; (100025e0 <clocks_init+0x278>)
10002490:	0112      	lsls	r2, r2, #4
10002492:	601a      	str	r2, [r3, #0]
10002494:	69e1      	ldr	r1, [r4, #28]
10002496:	2900      	cmp	r1, #0
10002498:	d005      	beq.n	100024a6 <clocks_init+0x13e>
1000249a:	6960      	ldr	r0, [r4, #20]
1000249c:	f001 fd8a 	bl	10003fb4 <__wrap___aeabi_uidiv>
100024a0:	3001      	adds	r0, #1
100024a2:	3801      	subs	r0, #1
100024a4:	d1fd      	bne.n	100024a2 <clocks_init+0x13a>
100024a6:	23e0      	movs	r3, #224	; 0xe0
100024a8:	4a4c      	ldr	r2, [pc, #304]	; (100025dc <clocks_init+0x274>)
100024aa:	6811      	ldr	r1, [r2, #0]
100024ac:	400b      	ands	r3, r1
100024ae:	494d      	ldr	r1, [pc, #308]	; (100025e4 <clocks_init+0x27c>)
100024b0:	600b      	str	r3, [r1, #0]
100024b2:	2180      	movs	r1, #128	; 0x80
100024b4:	4b4c      	ldr	r3, [pc, #304]	; (100025e8 <clocks_init+0x280>)
100024b6:	0109      	lsls	r1, r1, #4
100024b8:	6019      	str	r1, [r3, #0]
100024ba:	2180      	movs	r1, #128	; 0x80
100024bc:	4b36      	ldr	r3, [pc, #216]	; (10002598 <clocks_init+0x230>)
100024be:	0049      	lsls	r1, r1, #1
100024c0:	6051      	str	r1, [r2, #4]
100024c2:	61e3      	str	r3, [r4, #28]
100024c4:	4b49      	ldr	r3, [pc, #292]	; (100025ec <clocks_init+0x284>)
100024c6:	685a      	ldr	r2, [r3, #4]
100024c8:	2aff      	cmp	r2, #255	; 0xff
100024ca:	d800      	bhi.n	100024ce <clocks_init+0x166>
100024cc:	6059      	str	r1, [r3, #4]
100024ce:	2280      	movs	r2, #128	; 0x80
100024d0:	4b47      	ldr	r3, [pc, #284]	; (100025f0 <clocks_init+0x288>)
100024d2:	0112      	lsls	r2, r2, #4
100024d4:	601a      	str	r2, [r3, #0]
100024d6:	6a21      	ldr	r1, [r4, #32]
100024d8:	2900      	cmp	r1, #0
100024da:	d005      	beq.n	100024e8 <clocks_init+0x180>
100024dc:	6960      	ldr	r0, [r4, #20]
100024de:	f001 fd69 	bl	10003fb4 <__wrap___aeabi_uidiv>
100024e2:	3001      	adds	r0, #1
100024e4:	3801      	subs	r0, #1
100024e6:	d1fd      	bne.n	100024e4 <clocks_init+0x17c>
100024e8:	23e0      	movs	r3, #224	; 0xe0
100024ea:	4a40      	ldr	r2, [pc, #256]	; (100025ec <clocks_init+0x284>)
100024ec:	6811      	ldr	r1, [r2, #0]
100024ee:	400b      	ands	r3, r1
100024f0:	4940      	ldr	r1, [pc, #256]	; (100025f4 <clocks_init+0x28c>)
100024f2:	600b      	str	r3, [r1, #0]
100024f4:	2180      	movs	r1, #128	; 0x80
100024f6:	4b40      	ldr	r3, [pc, #256]	; (100025f8 <clocks_init+0x290>)
100024f8:	0109      	lsls	r1, r1, #4
100024fa:	6019      	str	r1, [r3, #0]
100024fc:	2380      	movs	r3, #128	; 0x80
100024fe:	005b      	lsls	r3, r3, #1
10002500:	6053      	str	r3, [r2, #4]
10002502:	2280      	movs	r2, #128	; 0x80
10002504:	4b24      	ldr	r3, [pc, #144]	; (10002598 <clocks_init+0x230>)
10002506:	02d2      	lsls	r2, r2, #11
10002508:	6223      	str	r3, [r4, #32]
1000250a:	4b3c      	ldr	r3, [pc, #240]	; (100025fc <clocks_init+0x294>)
1000250c:	6859      	ldr	r1, [r3, #4]
1000250e:	4291      	cmp	r1, r2
10002510:	d200      	bcs.n	10002514 <clocks_init+0x1ac>
10002512:	605a      	str	r2, [r3, #4]
10002514:	2280      	movs	r2, #128	; 0x80
10002516:	4b3a      	ldr	r3, [pc, #232]	; (10002600 <clocks_init+0x298>)
10002518:	0112      	lsls	r2, r2, #4
1000251a:	601a      	str	r2, [r3, #0]
1000251c:	6a61      	ldr	r1, [r4, #36]	; 0x24
1000251e:	2900      	cmp	r1, #0
10002520:	d005      	beq.n	1000252e <clocks_init+0x1c6>
10002522:	6960      	ldr	r0, [r4, #20]
10002524:	f001 fd46 	bl	10003fb4 <__wrap___aeabi_uidiv>
10002528:	3001      	adds	r0, #1
1000252a:	3801      	subs	r0, #1
1000252c:	d1fd      	bne.n	1000252a <clocks_init+0x1c2>
1000252e:	23e0      	movs	r3, #224	; 0xe0
10002530:	4a32      	ldr	r2, [pc, #200]	; (100025fc <clocks_init+0x294>)
10002532:	6811      	ldr	r1, [r2, #0]
10002534:	400b      	ands	r3, r1
10002536:	4933      	ldr	r1, [pc, #204]	; (10002604 <clocks_init+0x29c>)
10002538:	600b      	str	r3, [r1, #0]
1000253a:	2180      	movs	r1, #128	; 0x80
1000253c:	4b32      	ldr	r3, [pc, #200]	; (10002608 <clocks_init+0x2a0>)
1000253e:	0109      	lsls	r1, r1, #4
10002540:	6019      	str	r1, [r3, #0]
10002542:	2380      	movs	r3, #128	; 0x80
10002544:	02db      	lsls	r3, r3, #11
10002546:	6053      	str	r3, [r2, #4]
10002548:	4b14      	ldr	r3, [pc, #80]	; (1000259c <clocks_init+0x234>)
1000254a:	6263      	str	r3, [r4, #36]	; 0x24
1000254c:	4b2f      	ldr	r3, [pc, #188]	; (1000260c <clocks_init+0x2a4>)
1000254e:	685a      	ldr	r2, [r3, #4]
10002550:	2aff      	cmp	r2, #255	; 0xff
10002552:	d802      	bhi.n	1000255a <clocks_init+0x1f2>
10002554:	2280      	movs	r2, #128	; 0x80
10002556:	0052      	lsls	r2, r2, #1
10002558:	605a      	str	r2, [r3, #4]
1000255a:	2280      	movs	r2, #128	; 0x80
1000255c:	4b2c      	ldr	r3, [pc, #176]	; (10002610 <clocks_init+0x2a8>)
1000255e:	0112      	lsls	r2, r2, #4
10002560:	601a      	str	r2, [r3, #0]
10002562:	69a1      	ldr	r1, [r4, #24]
10002564:	2900      	cmp	r1, #0
10002566:	d005      	beq.n	10002574 <clocks_init+0x20c>
10002568:	6960      	ldr	r0, [r4, #20]
1000256a:	f001 fd23 	bl	10003fb4 <__wrap___aeabi_uidiv>
1000256e:	3001      	adds	r0, #1
10002570:	3801      	subs	r0, #1
10002572:	d1fd      	bne.n	10002570 <clocks_init+0x208>
10002574:	23e0      	movs	r3, #224	; 0xe0
10002576:	4a25      	ldr	r2, [pc, #148]	; (1000260c <clocks_init+0x2a4>)
10002578:	6811      	ldr	r1, [r2, #0]
1000257a:	400b      	ands	r3, r1
1000257c:	4925      	ldr	r1, [pc, #148]	; (10002614 <clocks_init+0x2ac>)
1000257e:	600b      	str	r3, [r1, #0]
10002580:	2180      	movs	r1, #128	; 0x80
10002582:	4b25      	ldr	r3, [pc, #148]	; (10002618 <clocks_init+0x2b0>)
10002584:	0109      	lsls	r1, r1, #4
10002586:	6019      	str	r1, [r3, #0]
10002588:	2380      	movs	r3, #128	; 0x80
1000258a:	005b      	lsls	r3, r3, #1
1000258c:	6053      	str	r3, [r2, #4]
1000258e:	4b12      	ldr	r3, [pc, #72]	; (100025d8 <clocks_init+0x270>)
10002590:	61a3      	str	r3, [r4, #24]
10002592:	e701      	b.n	10002398 <clocks_init+0x30>
10002594:	20000cc0 	.word	0x20000cc0
10002598:	02dc6c00 	.word	0x02dc6c00
1000259c:	0000b71b 	.word	0x0000b71b
100025a0:	40008000 	.word	0x40008000
100025a4:	4000b03c 	.word	0x4000b03c
100025a8:	4000b030 	.word	0x4000b030
100025ac:	59682f00 	.word	0x59682f00
100025b0:	40028000 	.word	0x40028000
100025b4:	47868c00 	.word	0x47868c00
100025b8:	4002c000 	.word	0x4002c000
100025bc:	40008030 	.word	0x40008030
100025c0:	40009030 	.word	0x40009030
100025c4:	4000a030 	.word	0x4000a030
100025c8:	00b71b00 	.word	0x00b71b00
100025cc:	4000803c 	.word	0x4000803c
100025d0:	4000903c 	.word	0x4000903c
100025d4:	4000a03c 	.word	0x4000a03c
100025d8:	07735940 	.word	0x07735940
100025dc:	40008054 	.word	0x40008054
100025e0:	4000b054 	.word	0x4000b054
100025e4:	40009054 	.word	0x40009054
100025e8:	4000a054 	.word	0x4000a054
100025ec:	40008060 	.word	0x40008060
100025f0:	4000b060 	.word	0x4000b060
100025f4:	40009060 	.word	0x40009060
100025f8:	4000a060 	.word	0x4000a060
100025fc:	4000806c 	.word	0x4000806c
10002600:	4000b06c 	.word	0x4000b06c
10002604:	4000906c 	.word	0x4000906c
10002608:	4000a06c 	.word	0x4000a06c
1000260c:	40008048 	.word	0x40008048
10002610:	4000b048 	.word	0x4000b048
10002614:	40009048 	.word	0x40009048
10002618:	4000a048 	.word	0x4000a048

1000261c <clock_get_hz>:
1000261c:	4b01      	ldr	r3, [pc, #4]	; (10002624 <clock_get_hz+0x8>)
1000261e:	0080      	lsls	r0, r0, #2
10002620:	58c0      	ldr	r0, [r0, r3]
10002622:	4770      	bx	lr
10002624:	20000cc0 	.word	0x20000cc0

10002628 <pll_init>:
10002628:	b5f8      	push	{r3, r4, r5, r6, r7, lr}
1000262a:	0004      	movs	r4, r0
1000262c:	200c      	movs	r0, #12
1000262e:	0017      	movs	r7, r2
10002630:	001d      	movs	r5, r3
10002632:	000e      	movs	r6, r1
10002634:	f001 fcbe 	bl	10003fb4 <__wrap___aeabi_uidiv>
10002638:	0143      	lsls	r3, r0, #5
1000263a:	1a1b      	subs	r3, r3, r0
1000263c:	0199      	lsls	r1, r3, #6
1000263e:	1ac9      	subs	r1, r1, r3
10002640:	00c9      	lsls	r1, r1, #3
10002642:	1809      	adds	r1, r1, r0
10002644:	0189      	lsls	r1, r1, #6
10002646:	0038      	movs	r0, r7
10002648:	f001 fcb4 	bl	10003fb4 <__wrap___aeabi_uidiv>
1000264c:	9b06      	ldr	r3, [sp, #24]
1000264e:	0429      	lsls	r1, r5, #16
10002650:	031b      	lsls	r3, r3, #12
10002652:	4319      	orrs	r1, r3
10002654:	6823      	ldr	r3, [r4, #0]
10002656:	2b00      	cmp	r3, #0
10002658:	db20      	blt.n	1000269c <pll_init+0x74>
1000265a:	4b19      	ldr	r3, [pc, #100]	; (100026c0 <pll_init+0x98>)
1000265c:	4d19      	ldr	r5, [pc, #100]	; (100026c4 <pll_init+0x9c>)
1000265e:	18e3      	adds	r3, r4, r3
10002660:	425a      	negs	r2, r3
10002662:	4153      	adcs	r3, r2
10002664:	2280      	movs	r2, #128	; 0x80
10002666:	0152      	lsls	r2, r2, #5
10002668:	4694      	mov	ip, r2
1000266a:	031b      	lsls	r3, r3, #12
1000266c:	4a16      	ldr	r2, [pc, #88]	; (100026c8 <pll_init+0xa0>)
1000266e:	4463      	add	r3, ip
10002670:	6013      	str	r3, [r2, #0]
10002672:	4a16      	ldr	r2, [pc, #88]	; (100026cc <pll_init+0xa4>)
10002674:	6013      	str	r3, [r2, #0]
10002676:	001f      	movs	r7, r3
10002678:	68aa      	ldr	r2, [r5, #8]
1000267a:	4397      	bics	r7, r2
1000267c:	d1fb      	bne.n	10002676 <pll_init+0x4e>
1000267e:	23c0      	movs	r3, #192	; 0xc0
10002680:	1d22      	adds	r2, r4, #4
10002682:	019b      	lsls	r3, r3, #6
10002684:	4313      	orrs	r3, r2
10002686:	2221      	movs	r2, #33	; 0x21
10002688:	6026      	str	r6, [r4, #0]
1000268a:	60a0      	str	r0, [r4, #8]
1000268c:	601a      	str	r2, [r3, #0]
1000268e:	6822      	ldr	r2, [r4, #0]
10002690:	2a00      	cmp	r2, #0
10002692:	dafc      	bge.n	1000268e <pll_init+0x66>
10002694:	2208      	movs	r2, #8
10002696:	60e1      	str	r1, [r4, #12]
10002698:	601a      	str	r2, [r3, #0]
1000269a:	bdf8      	pop	{r3, r4, r5, r6, r7, pc}
1000269c:	233f      	movs	r3, #63	; 0x3f
1000269e:	6822      	ldr	r2, [r4, #0]
100026a0:	4013      	ands	r3, r2
100026a2:	42b3      	cmp	r3, r6
100026a4:	d1d9      	bne.n	1000265a <pll_init+0x32>
100026a6:	68a3      	ldr	r3, [r4, #8]
100026a8:	051b      	lsls	r3, r3, #20
100026aa:	0d1b      	lsrs	r3, r3, #20
100026ac:	4283      	cmp	r3, r0
100026ae:	d1d4      	bne.n	1000265a <pll_init+0x32>
100026b0:	22ee      	movs	r2, #238	; 0xee
100026b2:	68e3      	ldr	r3, [r4, #12]
100026b4:	02d2      	lsls	r2, r2, #11
100026b6:	4013      	ands	r3, r2
100026b8:	428b      	cmp	r3, r1
100026ba:	d1ce      	bne.n	1000265a <pll_init+0x32>
100026bc:	e7ed      	b.n	1000269a <pll_init+0x72>
100026be:	46c0      	nop			; (mov r8, r8)
100026c0:	bffd4000 	.word	0xbffd4000
100026c4:	4000c000 	.word	0x4000c000
100026c8:	4000e000 	.word	0x4000e000
100026cc:	4000f000 	.word	0x4000f000

100026d0 <watchdog_start_tick>:
100026d0:	2380      	movs	r3, #128	; 0x80
100026d2:	4a02      	ldr	r2, [pc, #8]	; (100026dc <watchdog_start_tick+0xc>)
100026d4:	009b      	lsls	r3, r3, #2
100026d6:	4303      	orrs	r3, r0
100026d8:	62d3      	str	r3, [r2, #44]	; 0x2c
100026da:	4770      	bx	lr
100026dc:	40058000 	.word	0x40058000

100026e0 <watchdog_reboot>:
100026e0:	b510      	push	{r4, lr}
100026e2:	2480      	movs	r4, #128	; 0x80
100026e4:	4b1c      	ldr	r3, [pc, #112]	; (10002758 <watchdog_reboot+0x78>)
100026e6:	05e4      	lsls	r4, r4, #23
100026e8:	601c      	str	r4, [r3, #0]
100026ea:	2800      	cmp	r0, #0
100026ec:	d01a      	beq.n	10002724 <watchdog_reboot+0x44>
100026ee:	2301      	movs	r3, #1
100026f0:	4c1a      	ldr	r4, [pc, #104]	; (1000275c <watchdog_reboot+0x7c>)
100026f2:	4318      	orrs	r0, r3
100026f4:	4b1a      	ldr	r3, [pc, #104]	; (10002760 <watchdog_reboot+0x80>)
100026f6:	61dc      	str	r4, [r3, #28]
100026f8:	4c1a      	ldr	r4, [pc, #104]	; (10002764 <watchdog_reboot+0x84>)
100026fa:	4044      	eors	r4, r0
100026fc:	621c      	str	r4, [r3, #32]
100026fe:	6259      	str	r1, [r3, #36]	; 0x24
10002700:	6298      	str	r0, [r3, #40]	; 0x28
10002702:	2180      	movs	r1, #128	; 0x80
10002704:	4b14      	ldr	r3, [pc, #80]	; (10002758 <watchdog_reboot+0x78>)
10002706:	05c9      	lsls	r1, r1, #23
10002708:	6019      	str	r1, [r3, #0]
1000270a:	4817      	ldr	r0, [pc, #92]	; (10002768 <watchdog_reboot+0x88>)
1000270c:	4917      	ldr	r1, [pc, #92]	; (1000276c <watchdog_reboot+0x8c>)
1000270e:	6008      	str	r0, [r1, #0]
10002710:	21e0      	movs	r1, #224	; 0xe0
10002712:	04c9      	lsls	r1, r1, #19
10002714:	6019      	str	r1, [r3, #0]
10002716:	2a00      	cmp	r2, #0
10002718:	d107      	bne.n	1000272a <watchdog_reboot+0x4a>
1000271a:	2280      	movs	r2, #128	; 0x80
1000271c:	4b14      	ldr	r3, [pc, #80]	; (10002770 <watchdog_reboot+0x90>)
1000271e:	0612      	lsls	r2, r2, #24
10002720:	601a      	str	r2, [r3, #0]
10002722:	bd10      	pop	{r4, pc}
10002724:	4b0e      	ldr	r3, [pc, #56]	; (10002760 <watchdog_reboot+0x80>)
10002726:	61d8      	str	r0, [r3, #28]
10002728:	e7eb      	b.n	10002702 <watchdog_reboot+0x22>
1000272a:	0153      	lsls	r3, r2, #5
1000272c:	1a9b      	subs	r3, r3, r2
1000272e:	009b      	lsls	r3, r3, #2
10002730:	189a      	adds	r2, r3, r2
10002732:	2380      	movs	r3, #128	; 0x80
10002734:	0112      	lsls	r2, r2, #4
10002736:	045b      	lsls	r3, r3, #17
10002738:	429a      	cmp	r2, r3
1000273a:	d209      	bcs.n	10002750 <watchdog_reboot+0x70>
1000273c:	0013      	movs	r3, r2
1000273e:	490d      	ldr	r1, [pc, #52]	; (10002774 <watchdog_reboot+0x94>)
10002740:	600b      	str	r3, [r1, #0]
10002742:	4b07      	ldr	r3, [pc, #28]	; (10002760 <watchdog_reboot+0x80>)
10002744:	605a      	str	r2, [r3, #4]
10002746:	2280      	movs	r2, #128	; 0x80
10002748:	4b09      	ldr	r3, [pc, #36]	; (10002770 <watchdog_reboot+0x90>)
1000274a:	05d2      	lsls	r2, r2, #23
1000274c:	601a      	str	r2, [r3, #0]
1000274e:	e7e8      	b.n	10002722 <watchdog_reboot+0x42>
10002750:	4b09      	ldr	r3, [pc, #36]	; (10002778 <watchdog_reboot+0x98>)
10002752:	001a      	movs	r2, r3
10002754:	e7f3      	b.n	1000273e <watchdog_reboot+0x5e>
10002756:	46c0      	nop			; (mov r8, r8)
10002758:	4005b000 	.word	0x4005b000
1000275c:	b007c0d3 	.word	0xb007c0d3
10002760:	40058000 	.word	0x40058000
10002764:	4ff83f2d 	.word	0x4ff83f2d
10002768:	0001fffc 	.word	0x0001fffc
1000276c:	40012008 	.word	0x40012008
10002770:	4005a000 	.word	0x4005a000
10002774:	20001a2c 	.word	0x20001a2c
10002778:	00ffffff 	.word	0x00ffffff

1000277c <xosc_init>:
1000277c:	23aa      	movs	r3, #170	; 0xaa
1000277e:	4a06      	ldr	r2, [pc, #24]	; (10002798 <xosc_init+0x1c>)
10002780:	011b      	lsls	r3, r3, #4
10002782:	6013      	str	r3, [r2, #0]
10002784:	232f      	movs	r3, #47	; 0x2f
10002786:	4905      	ldr	r1, [pc, #20]	; (1000279c <xosc_init+0x20>)
10002788:	60d3      	str	r3, [r2, #12]
1000278a:	4b05      	ldr	r3, [pc, #20]	; (100027a0 <xosc_init+0x24>)
1000278c:	6019      	str	r1, [r3, #0]
1000278e:	6853      	ldr	r3, [r2, #4]
10002790:	2b00      	cmp	r3, #0
10002792:	dafc      	bge.n	1000278e <xosc_init+0x12>
10002794:	4770      	bx	lr
10002796:	46c0      	nop			; (mov r8, r8)
10002798:	40024000 	.word	0x40024000
1000279c:	00fab000 	.word	0x00fab000
100027a0:	40026000 	.word	0x40026000

100027a4 <_out_null>:
100027a4:	4770      	bx	lr
100027a6:	46c0      	nop			; (mov r8, r8)

100027a8 <_out_rev>:
100027a8:	b5f8      	push	{r3, r4, r5, r6, r7, lr}
100027aa:	4657      	mov	r7, sl
100027ac:	4645      	mov	r5, r8
100027ae:	46de      	mov	lr, fp
100027b0:	464e      	mov	r6, r9
100027b2:	b5e0      	push	{r5, r6, r7, lr}
100027b4:	4698      	mov	r8, r3
100027b6:	9b0a      	ldr	r3, [sp, #40]	; 0x28
100027b8:	0006      	movs	r6, r0
100027ba:	469a      	mov	sl, r3
100027bc:	9b0d      	ldr	r3, [sp, #52]	; 0x34
100027be:	000f      	movs	r7, r1
100027c0:	4693      	mov	fp, r2
100027c2:	0015      	movs	r5, r2
100027c4:	079b      	lsls	r3, r3, #30
100027c6:	d110      	bne.n	100027ea <_out_rev+0x42>
100027c8:	9b0b      	ldr	r3, [sp, #44]	; 0x2c
100027ca:	9a0c      	ldr	r2, [sp, #48]	; 0x30
100027cc:	4293      	cmp	r3, r2
100027ce:	d20c      	bcs.n	100027ea <_out_rev+0x42>
100027d0:	0013      	movs	r3, r2
100027d2:	465c      	mov	r4, fp
100027d4:	9a0b      	ldr	r2, [sp, #44]	; 0x2c
100027d6:	1a9d      	subs	r5, r3, r2
100027d8:	445d      	add	r5, fp
100027da:	0022      	movs	r2, r4
100027dc:	4643      	mov	r3, r8
100027de:	3401      	adds	r4, #1
100027e0:	0039      	movs	r1, r7
100027e2:	2020      	movs	r0, #32
100027e4:	47b0      	blx	r6
100027e6:	42a5      	cmp	r5, r4
100027e8:	d1f7      	bne.n	100027da <_out_rev+0x32>
100027ea:	9c0b      	ldr	r4, [sp, #44]	; 0x2c
100027ec:	1963      	adds	r3, r4, r5
100027ee:	2c00      	cmp	r4, #0
100027f0:	d009      	beq.n	10002806 <_out_rev+0x5e>
100027f2:	001d      	movs	r5, r3
100027f4:	4653      	mov	r3, sl
100027f6:	1b2a      	subs	r2, r5, r4
100027f8:	3c01      	subs	r4, #1
100027fa:	5d18      	ldrb	r0, [r3, r4]
100027fc:	0039      	movs	r1, r7
100027fe:	4643      	mov	r3, r8
10002800:	47b0      	blx	r6
10002802:	2c00      	cmp	r4, #0
10002804:	d1f6      	bne.n	100027f4 <_out_rev+0x4c>
10002806:	9b0d      	ldr	r3, [sp, #52]	; 0x34
10002808:	079b      	lsls	r3, r3, #30
1000280a:	d50e      	bpl.n	1000282a <_out_rev+0x82>
1000280c:	465b      	mov	r3, fp
1000280e:	1aec      	subs	r4, r5, r3
10002810:	9b0c      	ldr	r3, [sp, #48]	; 0x30
10002812:	42a3      	cmp	r3, r4
10002814:	d909      	bls.n	1000282a <_out_rev+0x82>
10002816:	4699      	mov	r9, r3
10002818:	002a      	movs	r2, r5
1000281a:	4643      	mov	r3, r8
1000281c:	0039      	movs	r1, r7
1000281e:	2020      	movs	r0, #32
10002820:	3401      	adds	r4, #1
10002822:	47b0      	blx	r6
10002824:	3501      	adds	r5, #1
10002826:	45a1      	cmp	r9, r4
10002828:	d8f6      	bhi.n	10002818 <_out_rev+0x70>
1000282a:	0028      	movs	r0, r5
1000282c:	bcf0      	pop	{r4, r5, r6, r7}
1000282e:	46bb      	mov	fp, r7
10002830:	46b2      	mov	sl, r6
10002832:	46a9      	mov	r9, r5
10002834:	46a0      	mov	r8, r4
10002836:	bdf8      	pop	{r3, r4, r5, r6, r7, pc}

10002838 <_ntoa_format>:
10002838:	b5f0      	push	{r4, r5, r6, r7, lr}
1000283a:	464f      	mov	r7, r9
1000283c:	4646      	mov	r6, r8
1000283e:	46d6      	mov	lr, sl
10002840:	b5c0      	push	{r6, r7, lr}
10002842:	b084      	sub	sp, #16
10002844:	4698      	mov	r8, r3
10002846:	ab0e      	add	r3, sp, #56	; 0x38
10002848:	781b      	ldrb	r3, [r3, #0]
1000284a:	4694      	mov	ip, r2
1000284c:	4699      	mov	r9, r3
1000284e:	9b12      	ldr	r3, [sp, #72]	; 0x48
10002850:	9c0d      	ldr	r4, [sp, #52]	; 0x34
10002852:	9f10      	ldr	r7, [sp, #64]	; 0x40
10002854:	9e11      	ldr	r6, [sp, #68]	; 0x44
10002856:	079a      	lsls	r2, r3, #30
10002858:	d424      	bmi.n	100028a4 <_ntoa_format+0x6c>
1000285a:	2e00      	cmp	r6, #0
1000285c:	d16a      	bne.n	10002934 <_ntoa_format+0xfc>
1000285e:	42bc      	cmp	r4, r7
10002860:	d220      	bcs.n	100028a4 <_ntoa_format+0x6c>
10002862:	2201      	movs	r2, #1
10002864:	401a      	ands	r2, r3
10002866:	4692      	mov	sl, r2
10002868:	2c20      	cmp	r4, #32
1000286a:	d100      	bne.n	1000286e <_ntoa_format+0x36>
1000286c:	e0d2      	b.n	10002a14 <_ntoa_format+0x1dc>
1000286e:	9a0c      	ldr	r2, [sp, #48]	; 0x30
10002870:	1e55      	subs	r5, r2, #1
10002872:	2230      	movs	r2, #48	; 0x30
10002874:	e001      	b.n	1000287a <_ntoa_format+0x42>
10002876:	2c20      	cmp	r4, #32
10002878:	d030      	beq.n	100028dc <_ntoa_format+0xa4>
1000287a:	3401      	adds	r4, #1
1000287c:	552a      	strb	r2, [r5, r4]
1000287e:	42a7      	cmp	r7, r4
10002880:	d8f9      	bhi.n	10002876 <_ntoa_format+0x3e>
10002882:	4652      	mov	r2, sl
10002884:	2a00      	cmp	r2, #0
10002886:	d00d      	beq.n	100028a4 <_ntoa_format+0x6c>
10002888:	42b4      	cmp	r4, r6
1000288a:	d20b      	bcs.n	100028a4 <_ntoa_format+0x6c>
1000288c:	9a0c      	ldr	r2, [sp, #48]	; 0x30
1000288e:	1e55      	subs	r5, r2, #1
10002890:	2230      	movs	r2, #48	; 0x30
10002892:	2c20      	cmp	r4, #32
10002894:	d102      	bne.n	1000289c <_ntoa_format+0x64>
10002896:	e026      	b.n	100028e6 <_ntoa_format+0xae>
10002898:	2c20      	cmp	r4, #32
1000289a:	d063      	beq.n	10002964 <_ntoa_format+0x12c>
1000289c:	3401      	adds	r4, #1
1000289e:	552a      	strb	r2, [r5, r4]
100028a0:	42b4      	cmp	r4, r6
100028a2:	d1f9      	bne.n	10002898 <_ntoa_format+0x60>
100028a4:	06da      	lsls	r2, r3, #27
100028a6:	d534      	bpl.n	10002912 <_ntoa_format+0xda>
100028a8:	055a      	lsls	r2, r3, #21
100028aa:	d464      	bmi.n	10002976 <_ntoa_format+0x13e>
100028ac:	2c00      	cmp	r4, #0
100028ae:	d15e      	bne.n	1000296e <_ntoa_format+0x136>
100028b0:	9a0f      	ldr	r2, [sp, #60]	; 0x3c
100028b2:	2a10      	cmp	r2, #16
100028b4:	d100      	bne.n	100028b8 <_ntoa_format+0x80>
100028b6:	e097      	b.n	100029e8 <_ntoa_format+0x1b0>
100028b8:	2a02      	cmp	r2, #2
100028ba:	d100      	bne.n	100028be <_ntoa_format+0x86>
100028bc:	e0a8      	b.n	10002a10 <_ntoa_format+0x1d8>
100028be:	2230      	movs	r2, #48	; 0x30
100028c0:	9c0c      	ldr	r4, [sp, #48]	; 0x30
100028c2:	7022      	strb	r2, [r4, #0]
100028c4:	2401      	movs	r4, #1
100028c6:	464a      	mov	r2, r9
100028c8:	2a00      	cmp	r2, #0
100028ca:	d15e      	bne.n	1000298a <_ntoa_format+0x152>
100028cc:	075a      	lsls	r2, r3, #29
100028ce:	d400      	bmi.n	100028d2 <_ntoa_format+0x9a>
100028d0:	e083      	b.n	100029da <_ntoa_format+0x1a2>
100028d2:	222b      	movs	r2, #43	; 0x2b
100028d4:	9d0c      	ldr	r5, [sp, #48]	; 0x30
100028d6:	552a      	strb	r2, [r5, r4]
100028d8:	3401      	adds	r4, #1
100028da:	e01c      	b.n	10002916 <_ntoa_format+0xde>
100028dc:	4652      	mov	r2, sl
100028de:	2a00      	cmp	r2, #0
100028e0:	d002      	beq.n	100028e8 <_ntoa_format+0xb0>
100028e2:	2e20      	cmp	r6, #32
100028e4:	d93e      	bls.n	10002964 <_ntoa_format+0x12c>
100028e6:	2420      	movs	r4, #32
100028e8:	06da      	lsls	r2, r3, #27
100028ea:	d514      	bpl.n	10002916 <_ntoa_format+0xde>
100028ec:	055a      	lsls	r2, r3, #21
100028ee:	d412      	bmi.n	10002916 <_ntoa_format+0xde>
100028f0:	2f20      	cmp	r7, #32
100028f2:	d100      	bne.n	100028f6 <_ntoa_format+0xbe>
100028f4:	e0a1      	b.n	10002a3a <_ntoa_format+0x202>
100028f6:	2e20      	cmp	r6, #32
100028f8:	d13d      	bne.n	10002976 <_ntoa_format+0x13e>
100028fa:	2620      	movs	r6, #32
100028fc:	221f      	movs	r2, #31
100028fe:	0034      	movs	r4, r6
10002900:	9d0f      	ldr	r5, [sp, #60]	; 0x3c
10002902:	2d10      	cmp	r5, #16
10002904:	d100      	bne.n	10002908 <_ntoa_format+0xd0>
10002906:	e08b      	b.n	10002a20 <_ntoa_format+0x1e8>
10002908:	2d02      	cmp	r5, #2
1000290a:	d052      	beq.n	100029b2 <_ntoa_format+0x17a>
1000290c:	2530      	movs	r5, #48	; 0x30
1000290e:	9f0c      	ldr	r7, [sp, #48]	; 0x30
10002910:	54bd      	strb	r5, [r7, r2]
10002912:	2c20      	cmp	r4, #32
10002914:	d1d7      	bne.n	100028c6 <_ntoa_format+0x8e>
10002916:	9303      	str	r3, [sp, #12]
10002918:	9b0c      	ldr	r3, [sp, #48]	; 0x30
1000291a:	4662      	mov	r2, ip
1000291c:	9300      	str	r3, [sp, #0]
1000291e:	9602      	str	r6, [sp, #8]
10002920:	4643      	mov	r3, r8
10002922:	9401      	str	r4, [sp, #4]
10002924:	f7ff ff40 	bl	100027a8 <_out_rev>
10002928:	b004      	add	sp, #16
1000292a:	bce0      	pop	{r5, r6, r7}
1000292c:	46ba      	mov	sl, r7
1000292e:	46b1      	mov	r9, r6
10002930:	46a8      	mov	r8, r5
10002932:	bdf0      	pop	{r4, r5, r6, r7, pc}
10002934:	2201      	movs	r2, #1
10002936:	0015      	movs	r5, r2
10002938:	401d      	ands	r5, r3
1000293a:	46aa      	mov	sl, r5
1000293c:	421a      	tst	r2, r3
1000293e:	d029      	beq.n	10002994 <_ntoa_format+0x15c>
10002940:	464a      	mov	r2, r9
10002942:	2a00      	cmp	r2, #0
10002944:	d139      	bne.n	100029ba <_ntoa_format+0x182>
10002946:	320c      	adds	r2, #12
10002948:	421a      	tst	r2, r3
1000294a:	d136      	bne.n	100029ba <_ntoa_format+0x182>
1000294c:	42bc      	cmp	r4, r7
1000294e:	d29b      	bcs.n	10002888 <_ntoa_format+0x50>
10002950:	2c20      	cmp	r4, #32
10002952:	d000      	beq.n	10002956 <_ntoa_format+0x11e>
10002954:	e78b      	b.n	1000286e <_ntoa_format+0x36>
10002956:	2210      	movs	r2, #16
10002958:	401a      	ands	r2, r3
1000295a:	2e20      	cmp	r6, #32
1000295c:	d8c3      	bhi.n	100028e6 <_ntoa_format+0xae>
1000295e:	2a00      	cmp	r2, #0
10002960:	d1a2      	bne.n	100028a8 <_ntoa_format+0x70>
10002962:	e7d8      	b.n	10002916 <_ntoa_format+0xde>
10002964:	2420      	movs	r4, #32
10002966:	06da      	lsls	r2, r3, #27
10002968:	d5d5      	bpl.n	10002916 <_ntoa_format+0xde>
1000296a:	055a      	lsls	r2, r3, #21
1000296c:	d403      	bmi.n	10002976 <_ntoa_format+0x13e>
1000296e:	42a7      	cmp	r7, r4
10002970:	d025      	beq.n	100029be <_ntoa_format+0x186>
10002972:	42b4      	cmp	r4, r6
10002974:	d023      	beq.n	100029be <_ntoa_format+0x186>
10002976:	9a0f      	ldr	r2, [sp, #60]	; 0x3c
10002978:	2a10      	cmp	r2, #16
1000297a:	d025      	beq.n	100029c8 <_ntoa_format+0x190>
1000297c:	2a02      	cmp	r2, #2
1000297e:	d014      	beq.n	100029aa <_ntoa_format+0x172>
10002980:	2c20      	cmp	r4, #32
10002982:	d0c8      	beq.n	10002916 <_ntoa_format+0xde>
10002984:	0022      	movs	r2, r4
10002986:	3401      	adds	r4, #1
10002988:	e7c0      	b.n	1000290c <_ntoa_format+0xd4>
1000298a:	222d      	movs	r2, #45	; 0x2d
1000298c:	9d0c      	ldr	r5, [sp, #48]	; 0x30
1000298e:	552a      	strb	r2, [r5, r4]
10002990:	3401      	adds	r4, #1
10002992:	e7c0      	b.n	10002916 <_ntoa_format+0xde>
10002994:	42bc      	cmp	r4, r7
10002996:	d300      	bcc.n	1000299a <_ntoa_format+0x162>
10002998:	e784      	b.n	100028a4 <_ntoa_format+0x6c>
1000299a:	2c20      	cmp	r4, #32
1000299c:	d000      	beq.n	100029a0 <_ntoa_format+0x168>
1000299e:	e766      	b.n	1000286e <_ntoa_format+0x36>
100029a0:	2210      	movs	r2, #16
100029a2:	401a      	ands	r2, r3
100029a4:	2a00      	cmp	r2, #0
100029a6:	d1e0      	bne.n	1000296a <_ntoa_format+0x132>
100029a8:	e7b5      	b.n	10002916 <_ntoa_format+0xde>
100029aa:	2c20      	cmp	r4, #32
100029ac:	d0b3      	beq.n	10002916 <_ntoa_format+0xde>
100029ae:	0022      	movs	r2, r4
100029b0:	3401      	adds	r4, #1
100029b2:	2562      	movs	r5, #98	; 0x62
100029b4:	9f0c      	ldr	r7, [sp, #48]	; 0x30
100029b6:	54bd      	strb	r5, [r7, r2]
100029b8:	e7e2      	b.n	10002980 <_ntoa_format+0x148>
100029ba:	3e01      	subs	r6, #1
100029bc:	e7c6      	b.n	1000294c <_ntoa_format+0x114>
100029be:	1e62      	subs	r2, r4, #1
100029c0:	2c01      	cmp	r4, #1
100029c2:	d100      	bne.n	100029c6 <_ntoa_format+0x18e>
100029c4:	e774      	b.n	100028b0 <_ntoa_format+0x78>
100029c6:	e79b      	b.n	10002900 <_ntoa_format+0xc8>
100029c8:	069a      	lsls	r2, r3, #26
100029ca:	d416      	bmi.n	100029fa <_ntoa_format+0x1c2>
100029cc:	2c20      	cmp	r4, #32
100029ce:	d0a2      	beq.n	10002916 <_ntoa_format+0xde>
100029d0:	2278      	movs	r2, #120	; 0x78
100029d2:	9d0c      	ldr	r5, [sp, #48]	; 0x30
100029d4:	552a      	strb	r2, [r5, r4]
100029d6:	3401      	adds	r4, #1
100029d8:	e7d2      	b.n	10002980 <_ntoa_format+0x148>
100029da:	071a      	lsls	r2, r3, #28
100029dc:	d59b      	bpl.n	10002916 <_ntoa_format+0xde>
100029de:	2220      	movs	r2, #32
100029e0:	9d0c      	ldr	r5, [sp, #48]	; 0x30
100029e2:	552a      	strb	r2, [r5, r4]
100029e4:	3401      	adds	r4, #1
100029e6:	e796      	b.n	10002916 <_ntoa_format+0xde>
100029e8:	069a      	lsls	r2, r3, #26
100029ea:	d40f      	bmi.n	10002a0c <_ntoa_format+0x1d4>
100029ec:	2278      	movs	r2, #120	; 0x78
100029ee:	9c0c      	ldr	r4, [sp, #48]	; 0x30
100029f0:	7022      	strb	r2, [r4, #0]
100029f2:	2230      	movs	r2, #48	; 0x30
100029f4:	7062      	strb	r2, [r4, #1]
100029f6:	2402      	movs	r4, #2
100029f8:	e765      	b.n	100028c6 <_ntoa_format+0x8e>
100029fa:	2c20      	cmp	r4, #32
100029fc:	d100      	bne.n	10002a00 <_ntoa_format+0x1c8>
100029fe:	e78a      	b.n	10002916 <_ntoa_format+0xde>
10002a00:	2558      	movs	r5, #88	; 0x58
10002a02:	9a0c      	ldr	r2, [sp, #48]	; 0x30
10002a04:	1912      	adds	r2, r2, r4
10002a06:	7015      	strb	r5, [r2, #0]
10002a08:	3401      	adds	r4, #1
10002a0a:	e7b9      	b.n	10002980 <_ntoa_format+0x148>
10002a0c:	2258      	movs	r2, #88	; 0x58
10002a0e:	e7ee      	b.n	100029ee <_ntoa_format+0x1b6>
10002a10:	2262      	movs	r2, #98	; 0x62
10002a12:	e7ec      	b.n	100029ee <_ntoa_format+0x1b6>
10002a14:	2210      	movs	r2, #16
10002a16:	4655      	mov	r5, sl
10002a18:	401a      	ands	r2, r3
10002a1a:	2d00      	cmp	r5, #0
10002a1c:	d19f      	bne.n	1000295e <_ntoa_format+0x126>
10002a1e:	e7c1      	b.n	100029a4 <_ntoa_format+0x16c>
10002a20:	3c02      	subs	r4, #2
10002a22:	069d      	lsls	r5, r3, #26
10002a24:	d404      	bmi.n	10002a30 <_ntoa_format+0x1f8>
10002a26:	2578      	movs	r5, #120	; 0x78
10002a28:	9f0c      	ldr	r7, [sp, #48]	; 0x30
10002a2a:	553d      	strb	r5, [r7, r4]
10002a2c:	0014      	movs	r4, r2
10002a2e:	e7a9      	b.n	10002984 <_ntoa_format+0x14c>
10002a30:	2558      	movs	r5, #88	; 0x58
10002a32:	9f0c      	ldr	r7, [sp, #48]	; 0x30
10002a34:	553d      	strb	r5, [r7, r4]
10002a36:	0014      	movs	r4, r2
10002a38:	e7a4      	b.n	10002984 <_ntoa_format+0x14c>
10002a3a:	221f      	movs	r2, #31
10002a3c:	e760      	b.n	10002900 <_ntoa_format+0xc8>
10002a3e:	46c0      	nop			; (mov r8, r8)

10002a40 <_out_char>:
10002a40:	b510      	push	{r4, lr}
10002a42:	2800      	cmp	r0, #0
10002a44:	d100      	bne.n	10002a48 <_out_char+0x8>
10002a46:	bd10      	pop	{r4, pc}
10002a48:	f002 fa2e 	bl	10004ea8 <__wrap_putchar>
10002a4c:	e7fb      	b.n	10002a46 <_out_char+0x6>
10002a4e:	46c0      	nop			; (mov r8, r8)

10002a50 <_out_fct>:
10002a50:	000b      	movs	r3, r1
10002a52:	b510      	push	{r4, lr}
10002a54:	2800      	cmp	r0, #0
10002a56:	d002      	beq.n	10002a5e <_out_fct+0xe>
10002a58:	6849      	ldr	r1, [r1, #4]
10002a5a:	681b      	ldr	r3, [r3, #0]
10002a5c:	4798      	blx	r3
10002a5e:	bd10      	pop	{r4, pc}

10002a60 <_etoa>:
10002a60:	b5f0      	push	{r4, r5, r6, r7, lr}
10002a62:	4657      	mov	r7, sl
10002a64:	464e      	mov	r6, r9
10002a66:	4645      	mov	r5, r8
10002a68:	46de      	mov	lr, fp
10002a6a:	b5e0      	push	{r5, r6, r7, lr}
10002a6c:	b099      	sub	sp, #100	; 0x64
10002a6e:	4682      	mov	sl, r0
10002a70:	4689      	mov	r9, r1
10002a72:	4690      	mov	r8, r2
10002a74:	9308      	str	r3, [sp, #32]
10002a76:	9a22      	ldr	r2, [sp, #136]	; 0x88
10002a78:	9b23      	ldr	r3, [sp, #140]	; 0x8c
10002a7a:	0010      	movs	r0, r2
10002a7c:	0019      	movs	r1, r3
10002a7e:	f001 fd62 	bl	10004546 <__wrap___aeabi_dcmpun>
10002a82:	2800      	cmp	r0, #0
10002a84:	d000      	beq.n	10002a88 <_etoa+0x28>
10002a86:	e0cd      	b.n	10002c24 <_etoa+0x1c4>
10002a88:	9822      	ldr	r0, [sp, #136]	; 0x88
10002a8a:	9923      	ldr	r1, [sp, #140]	; 0x8c
10002a8c:	2201      	movs	r2, #1
10002a8e:	4bd9      	ldr	r3, [pc, #868]	; (10002df4 <_etoa+0x394>)
10002a90:	4252      	negs	r2, r2
10002a92:	f001 fd53 	bl	1000453c <__wrap___aeabi_dcmpgt>
10002a96:	2800      	cmp	r0, #0
10002a98:	d000      	beq.n	10002a9c <_etoa+0x3c>
10002a9a:	e0c3      	b.n	10002c24 <_etoa+0x1c4>
10002a9c:	9822      	ldr	r0, [sp, #136]	; 0x88
10002a9e:	9923      	ldr	r1, [sp, #140]	; 0x8c
10002aa0:	2201      	movs	r2, #1
10002aa2:	4bd5      	ldr	r3, [pc, #852]	; (10002df8 <_etoa+0x398>)
10002aa4:	4252      	negs	r2, r2
10002aa6:	f001 fd3b 	bl	10004520 <__wrap___aeabi_dcmplt>
10002aaa:	2800      	cmp	r0, #0
10002aac:	d000      	beq.n	10002ab0 <_etoa+0x50>
10002aae:	e0b9      	b.n	10002c24 <_etoa+0x1c4>
10002ab0:	9822      	ldr	r0, [sp, #136]	; 0x88
10002ab2:	9923      	ldr	r1, [sp, #140]	; 0x8c
10002ab4:	2200      	movs	r2, #0
10002ab6:	2300      	movs	r3, #0
10002ab8:	f001 fd32 	bl	10004520 <__wrap___aeabi_dcmplt>
10002abc:	2800      	cmp	r0, #0
10002abe:	d000      	beq.n	10002ac2 <_etoa+0x62>
10002ac0:	e1f1      	b.n	10002ea6 <_etoa+0x446>
10002ac2:	9e22      	ldr	r6, [sp, #136]	; 0x88
10002ac4:	9f23      	ldr	r7, [sp, #140]	; 0x8c
10002ac6:	2380      	movs	r3, #128	; 0x80
10002ac8:	9a26      	ldr	r2, [sp, #152]	; 0x98
10002aca:	00db      	lsls	r3, r3, #3
10002acc:	401a      	ands	r2, r3
10002ace:	920d      	str	r2, [sp, #52]	; 0x34
10002ad0:	9a26      	ldr	r2, [sp, #152]	; 0x98
10002ad2:	421a      	tst	r2, r3
10002ad4:	d101      	bne.n	10002ada <_etoa+0x7a>
10002ad6:	2306      	movs	r3, #6
10002ad8:	9324      	str	r3, [sp, #144]	; 0x90
10002ada:	2380      	movs	r3, #128	; 0x80
10002adc:	9a26      	ldr	r2, [sp, #152]	; 0x98
10002ade:	011b      	lsls	r3, r3, #4
10002ae0:	401a      	ands	r2, r3
10002ae2:	003b      	movs	r3, r7
10002ae4:	4693      	mov	fp, r2
10002ae6:	9609      	str	r6, [sp, #36]	; 0x24
10002ae8:	4333      	orrs	r3, r6
10002aea:	d000      	beq.n	10002aee <_etoa+0x8e>
10002aec:	e0b3      	b.n	10002c56 <_etoa+0x1f6>
10002aee:	2a00      	cmp	r2, #0
10002af0:	d000      	beq.n	10002af4 <_etoa+0x94>
10002af2:	e1c2      	b.n	10002e7a <_etoa+0x41a>
10002af4:	2300      	movs	r3, #0
10002af6:	2400      	movs	r4, #0
10002af8:	930a      	str	r3, [sp, #40]	; 0x28
10002afa:	940b      	str	r4, [sp, #44]	; 0x2c
10002afc:	2300      	movs	r3, #0
10002afe:	2504      	movs	r5, #4
10002b00:	9309      	str	r3, [sp, #36]	; 0x24
10002b02:	9b25      	ldr	r3, [sp, #148]	; 0x94
10002b04:	2400      	movs	r4, #0
10002b06:	42ab      	cmp	r3, r5
10002b08:	d900      	bls.n	10002b0c <_etoa+0xac>
10002b0a:	1b5c      	subs	r4, r3, r5
10002b0c:	2302      	movs	r3, #2
10002b0e:	9a26      	ldr	r2, [sp, #152]	; 0x98
10002b10:	401a      	ands	r2, r3
10002b12:	920c      	str	r2, [sp, #48]	; 0x30
10002b14:	9a26      	ldr	r2, [sp, #152]	; 0x98
10002b16:	4213      	tst	r3, r2
10002b18:	d003      	beq.n	10002b22 <_etoa+0xc2>
10002b1a:	426b      	negs	r3, r5
10002b1c:	416b      	adcs	r3, r5
10002b1e:	425b      	negs	r3, r3
10002b20:	401c      	ands	r4, r3
10002b22:	9b09      	ldr	r3, [sp, #36]	; 0x24
10002b24:	2b00      	cmp	r3, #0
10002b26:	d007      	beq.n	10002b38 <_etoa+0xd8>
10002b28:	9a0a      	ldr	r2, [sp, #40]	; 0x28
10002b2a:	9b0b      	ldr	r3, [sp, #44]	; 0x2c
10002b2c:	0030      	movs	r0, r6
10002b2e:	0039      	movs	r1, r7
10002b30:	f001 fc95 	bl	1000445e <__wrap___aeabi_ddiv>
10002b34:	0006      	movs	r6, r0
10002b36:	000f      	movs	r7, r1
10002b38:	9822      	ldr	r0, [sp, #136]	; 0x88
10002b3a:	9923      	ldr	r1, [sp, #140]	; 0x8c
10002b3c:	2200      	movs	r2, #0
10002b3e:	2300      	movs	r3, #0
10002b40:	f001 fcee 	bl	10004520 <__wrap___aeabi_dcmplt>
10002b44:	2800      	cmp	r0, #0
10002b46:	d003      	beq.n	10002b50 <_etoa+0xf0>
10002b48:	2180      	movs	r1, #128	; 0x80
10002b4a:	0609      	lsls	r1, r1, #24
10002b4c:	187b      	adds	r3, r7, r1
10002b4e:	001f      	movs	r7, r3
10002b50:	9a26      	ldr	r2, [sp, #152]	; 0x98
10002b52:	4baa      	ldr	r3, [pc, #680]	; (10002dfc <_etoa+0x39c>)
10002b54:	9600      	str	r6, [sp, #0]
10002b56:	9701      	str	r7, [sp, #4]
10002b58:	4013      	ands	r3, r2
10002b5a:	9e08      	ldr	r6, [sp, #32]
10002b5c:	9304      	str	r3, [sp, #16]
10002b5e:	9b24      	ldr	r3, [sp, #144]	; 0x90
10002b60:	9403      	str	r4, [sp, #12]
10002b62:	9302      	str	r3, [sp, #8]
10002b64:	4642      	mov	r2, r8
10002b66:	0033      	movs	r3, r6
10002b68:	4649      	mov	r1, r9
10002b6a:	4650      	mov	r0, sl
10002b6c:	f000 f9aa 	bl	10002ec4 <_ftoa>
10002b70:	0004      	movs	r4, r0
10002b72:	2d00      	cmp	r5, #0
10002b74:	d067      	beq.n	10002c46 <_etoa+0x1e6>
10002b76:	2020      	movs	r0, #32
10002b78:	9a26      	ldr	r2, [sp, #152]	; 0x98
10002b7a:	4649      	mov	r1, r9
10002b7c:	4002      	ands	r2, r0
10002b7e:	0013      	movs	r3, r2
10002b80:	425a      	negs	r2, r3
10002b82:	4153      	adcs	r3, r2
10002b84:	425b      	negs	r3, r3
10002b86:	1c62      	adds	r2, r4, #1
10002b88:	4018      	ands	r0, r3
10002b8a:	920a      	str	r2, [sp, #40]	; 0x28
10002b8c:	0033      	movs	r3, r6
10002b8e:	0022      	movs	r2, r4
10002b90:	3045      	adds	r0, #69	; 0x45
10002b92:	47d0      	blx	sl
10002b94:	9a09      	ldr	r2, [sp, #36]	; 0x24
10002b96:	1e6f      	subs	r7, r5, #1
10002b98:	17d3      	asrs	r3, r2, #31
10002b9a:	18d4      	adds	r4, r2, r3
10002b9c:	405c      	eors	r4, r3
10002b9e:	0fd3      	lsrs	r3, r2, #31
10002ba0:	469b      	mov	fp, r3
10002ba2:	2500      	movs	r5, #0
10002ba4:	e001      	b.n	10002baa <_etoa+0x14a>
10002ba6:	2d20      	cmp	r5, #32
10002ba8:	d013      	beq.n	10002bd2 <_etoa+0x172>
10002baa:	aa08      	add	r2, sp, #32
10002bac:	4694      	mov	ip, r2
10002bae:	231f      	movs	r3, #31
10002bb0:	0020      	movs	r0, r4
10002bb2:	4463      	add	r3, ip
10002bb4:	210a      	movs	r1, #10
10002bb6:	3501      	adds	r5, #1
10002bb8:	195e      	adds	r6, r3, r5
10002bba:	f001 f9fb 	bl	10003fb4 <__wrap___aeabi_uidiv>
10002bbe:	3130      	adds	r1, #48	; 0x30
10002bc0:	7031      	strb	r1, [r6, #0]
10002bc2:	0020      	movs	r0, r4
10002bc4:	210a      	movs	r1, #10
10002bc6:	f001 f9f5 	bl	10003fb4 <__wrap___aeabi_uidiv>
10002bca:	0026      	movs	r6, r4
10002bcc:	0004      	movs	r4, r0
10002bce:	2e09      	cmp	r6, #9
10002bd0:	d8e9      	bhi.n	10002ba6 <_etoa+0x146>
10002bd2:	2305      	movs	r3, #5
10002bd4:	9306      	str	r3, [sp, #24]
10002bd6:	2300      	movs	r3, #0
10002bd8:	9304      	str	r3, [sp, #16]
10002bda:	330a      	adds	r3, #10
10002bdc:	9303      	str	r3, [sp, #12]
10002bde:	465b      	mov	r3, fp
10002be0:	9e08      	ldr	r6, [sp, #32]
10002be2:	9302      	str	r3, [sp, #8]
10002be4:	ab10      	add	r3, sp, #64	; 0x40
10002be6:	9a0a      	ldr	r2, [sp, #40]	; 0x28
10002be8:	9300      	str	r3, [sp, #0]
10002bea:	4649      	mov	r1, r9
10002bec:	0033      	movs	r3, r6
10002bee:	4650      	mov	r0, sl
10002bf0:	9705      	str	r7, [sp, #20]
10002bf2:	9501      	str	r5, [sp, #4]
10002bf4:	f7ff fe20 	bl	10002838 <_ntoa_format>
10002bf8:	9a0c      	ldr	r2, [sp, #48]	; 0x30
10002bfa:	0004      	movs	r4, r0
10002bfc:	2a00      	cmp	r2, #0
10002bfe:	d022      	beq.n	10002c46 <_etoa+0x1e6>
10002c00:	4642      	mov	r2, r8
10002c02:	1a85      	subs	r5, r0, r2
10002c04:	9a25      	ldr	r2, [sp, #148]	; 0x94
10002c06:	42aa      	cmp	r2, r5
10002c08:	d91d      	bls.n	10002c46 <_etoa+0x1e6>
10002c0a:	46b0      	mov	r8, r6
10002c0c:	4657      	mov	r7, sl
10002c0e:	0016      	movs	r6, r2
10002c10:	0022      	movs	r2, r4
10002c12:	4643      	mov	r3, r8
10002c14:	4649      	mov	r1, r9
10002c16:	2020      	movs	r0, #32
10002c18:	3501      	adds	r5, #1
10002c1a:	47b8      	blx	r7
10002c1c:	3401      	adds	r4, #1
10002c1e:	42ae      	cmp	r6, r5
10002c20:	d8f6      	bhi.n	10002c10 <_etoa+0x1b0>
10002c22:	e010      	b.n	10002c46 <_etoa+0x1e6>
10002c24:	9b26      	ldr	r3, [sp, #152]	; 0x98
10002c26:	4642      	mov	r2, r8
10002c28:	9304      	str	r3, [sp, #16]
10002c2a:	9b25      	ldr	r3, [sp, #148]	; 0x94
10002c2c:	4649      	mov	r1, r9
10002c2e:	9303      	str	r3, [sp, #12]
10002c30:	9b24      	ldr	r3, [sp, #144]	; 0x90
10002c32:	4650      	mov	r0, sl
10002c34:	9302      	str	r3, [sp, #8]
10002c36:	9b22      	ldr	r3, [sp, #136]	; 0x88
10002c38:	9c23      	ldr	r4, [sp, #140]	; 0x8c
10002c3a:	9300      	str	r3, [sp, #0]
10002c3c:	9401      	str	r4, [sp, #4]
10002c3e:	9b08      	ldr	r3, [sp, #32]
10002c40:	f000 f940 	bl	10002ec4 <_ftoa>
10002c44:	0004      	movs	r4, r0
10002c46:	0020      	movs	r0, r4
10002c48:	b019      	add	sp, #100	; 0x64
10002c4a:	bcf0      	pop	{r4, r5, r6, r7}
10002c4c:	46bb      	mov	fp, r7
10002c4e:	46b2      	mov	sl, r6
10002c50:	46a9      	mov	r9, r5
10002c52:	46a0      	mov	r8, r4
10002c54:	bdf0      	pop	{r4, r5, r6, r7, pc}
10002c56:	4b6a      	ldr	r3, [pc, #424]	; (10002e00 <_etoa+0x3a0>)
10002c58:	0078      	lsls	r0, r7, #1
10002c5a:	469c      	mov	ip, r3
10002c5c:	0d40      	lsrs	r0, r0, #21
10002c5e:	4460      	add	r0, ip
10002c60:	f001 fc84 	bl	1000456c <__wrap___aeabi_i2d>
10002c64:	4a67      	ldr	r2, [pc, #412]	; (10002e04 <_etoa+0x3a4>)
10002c66:	4b68      	ldr	r3, [pc, #416]	; (10002e08 <_etoa+0x3a8>)
10002c68:	f001 fc17 	bl	1000449a <__wrap___aeabi_dmul>
10002c6c:	4a67      	ldr	r2, [pc, #412]	; (10002e0c <_etoa+0x3ac>)
10002c6e:	4b68      	ldr	r3, [pc, #416]	; (10002e10 <_etoa+0x3b0>)
10002c70:	f001 fbec 	bl	1000444c <__wrap___aeabi_dadd>
10002c74:	4a67      	ldr	r2, [pc, #412]	; (10002e14 <_etoa+0x3b4>)
10002c76:	033b      	lsls	r3, r7, #12
10002c78:	0b1b      	lsrs	r3, r3, #12
10002c7a:	431a      	orrs	r2, r3
10002c7c:	0004      	movs	r4, r0
10002c7e:	000d      	movs	r5, r1
10002c80:	9809      	ldr	r0, [sp, #36]	; 0x24
10002c82:	0011      	movs	r1, r2
10002c84:	4b64      	ldr	r3, [pc, #400]	; (10002e18 <_etoa+0x3b8>)
10002c86:	2200      	movs	r2, #0
10002c88:	f001 fbd7 	bl	1000443a <__wrap___aeabi_dsub>
10002c8c:	4a63      	ldr	r2, [pc, #396]	; (10002e1c <_etoa+0x3bc>)
10002c8e:	4b64      	ldr	r3, [pc, #400]	; (10002e20 <_etoa+0x3c0>)
10002c90:	f001 fc03 	bl	1000449a <__wrap___aeabi_dmul>
10002c94:	0002      	movs	r2, r0
10002c96:	000b      	movs	r3, r1
10002c98:	0020      	movs	r0, r4
10002c9a:	0029      	movs	r1, r5
10002c9c:	f001 fbd6 	bl	1000444c <__wrap___aeabi_dadd>
10002ca0:	f001 fc7c 	bl	1000459c <__wrap___aeabi_d2iz>
10002ca4:	9009      	str	r0, [sp, #36]	; 0x24
10002ca6:	f001 fc61 	bl	1000456c <__wrap___aeabi_i2d>
10002caa:	4a5e      	ldr	r2, [pc, #376]	; (10002e24 <_etoa+0x3c4>)
10002cac:	4b5e      	ldr	r3, [pc, #376]	; (10002e28 <_etoa+0x3c8>)
10002cae:	0004      	movs	r4, r0
10002cb0:	000d      	movs	r5, r1
10002cb2:	f001 fbf2 	bl	1000449a <__wrap___aeabi_dmul>
10002cb6:	2200      	movs	r2, #0
10002cb8:	4b5c      	ldr	r3, [pc, #368]	; (10002e2c <_etoa+0x3cc>)
10002cba:	f001 fbc7 	bl	1000444c <__wrap___aeabi_dadd>
10002cbe:	f001 fc6d 	bl	1000459c <__wrap___aeabi_d2iz>
10002cc2:	4a5b      	ldr	r2, [pc, #364]	; (10002e30 <_etoa+0x3d0>)
10002cc4:	4b5b      	ldr	r3, [pc, #364]	; (10002e34 <_etoa+0x3d4>)
10002cc6:	0029      	movs	r1, r5
10002cc8:	900c      	str	r0, [sp, #48]	; 0x30
10002cca:	0020      	movs	r0, r4
10002ccc:	f001 fbe5 	bl	1000449a <__wrap___aeabi_dmul>
10002cd0:	0004      	movs	r4, r0
10002cd2:	980c      	ldr	r0, [sp, #48]	; 0x30
10002cd4:	000d      	movs	r5, r1
10002cd6:	f001 fc49 	bl	1000456c <__wrap___aeabi_i2d>
10002cda:	4a57      	ldr	r2, [pc, #348]	; (10002e38 <_etoa+0x3d8>)
10002cdc:	4b57      	ldr	r3, [pc, #348]	; (10002e3c <_etoa+0x3dc>)
10002cde:	f001 fbdc 	bl	1000449a <__wrap___aeabi_dmul>
10002ce2:	0002      	movs	r2, r0
10002ce4:	000b      	movs	r3, r1
10002ce6:	0020      	movs	r0, r4
10002ce8:	0029      	movs	r1, r5
10002cea:	f001 fba6 	bl	1000443a <__wrap___aeabi_dsub>
10002cee:	0004      	movs	r4, r0
10002cf0:	000d      	movs	r5, r1
10002cf2:	0002      	movs	r2, r0
10002cf4:	000b      	movs	r3, r1
10002cf6:	940a      	str	r4, [sp, #40]	; 0x28
10002cf8:	950b      	str	r5, [sp, #44]	; 0x2c
10002cfa:	f001 fbce 	bl	1000449a <__wrap___aeabi_dmul>
10002cfe:	0004      	movs	r4, r0
10002d00:	000d      	movs	r5, r1
10002d02:	980a      	ldr	r0, [sp, #40]	; 0x28
10002d04:	990b      	ldr	r1, [sp, #44]	; 0x2c
10002d06:	0002      	movs	r2, r0
10002d08:	000b      	movs	r3, r1
10002d0a:	f001 fb9f 	bl	1000444c <__wrap___aeabi_dadd>
10002d0e:	2200      	movs	r2, #0
10002d10:	900e      	str	r0, [sp, #56]	; 0x38
10002d12:	910f      	str	r1, [sp, #60]	; 0x3c
10002d14:	4b4a      	ldr	r3, [pc, #296]	; (10002e40 <_etoa+0x3e0>)
10002d16:	0020      	movs	r0, r4
10002d18:	0029      	movs	r1, r5
10002d1a:	f001 fba0 	bl	1000445e <__wrap___aeabi_ddiv>
10002d1e:	2200      	movs	r2, #0
10002d20:	4b48      	ldr	r3, [pc, #288]	; (10002e44 <_etoa+0x3e4>)
10002d22:	f001 fb93 	bl	1000444c <__wrap___aeabi_dadd>
10002d26:	0002      	movs	r2, r0
10002d28:	000b      	movs	r3, r1
10002d2a:	0020      	movs	r0, r4
10002d2c:	0029      	movs	r1, r5
10002d2e:	f001 fb96 	bl	1000445e <__wrap___aeabi_ddiv>
10002d32:	2200      	movs	r2, #0
10002d34:	4b44      	ldr	r3, [pc, #272]	; (10002e48 <_etoa+0x3e8>)
10002d36:	f001 fb89 	bl	1000444c <__wrap___aeabi_dadd>
10002d3a:	0002      	movs	r2, r0
10002d3c:	000b      	movs	r3, r1
10002d3e:	0020      	movs	r0, r4
10002d40:	0029      	movs	r1, r5
10002d42:	f001 fb8c 	bl	1000445e <__wrap___aeabi_ddiv>
10002d46:	9a0a      	ldr	r2, [sp, #40]	; 0x28
10002d48:	9b0b      	ldr	r3, [sp, #44]	; 0x2c
10002d4a:	000d      	movs	r5, r1
10002d4c:	2180      	movs	r1, #128	; 0x80
10002d4e:	0004      	movs	r4, r0
10002d50:	05c9      	lsls	r1, r1, #23
10002d52:	2000      	movs	r0, #0
10002d54:	f001 fb71 	bl	1000443a <__wrap___aeabi_dsub>
10002d58:	0002      	movs	r2, r0
10002d5a:	000b      	movs	r3, r1
10002d5c:	0020      	movs	r0, r4
10002d5e:	0029      	movs	r1, r5
10002d60:	f001 fb74 	bl	1000444c <__wrap___aeabi_dadd>
10002d64:	0002      	movs	r2, r0
10002d66:	000b      	movs	r3, r1
10002d68:	980e      	ldr	r0, [sp, #56]	; 0x38
10002d6a:	990f      	ldr	r1, [sp, #60]	; 0x3c
10002d6c:	f001 fb77 	bl	1000445e <__wrap___aeabi_ddiv>
10002d70:	2200      	movs	r2, #0
10002d72:	4b28      	ldr	r3, [pc, #160]	; (10002e14 <_etoa+0x3b4>)
10002d74:	f001 fb6a 	bl	1000444c <__wrap___aeabi_dadd>
10002d78:	4b34      	ldr	r3, [pc, #208]	; (10002e4c <_etoa+0x3ec>)
10002d7a:	9c0c      	ldr	r4, [sp, #48]	; 0x30
10002d7c:	469c      	mov	ip, r3
10002d7e:	4464      	add	r4, ip
10002d80:	0523      	lsls	r3, r4, #20
10002d82:	2200      	movs	r2, #0
10002d84:	f001 fb89 	bl	1000449a <__wrap___aeabi_dmul>
10002d88:	0004      	movs	r4, r0
10002d8a:	000d      	movs	r5, r1
10002d8c:	0002      	movs	r2, r0
10002d8e:	000b      	movs	r3, r1
10002d90:	0030      	movs	r0, r6
10002d92:	0039      	movs	r1, r7
10002d94:	940a      	str	r4, [sp, #40]	; 0x28
10002d96:	950b      	str	r5, [sp, #44]	; 0x2c
10002d98:	f001 fbc2 	bl	10004520 <__wrap___aeabi_dcmplt>
10002d9c:	2800      	cmp	r0, #0
10002d9e:	d15d      	bne.n	10002e5c <_etoa+0x3fc>
10002da0:	0023      	movs	r3, r4
10002da2:	002a      	movs	r2, r5
10002da4:	25c6      	movs	r5, #198	; 0xc6
10002da6:	9909      	ldr	r1, [sp, #36]	; 0x24
10002da8:	3163      	adds	r1, #99	; 0x63
10002daa:	428d      	cmp	r5, r1
10002dac:	41ad      	sbcs	r5, r5
10002dae:	4659      	mov	r1, fp
10002db0:	426d      	negs	r5, r5
10002db2:	3504      	adds	r5, #4
10002db4:	2900      	cmp	r1, #0
10002db6:	d100      	bne.n	10002dba <_etoa+0x35a>
10002db8:	e6a3      	b.n	10002b02 <_etoa+0xa2>
10002dba:	4313      	orrs	r3, r2
10002dbc:	d063      	beq.n	10002e86 <_etoa+0x426>
10002dbe:	0030      	movs	r0, r6
10002dc0:	0039      	movs	r1, r7
10002dc2:	4a23      	ldr	r2, [pc, #140]	; (10002e50 <_etoa+0x3f0>)
10002dc4:	4b23      	ldr	r3, [pc, #140]	; (10002e54 <_etoa+0x3f4>)
10002dc6:	f001 fbb1 	bl	1000452c <__wrap___aeabi_dcmpge>
10002dca:	2800      	cmp	r0, #0
10002dcc:	d007      	beq.n	10002dde <_etoa+0x37e>
10002dce:	2200      	movs	r2, #0
10002dd0:	0030      	movs	r0, r6
10002dd2:	0039      	movs	r1, r7
10002dd4:	4b20      	ldr	r3, [pc, #128]	; (10002e58 <_etoa+0x3f8>)
10002dd6:	f001 fba3 	bl	10004520 <__wrap___aeabi_dcmplt>
10002dda:	2800      	cmp	r0, #0
10002ddc:	d153      	bne.n	10002e86 <_etoa+0x426>
10002dde:	9b24      	ldr	r3, [sp, #144]	; 0x90
10002de0:	2b00      	cmp	r3, #0
10002de2:	d100      	bne.n	10002de6 <_etoa+0x386>
10002de4:	e68d      	b.n	10002b02 <_etoa+0xa2>
10002de6:	9b0d      	ldr	r3, [sp, #52]	; 0x34
10002de8:	1e5a      	subs	r2, r3, #1
10002dea:	4193      	sbcs	r3, r2
10002dec:	9a24      	ldr	r2, [sp, #144]	; 0x90
10002dee:	1ad3      	subs	r3, r2, r3
10002df0:	9324      	str	r3, [sp, #144]	; 0x90
10002df2:	e686      	b.n	10002b02 <_etoa+0xa2>
10002df4:	7fefffff 	.word	0x7fefffff
10002df8:	ffefffff 	.word	0xffefffff
10002dfc:	fffff7ff 	.word	0xfffff7ff
10002e00:	fffffc01 	.word	0xfffffc01
10002e04:	509f79fb 	.word	0x509f79fb
10002e08:	3fd34413 	.word	0x3fd34413
10002e0c:	8b60c8b3 	.word	0x8b60c8b3
10002e10:	3fc68a28 	.word	0x3fc68a28
10002e14:	3ff00000 	.word	0x3ff00000
10002e18:	3ff80000 	.word	0x3ff80000
10002e1c:	636f4361 	.word	0x636f4361
10002e20:	3fd287a7 	.word	0x3fd287a7
10002e24:	0979a371 	.word	0x0979a371
10002e28:	400a934f 	.word	0x400a934f
10002e2c:	3fe00000 	.word	0x3fe00000
10002e30:	bbb55516 	.word	0xbbb55516
10002e34:	40026bb1 	.word	0x40026bb1
10002e38:	fefa39ef 	.word	0xfefa39ef
10002e3c:	3fe62e42 	.word	0x3fe62e42
10002e40:	402c0000 	.word	0x402c0000
10002e44:	40240000 	.word	0x40240000
10002e48:	40180000 	.word	0x40180000
10002e4c:	000003ff 	.word	0x000003ff
10002e50:	eb1c432d 	.word	0xeb1c432d
10002e54:	3f1a36e2 	.word	0x3f1a36e2
10002e58:	412e8480 	.word	0x412e8480
10002e5c:	9b09      	ldr	r3, [sp, #36]	; 0x24
10002e5e:	2200      	movs	r2, #0
10002e60:	3b01      	subs	r3, #1
10002e62:	9309      	str	r3, [sp, #36]	; 0x24
10002e64:	0020      	movs	r0, r4
10002e66:	4b16      	ldr	r3, [pc, #88]	; (10002ec0 <_etoa+0x460>)
10002e68:	0029      	movs	r1, r5
10002e6a:	f001 faf8 	bl	1000445e <__wrap___aeabi_ddiv>
10002e6e:	000a      	movs	r2, r1
10002e70:	0001      	movs	r1, r0
10002e72:	0003      	movs	r3, r0
10002e74:	910a      	str	r1, [sp, #40]	; 0x28
10002e76:	920b      	str	r2, [sp, #44]	; 0x2c
10002e78:	e794      	b.n	10002da4 <_etoa+0x344>
10002e7a:	2300      	movs	r3, #0
10002e7c:	2400      	movs	r4, #0
10002e7e:	930a      	str	r3, [sp, #40]	; 0x28
10002e80:	940b      	str	r4, [sp, #44]	; 0x2c
10002e82:	2300      	movs	r3, #0
10002e84:	9309      	str	r3, [sp, #36]	; 0x24
10002e86:	9a24      	ldr	r2, [sp, #144]	; 0x90
10002e88:	9b09      	ldr	r3, [sp, #36]	; 0x24
10002e8a:	429a      	cmp	r2, r3
10002e8c:	dd14      	ble.n	10002eb8 <_etoa+0x458>
10002e8e:	1ad3      	subs	r3, r2, r3
10002e90:	3b01      	subs	r3, #1
10002e92:	9324      	str	r3, [sp, #144]	; 0x90
10002e94:	2380      	movs	r3, #128	; 0x80
10002e96:	9a26      	ldr	r2, [sp, #152]	; 0x98
10002e98:	00db      	lsls	r3, r3, #3
10002e9a:	431a      	orrs	r2, r3
10002e9c:	2300      	movs	r3, #0
10002e9e:	2500      	movs	r5, #0
10002ea0:	9226      	str	r2, [sp, #152]	; 0x98
10002ea2:	9309      	str	r3, [sp, #36]	; 0x24
10002ea4:	e62d      	b.n	10002b02 <_etoa+0xa2>
10002ea6:	2280      	movs	r2, #128	; 0x80
10002ea8:	0612      	lsls	r2, r2, #24
10002eaa:	4694      	mov	ip, r2
10002eac:	9b22      	ldr	r3, [sp, #136]	; 0x88
10002eae:	001e      	movs	r6, r3
10002eb0:	9b23      	ldr	r3, [sp, #140]	; 0x8c
10002eb2:	4463      	add	r3, ip
10002eb4:	001f      	movs	r7, r3
10002eb6:	e606      	b.n	10002ac6 <_etoa+0x66>
10002eb8:	2300      	movs	r3, #0
10002eba:	9324      	str	r3, [sp, #144]	; 0x90
10002ebc:	e7ea      	b.n	10002e94 <_etoa+0x434>
10002ebe:	46c0      	nop			; (mov r8, r8)
10002ec0:	40240000 	.word	0x40240000

10002ec4 <_ftoa>:
10002ec4:	b5f0      	push	{r4, r5, r6, r7, lr}
10002ec6:	4645      	mov	r5, r8
10002ec8:	46de      	mov	lr, fp
10002eca:	464e      	mov	r6, r9
10002ecc:	4657      	mov	r7, sl
10002ece:	b5e0      	push	{r5, r6, r7, lr}
10002ed0:	b095      	sub	sp, #84	; 0x54
10002ed2:	468b      	mov	fp, r1
10002ed4:	4690      	mov	r8, r2
10002ed6:	4699      	mov	r9, r3
10002ed8:	9a1e      	ldr	r2, [sp, #120]	; 0x78
10002eda:	9b1f      	ldr	r3, [sp, #124]	; 0x7c
10002edc:	900a      	str	r0, [sp, #40]	; 0x28
10002ede:	0019      	movs	r1, r3
10002ee0:	0010      	movs	r0, r2
10002ee2:	9d20      	ldr	r5, [sp, #128]	; 0x80
10002ee4:	f001 fb2f 	bl	10004546 <__wrap___aeabi_dcmpun>
10002ee8:	2800      	cmp	r0, #0
10002eea:	d000      	beq.n	10002eee <_ftoa+0x2a>
10002eec:	e1b0      	b.n	10003250 <_ftoa+0x38c>
10002eee:	981e      	ldr	r0, [sp, #120]	; 0x78
10002ef0:	991f      	ldr	r1, [sp, #124]	; 0x7c
10002ef2:	2201      	movs	r2, #1
10002ef4:	4bc7      	ldr	r3, [pc, #796]	; (10003214 <_ftoa+0x350>)
10002ef6:	4252      	negs	r2, r2
10002ef8:	f001 fb12 	bl	10004520 <__wrap___aeabi_dcmplt>
10002efc:	2800      	cmp	r0, #0
10002efe:	d000      	beq.n	10002f02 <_ftoa+0x3e>
10002f00:	e137      	b.n	10003172 <_ftoa+0x2ae>
10002f02:	981e      	ldr	r0, [sp, #120]	; 0x78
10002f04:	991f      	ldr	r1, [sp, #124]	; 0x7c
10002f06:	2201      	movs	r2, #1
10002f08:	4bc3      	ldr	r3, [pc, #780]	; (10003218 <_ftoa+0x354>)
10002f0a:	4252      	negs	r2, r2
10002f0c:	f001 fb16 	bl	1000453c <__wrap___aeabi_dcmpgt>
10002f10:	2800      	cmp	r0, #0
10002f12:	d000      	beq.n	10002f16 <_ftoa+0x52>
10002f14:	e0a7      	b.n	10003066 <_ftoa+0x1a2>
10002f16:	981e      	ldr	r0, [sp, #120]	; 0x78
10002f18:	991f      	ldr	r1, [sp, #124]	; 0x7c
10002f1a:	2200      	movs	r2, #0
10002f1c:	4bbf      	ldr	r3, [pc, #764]	; (1000321c <_ftoa+0x358>)
10002f1e:	f001 fb0d 	bl	1000453c <__wrap___aeabi_dcmpgt>
10002f22:	2800      	cmp	r0, #0
10002f24:	d000      	beq.n	10002f28 <_ftoa+0x64>
10002f26:	e088      	b.n	1000303a <_ftoa+0x176>
10002f28:	981e      	ldr	r0, [sp, #120]	; 0x78
10002f2a:	991f      	ldr	r1, [sp, #124]	; 0x7c
10002f2c:	2200      	movs	r2, #0
10002f2e:	4bbc      	ldr	r3, [pc, #752]	; (10003220 <_ftoa+0x35c>)
10002f30:	f001 faf6 	bl	10004520 <__wrap___aeabi_dcmplt>
10002f34:	2800      	cmp	r0, #0
10002f36:	d000      	beq.n	10002f3a <_ftoa+0x76>
10002f38:	e07f      	b.n	1000303a <_ftoa+0x176>
10002f3a:	981e      	ldr	r0, [sp, #120]	; 0x78
10002f3c:	991f      	ldr	r1, [sp, #124]	; 0x7c
10002f3e:	2200      	movs	r2, #0
10002f40:	2300      	movs	r3, #0
10002f42:	f001 faed 	bl	10004520 <__wrap___aeabi_dcmplt>
10002f46:	2800      	cmp	r0, #0
10002f48:	d000      	beq.n	10002f4c <_ftoa+0x88>
10002f4a:	e0fa      	b.n	10003142 <_ftoa+0x27e>
10002f4c:	2300      	movs	r3, #0
10002f4e:	930b      	str	r3, [sp, #44]	; 0x2c
10002f50:	2380      	movs	r3, #128	; 0x80
10002f52:	9c22      	ldr	r4, [sp, #136]	; 0x88
10002f54:	9a22      	ldr	r2, [sp, #136]	; 0x88
10002f56:	00db      	lsls	r3, r3, #3
10002f58:	401c      	ands	r4, r3
10002f5a:	421a      	tst	r2, r3
10002f5c:	d100      	bne.n	10002f60 <_ftoa+0x9c>
10002f5e:	e102      	b.n	10003166 <_ftoa+0x2a2>
10002f60:	2d09      	cmp	r5, #9
10002f62:	d800      	bhi.n	10002f66 <_ftoa+0xa2>
10002f64:	e17e      	b.n	10003264 <_ftoa+0x3a0>
10002f66:	a906      	add	r1, sp, #24
10002f68:	468c      	mov	ip, r1
10002f6a:	002c      	movs	r4, r5
10002f6c:	2217      	movs	r2, #23
10002f6e:	2300      	movs	r3, #0
10002f70:	2130      	movs	r1, #48	; 0x30
10002f72:	3c09      	subs	r4, #9
10002f74:	4462      	add	r2, ip
10002f76:	3301      	adds	r3, #1
10002f78:	54d1      	strb	r1, [r2, r3]
10002f7a:	1aef      	subs	r7, r5, r3
10002f7c:	2b20      	cmp	r3, #32
10002f7e:	d100      	bne.n	10002f82 <_ftoa+0xbe>
10002f80:	e132      	b.n	100031e8 <_ftoa+0x324>
10002f82:	42a3      	cmp	r3, r4
10002f84:	d1f7      	bne.n	10002f76 <_ftoa+0xb2>
10002f86:	2200      	movs	r2, #0
10002f88:	4ba4      	ldr	r3, [pc, #656]	; (1000321c <_ftoa+0x358>)
10002f8a:	9206      	str	r2, [sp, #24]
10002f8c:	9307      	str	r3, [sp, #28]
10002f8e:	981e      	ldr	r0, [sp, #120]	; 0x78
10002f90:	991f      	ldr	r1, [sp, #124]	; 0x7c
10002f92:	f001 fb03 	bl	1000459c <__wrap___aeabi_d2iz>
10002f96:	0005      	movs	r5, r0
10002f98:	f001 fae8 	bl	1000456c <__wrap___aeabi_i2d>
10002f9c:	0002      	movs	r2, r0
10002f9e:	000b      	movs	r3, r1
10002fa0:	981e      	ldr	r0, [sp, #120]	; 0x78
10002fa2:	991f      	ldr	r1, [sp, #124]	; 0x7c
10002fa4:	f001 fa49 	bl	1000443a <__wrap___aeabi_dsub>
10002fa8:	9a06      	ldr	r2, [sp, #24]
10002faa:	9b07      	ldr	r3, [sp, #28]
10002fac:	f001 fa75 	bl	1000449a <__wrap___aeabi_dmul>
10002fb0:	9008      	str	r0, [sp, #32]
10002fb2:	9109      	str	r1, [sp, #36]	; 0x24
10002fb4:	f001 fb16 	bl	100045e4 <__wrap___aeabi_d2uiz>
10002fb8:	0006      	movs	r6, r0
10002fba:	f001 fad3 	bl	10004564 <__wrap___aeabi_ui2d>
10002fbe:	0002      	movs	r2, r0
10002fc0:	000b      	movs	r3, r1
10002fc2:	9808      	ldr	r0, [sp, #32]
10002fc4:	9909      	ldr	r1, [sp, #36]	; 0x24
10002fc6:	f001 fa38 	bl	1000443a <__wrap___aeabi_dsub>
10002fca:	2200      	movs	r2, #0
10002fcc:	4b95      	ldr	r3, [pc, #596]	; (10003224 <_ftoa+0x360>)
10002fce:	9008      	str	r0, [sp, #32]
10002fd0:	9109      	str	r1, [sp, #36]	; 0x24
10002fd2:	f001 fab3 	bl	1000453c <__wrap___aeabi_dcmpgt>
10002fd6:	2800      	cmp	r0, #0
10002fd8:	d100      	bne.n	10002fdc <_ftoa+0x118>
10002fda:	e0d2      	b.n	10003182 <_ftoa+0x2be>
10002fdc:	3601      	adds	r6, #1
10002fde:	0030      	movs	r0, r6
10002fe0:	f001 fac0 	bl	10004564 <__wrap___aeabi_ui2d>
10002fe4:	9a06      	ldr	r2, [sp, #24]
10002fe6:	9b07      	ldr	r3, [sp, #28]
10002fe8:	f001 faa0 	bl	1000452c <__wrap___aeabi_dcmpge>
10002fec:	2800      	cmp	r0, #0
10002fee:	d001      	beq.n	10002ff4 <_ftoa+0x130>
10002ff0:	2600      	movs	r6, #0
10002ff2:	3501      	adds	r5, #1
10002ff4:	46aa      	mov	sl, r5
10002ff6:	2f00      	cmp	r7, #0
10002ff8:	d000      	beq.n	10002ffc <_ftoa+0x138>
10002ffa:	e098      	b.n	1000312e <_ftoa+0x26a>
10002ffc:	0028      	movs	r0, r5
10002ffe:	f001 fab5 	bl	1000456c <__wrap___aeabi_i2d>
10003002:	0002      	movs	r2, r0
10003004:	000b      	movs	r3, r1
10003006:	981e      	ldr	r0, [sp, #120]	; 0x78
10003008:	991f      	ldr	r1, [sp, #124]	; 0x7c
1000300a:	f001 fa16 	bl	1000443a <__wrap___aeabi_dsub>
1000300e:	4b85      	ldr	r3, [pc, #532]	; (10003224 <_ftoa+0x360>)
10003010:	2200      	movs	r2, #0
10003012:	0006      	movs	r6, r0
10003014:	000f      	movs	r7, r1
10003016:	f001 fa83 	bl	10004520 <__wrap___aeabi_dcmplt>
1000301a:	ab0c      	add	r3, sp, #48	; 0x30
1000301c:	469a      	mov	sl, r3
1000301e:	2800      	cmp	r0, #0
10003020:	d145      	bne.n	100030ae <_ftoa+0x1ea>
10003022:	2200      	movs	r2, #0
10003024:	0030      	movs	r0, r6
10003026:	0039      	movs	r1, r7
10003028:	4b7e      	ldr	r3, [pc, #504]	; (10003224 <_ftoa+0x360>)
1000302a:	f001 fa87 	bl	1000453c <__wrap___aeabi_dcmpgt>
1000302e:	2800      	cmp	r0, #0
10003030:	d13d      	bne.n	100030ae <_ftoa+0x1ea>
10003032:	07eb      	lsls	r3, r5, #31
10003034:	d53b      	bpl.n	100030ae <_ftoa+0x1ea>
10003036:	3501      	adds	r5, #1
10003038:	e039      	b.n	100030ae <_ftoa+0x1ea>
1000303a:	9b22      	ldr	r3, [sp, #136]	; 0x88
1000303c:	4642      	mov	r2, r8
1000303e:	9304      	str	r3, [sp, #16]
10003040:	9b21      	ldr	r3, [sp, #132]	; 0x84
10003042:	4659      	mov	r1, fp
10003044:	9303      	str	r3, [sp, #12]
10003046:	980a      	ldr	r0, [sp, #40]	; 0x28
10003048:	9b1e      	ldr	r3, [sp, #120]	; 0x78
1000304a:	9c1f      	ldr	r4, [sp, #124]	; 0x7c
1000304c:	9502      	str	r5, [sp, #8]
1000304e:	9300      	str	r3, [sp, #0]
10003050:	9401      	str	r4, [sp, #4]
10003052:	464b      	mov	r3, r9
10003054:	f7ff fd04 	bl	10002a60 <_etoa>
10003058:	b015      	add	sp, #84	; 0x54
1000305a:	bcf0      	pop	{r4, r5, r6, r7}
1000305c:	46bb      	mov	fp, r7
1000305e:	46b2      	mov	sl, r6
10003060:	46a9      	mov	r9, r5
10003062:	46a0      	mov	r8, r4
10003064:	bdf0      	pop	{r4, r5, r6, r7, pc}
10003066:	9b22      	ldr	r3, [sp, #136]	; 0x88
10003068:	075b      	lsls	r3, r3, #29
1000306a:	d467      	bmi.n	1000313c <_ftoa+0x278>
1000306c:	2203      	movs	r2, #3
1000306e:	4b6e      	ldr	r3, [pc, #440]	; (10003228 <_ftoa+0x364>)
10003070:	9922      	ldr	r1, [sp, #136]	; 0x88
10003072:	9201      	str	r2, [sp, #4]
10003074:	9103      	str	r1, [sp, #12]
10003076:	9921      	ldr	r1, [sp, #132]	; 0x84
10003078:	9102      	str	r1, [sp, #8]
1000307a:	9300      	str	r3, [sp, #0]
1000307c:	4642      	mov	r2, r8
1000307e:	464b      	mov	r3, r9
10003080:	4659      	mov	r1, fp
10003082:	980a      	ldr	r0, [sp, #40]	; 0x28
10003084:	f7ff fb90 	bl	100027a8 <_out_rev>
10003088:	e7e6      	b.n	10003058 <_ftoa+0x194>
1000308a:	aa06      	add	r2, sp, #24
1000308c:	4694      	mov	ip, r2
1000308e:	2317      	movs	r3, #23
10003090:	0028      	movs	r0, r5
10003092:	4463      	add	r3, ip
10003094:	210a      	movs	r1, #10
10003096:	3401      	adds	r4, #1
10003098:	191e      	adds	r6, r3, r4
1000309a:	f000 ff63 	bl	10003f64 <__wrap___aeabi_idiv>
1000309e:	3130      	adds	r1, #48	; 0x30
100030a0:	0028      	movs	r0, r5
100030a2:	7031      	strb	r1, [r6, #0]
100030a4:	210a      	movs	r1, #10
100030a6:	f000 ff5d 	bl	10003f64 <__wrap___aeabi_idiv>
100030aa:	1e05      	subs	r5, r0, #0
100030ac:	d076      	beq.n	1000319c <_ftoa+0x2d8>
100030ae:	2c20      	cmp	r4, #32
100030b0:	d1eb      	bne.n	1000308a <_ftoa+0x1c6>
100030b2:	2303      	movs	r3, #3
100030b4:	9a22      	ldr	r2, [sp, #136]	; 0x88
100030b6:	4013      	ands	r3, r2
100030b8:	2b01      	cmp	r3, #1
100030ba:	d11d      	bne.n	100030f8 <_ftoa+0x234>
100030bc:	9b21      	ldr	r3, [sp, #132]	; 0x84
100030be:	2b00      	cmp	r3, #0
100030c0:	d01a      	beq.n	100030f8 <_ftoa+0x234>
100030c2:	9b0b      	ldr	r3, [sp, #44]	; 0x2c
100030c4:	2b00      	cmp	r3, #0
100030c6:	d000      	beq.n	100030ca <_ftoa+0x206>
100030c8:	e0bb      	b.n	10003242 <_ftoa+0x37e>
100030ca:	9a22      	ldr	r2, [sp, #136]	; 0x88
100030cc:	330c      	adds	r3, #12
100030ce:	4213      	tst	r3, r2
100030d0:	d000      	beq.n	100030d4 <_ftoa+0x210>
100030d2:	e0b6      	b.n	10003242 <_ftoa+0x37e>
100030d4:	9b21      	ldr	r3, [sp, #132]	; 0x84
100030d6:	42a3      	cmp	r3, r4
100030d8:	d800      	bhi.n	100030dc <_ftoa+0x218>
100030da:	e087      	b.n	100031ec <_ftoa+0x328>
100030dc:	ab06      	add	r3, sp, #24
100030de:	469c      	mov	ip, r3
100030e0:	2217      	movs	r2, #23
100030e2:	2330      	movs	r3, #48	; 0x30
100030e4:	4462      	add	r2, ip
100030e6:	e004      	b.n	100030f2 <_ftoa+0x22e>
100030e8:	9921      	ldr	r1, [sp, #132]	; 0x84
100030ea:	3401      	adds	r4, #1
100030ec:	5513      	strb	r3, [r2, r4]
100030ee:	428c      	cmp	r4, r1
100030f0:	d059      	beq.n	100031a6 <_ftoa+0x2e2>
100030f2:	2c20      	cmp	r4, #32
100030f4:	d1f8      	bne.n	100030e8 <_ftoa+0x224>
100030f6:	2420      	movs	r4, #32
100030f8:	9b22      	ldr	r3, [sp, #136]	; 0x88
100030fa:	9401      	str	r4, [sp, #4]
100030fc:	9303      	str	r3, [sp, #12]
100030fe:	9b21      	ldr	r3, [sp, #132]	; 0x84
10003100:	9302      	str	r3, [sp, #8]
10003102:	4653      	mov	r3, sl
10003104:	e7b9      	b.n	1000307a <_ftoa+0x1b6>
10003106:	aa06      	add	r2, sp, #24
10003108:	4694      	mov	ip, r2
1000310a:	2317      	movs	r3, #23
1000310c:	210a      	movs	r1, #10
1000310e:	4463      	add	r3, ip
10003110:	0030      	movs	r0, r6
10003112:	3401      	adds	r4, #1
10003114:	191d      	adds	r5, r3, r4
10003116:	f000 ff4d 	bl	10003fb4 <__wrap___aeabi_uidiv>
1000311a:	3130      	adds	r1, #48	; 0x30
1000311c:	7029      	strb	r1, [r5, #0]
1000311e:	0030      	movs	r0, r6
10003120:	210a      	movs	r1, #10
10003122:	3f01      	subs	r7, #1
10003124:	f000 ff46 	bl	10003fb4 <__wrap___aeabi_uidiv>
10003128:	2e09      	cmp	r6, #9
1000312a:	d946      	bls.n	100031ba <_ftoa+0x2f6>
1000312c:	0006      	movs	r6, r0
1000312e:	2c20      	cmp	r4, #32
10003130:	d1e9      	bne.n	10003106 <_ftoa+0x242>
10003132:	4655      	mov	r5, sl
10003134:	ab0c      	add	r3, sp, #48	; 0x30
10003136:	2420      	movs	r4, #32
10003138:	469a      	mov	sl, r3
1000313a:	e7b8      	b.n	100030ae <_ftoa+0x1ea>
1000313c:	2204      	movs	r2, #4
1000313e:	4b3b      	ldr	r3, [pc, #236]	; (1000322c <_ftoa+0x368>)
10003140:	e796      	b.n	10003070 <_ftoa+0x1ac>
10003142:	9a1e      	ldr	r2, [sp, #120]	; 0x78
10003144:	9b1f      	ldr	r3, [sp, #124]	; 0x7c
10003146:	2000      	movs	r0, #0
10003148:	2100      	movs	r1, #0
1000314a:	f001 f976 	bl	1000443a <__wrap___aeabi_dsub>
1000314e:	2301      	movs	r3, #1
10003150:	930b      	str	r3, [sp, #44]	; 0x2c
10003152:	2380      	movs	r3, #128	; 0x80
10003154:	9c22      	ldr	r4, [sp, #136]	; 0x88
10003156:	9a22      	ldr	r2, [sp, #136]	; 0x88
10003158:	00db      	lsls	r3, r3, #3
1000315a:	901e      	str	r0, [sp, #120]	; 0x78
1000315c:	911f      	str	r1, [sp, #124]	; 0x7c
1000315e:	401c      	ands	r4, r3
10003160:	421a      	tst	r2, r3
10003162:	d000      	beq.n	10003166 <_ftoa+0x2a2>
10003164:	e6fc      	b.n	10002f60 <_ftoa+0x9c>
10003166:	2200      	movs	r2, #0
10003168:	4b31      	ldr	r3, [pc, #196]	; (10003230 <_ftoa+0x36c>)
1000316a:	2706      	movs	r7, #6
1000316c:	9206      	str	r2, [sp, #24]
1000316e:	9307      	str	r3, [sp, #28]
10003170:	e70d      	b.n	10002f8e <_ftoa+0xca>
10003172:	9b22      	ldr	r3, [sp, #136]	; 0x88
10003174:	9303      	str	r3, [sp, #12]
10003176:	9b21      	ldr	r3, [sp, #132]	; 0x84
10003178:	9302      	str	r3, [sp, #8]
1000317a:	2304      	movs	r3, #4
1000317c:	9301      	str	r3, [sp, #4]
1000317e:	4b2d      	ldr	r3, [pc, #180]	; (10003234 <_ftoa+0x370>)
10003180:	e77b      	b.n	1000307a <_ftoa+0x1b6>
10003182:	2200      	movs	r2, #0
10003184:	9808      	ldr	r0, [sp, #32]
10003186:	9909      	ldr	r1, [sp, #36]	; 0x24
10003188:	4b26      	ldr	r3, [pc, #152]	; (10003224 <_ftoa+0x360>)
1000318a:	f001 f9c9 	bl	10004520 <__wrap___aeabi_dcmplt>
1000318e:	2800      	cmp	r0, #0
10003190:	d000      	beq.n	10003194 <_ftoa+0x2d0>
10003192:	e72f      	b.n	10002ff4 <_ftoa+0x130>
10003194:	2e00      	cmp	r6, #0
10003196:	d14f      	bne.n	10003238 <_ftoa+0x374>
10003198:	3601      	adds	r6, #1
1000319a:	e72b      	b.n	10002ff4 <_ftoa+0x130>
1000319c:	2303      	movs	r3, #3
1000319e:	9a22      	ldr	r2, [sp, #136]	; 0x88
100031a0:	4013      	ands	r3, r2
100031a2:	2b01      	cmp	r3, #1
100031a4:	d068      	beq.n	10003278 <_ftoa+0x3b4>
100031a6:	2c20      	cmp	r4, #32
100031a8:	d0a6      	beq.n	100030f8 <_ftoa+0x234>
100031aa:	9b0b      	ldr	r3, [sp, #44]	; 0x2c
100031ac:	2b00      	cmp	r3, #0
100031ae:	d01f      	beq.n	100031f0 <_ftoa+0x32c>
100031b0:	232d      	movs	r3, #45	; 0x2d
100031b2:	4652      	mov	r2, sl
100031b4:	5513      	strb	r3, [r2, r4]
100031b6:	3401      	adds	r4, #1
100031b8:	e79e      	b.n	100030f8 <_ftoa+0x234>
100031ba:	4655      	mov	r5, sl
100031bc:	2c20      	cmp	r4, #32
100031be:	d0b9      	beq.n	10003134 <_ftoa+0x270>
100031c0:	2230      	movs	r2, #48	; 0x30
100031c2:	193b      	adds	r3, r7, r4
100031c4:	2f00      	cmp	r7, #0
100031c6:	d04b      	beq.n	10003260 <_ftoa+0x39c>
100031c8:	2017      	movs	r0, #23
100031ca:	a906      	add	r1, sp, #24
100031cc:	3401      	adds	r4, #1
100031ce:	1809      	adds	r1, r1, r0
100031d0:	550a      	strb	r2, [r1, r4]
100031d2:	2c20      	cmp	r4, #32
100031d4:	d0ae      	beq.n	10003134 <_ftoa+0x270>
100031d6:	429c      	cmp	r4, r3
100031d8:	d1f6      	bne.n	100031c8 <_ftoa+0x304>
100031da:	aa0c      	add	r2, sp, #48	; 0x30
100031dc:	4692      	mov	sl, r2
100031de:	222e      	movs	r2, #46	; 0x2e
100031e0:	4651      	mov	r1, sl
100031e2:	1c5c      	adds	r4, r3, #1
100031e4:	54ca      	strb	r2, [r1, r3]
100031e6:	e762      	b.n	100030ae <_ftoa+0x1ea>
100031e8:	2420      	movs	r4, #32
100031ea:	e6cc      	b.n	10002f86 <_ftoa+0xc2>
100031ec:	2c20      	cmp	r4, #32
100031ee:	d083      	beq.n	100030f8 <_ftoa+0x234>
100031f0:	9b22      	ldr	r3, [sp, #136]	; 0x88
100031f2:	075b      	lsls	r3, r3, #29
100031f4:	d408      	bmi.n	10003208 <_ftoa+0x344>
100031f6:	9b22      	ldr	r3, [sp, #136]	; 0x88
100031f8:	071b      	lsls	r3, r3, #28
100031fa:	d400      	bmi.n	100031fe <_ftoa+0x33a>
100031fc:	e77c      	b.n	100030f8 <_ftoa+0x234>
100031fe:	2320      	movs	r3, #32
10003200:	4652      	mov	r2, sl
10003202:	5513      	strb	r3, [r2, r4]
10003204:	3401      	adds	r4, #1
10003206:	e777      	b.n	100030f8 <_ftoa+0x234>
10003208:	232b      	movs	r3, #43	; 0x2b
1000320a:	4652      	mov	r2, sl
1000320c:	5513      	strb	r3, [r2, r4]
1000320e:	3401      	adds	r4, #1
10003210:	e772      	b.n	100030f8 <_ftoa+0x234>
10003212:	46c0      	nop			; (mov r8, r8)
10003214:	ffefffff 	.word	0xffefffff
10003218:	7fefffff 	.word	0x7fefffff
1000321c:	41cdcd65 	.word	0x41cdcd65
10003220:	c1cdcd65 	.word	0xc1cdcd65
10003224:	3fe00000 	.word	0x3fe00000
10003228:	10008710 	.word	0x10008710
1000322c:	10008708 	.word	0x10008708
10003230:	412e8480 	.word	0x412e8480
10003234:	10008718 	.word	0x10008718
10003238:	07f3      	lsls	r3, r6, #31
1000323a:	d400      	bmi.n	1000323e <_ftoa+0x37a>
1000323c:	e6da      	b.n	10002ff4 <_ftoa+0x130>
1000323e:	3601      	adds	r6, #1
10003240:	e6d8      	b.n	10002ff4 <_ftoa+0x130>
10003242:	9b21      	ldr	r3, [sp, #132]	; 0x84
10003244:	3b01      	subs	r3, #1
10003246:	9321      	str	r3, [sp, #132]	; 0x84
10003248:	42a3      	cmp	r3, r4
1000324a:	d900      	bls.n	1000324e <_ftoa+0x38a>
1000324c:	e746      	b.n	100030dc <_ftoa+0x218>
1000324e:	e7aa      	b.n	100031a6 <_ftoa+0x2e2>
10003250:	9b22      	ldr	r3, [sp, #136]	; 0x88
10003252:	9303      	str	r3, [sp, #12]
10003254:	9b21      	ldr	r3, [sp, #132]	; 0x84
10003256:	9302      	str	r3, [sp, #8]
10003258:	2303      	movs	r3, #3
1000325a:	9301      	str	r3, [sp, #4]
1000325c:	4b08      	ldr	r3, [pc, #32]	; (10003280 <_ftoa+0x3bc>)
1000325e:	e70c      	b.n	1000307a <_ftoa+0x1b6>
10003260:	0023      	movs	r3, r4
10003262:	e7ba      	b.n	100031da <_ftoa+0x316>
10003264:	4b07      	ldr	r3, [pc, #28]	; (10003284 <_ftoa+0x3c0>)
10003266:	00ea      	lsls	r2, r5, #3
10003268:	189b      	adds	r3, r3, r2
1000326a:	685c      	ldr	r4, [r3, #4]
1000326c:	681b      	ldr	r3, [r3, #0]
1000326e:	002f      	movs	r7, r5
10003270:	9306      	str	r3, [sp, #24]
10003272:	9407      	str	r4, [sp, #28]
10003274:	2400      	movs	r4, #0
10003276:	e68a      	b.n	10002f8e <_ftoa+0xca>
10003278:	9b21      	ldr	r3, [sp, #132]	; 0x84
1000327a:	2b00      	cmp	r3, #0
1000327c:	d093      	beq.n	100031a6 <_ftoa+0x2e2>
1000327e:	e720      	b.n	100030c2 <_ftoa+0x1fe>
10003280:	10008714 	.word	0x10008714
10003284:	100088c0 	.word	0x100088c0

10003288 <_vsnprintf>:
10003288:	b5f0      	push	{r4, r5, r6, r7, lr}
1000328a:	4645      	mov	r5, r8
1000328c:	46de      	mov	lr, fp
1000328e:	4657      	mov	r7, sl
10003290:	464e      	mov	r6, r9
10003292:	b5e0      	push	{r5, r6, r7, lr}
10003294:	b0a1      	sub	sp, #132	; 0x84
10003296:	001d      	movs	r5, r3
10003298:	9b2a      	ldr	r3, [sp, #168]	; 0xa8
1000329a:	4690      	mov	r8, r2
1000329c:	930b      	str	r3, [sp, #44]	; 0x2c
1000329e:	4ad0      	ldr	r2, [pc, #832]	; (100035e0 <_vsnprintf+0x358>)
100032a0:	4bd0      	ldr	r3, [pc, #832]	; (100035e4 <_vsnprintf+0x35c>)
100032a2:	4683      	mov	fp, r0
100032a4:	468a      	mov	sl, r1
100032a6:	601a      	str	r2, [r3, #0]
100032a8:	2900      	cmp	r1, #0
100032aa:	d100      	bne.n	100032ae <_vsnprintf+0x26>
100032ac:	e1a4      	b.n	100035f8 <_vsnprintf+0x370>
100032ae:	2300      	movs	r3, #0
100032b0:	7828      	ldrb	r0, [r5, #0]
100032b2:	4699      	mov	r9, r3
100032b4:	2800      	cmp	r0, #0
100032b6:	d100      	bne.n	100032ba <_vsnprintf+0x32>
100032b8:	e1a6      	b.n	10003608 <_vsnprintf+0x380>
100032ba:	4bcb      	ldr	r3, [pc, #812]	; (100035e8 <_vsnprintf+0x360>)
100032bc:	465e      	mov	r6, fp
100032be:	9309      	str	r3, [sp, #36]	; 0x24
100032c0:	4bca      	ldr	r3, [pc, #808]	; (100035ec <_vsnprintf+0x364>)
100032c2:	464c      	mov	r4, r9
100032c4:	46d3      	mov	fp, sl
100032c6:	4647      	mov	r7, r8
100032c8:	930d      	str	r3, [sp, #52]	; 0x34
100032ca:	e00a      	b.n	100032e2 <_vsnprintf+0x5a>
100032cc:	1c63      	adds	r3, r4, #1
100032ce:	4698      	mov	r8, r3
100032d0:	0022      	movs	r2, r4
100032d2:	003b      	movs	r3, r7
100032d4:	4659      	mov	r1, fp
100032d6:	47b0      	blx	r6
100032d8:	4644      	mov	r4, r8
100032da:	7828      	ldrb	r0, [r5, #0]
100032dc:	2800      	cmp	r0, #0
100032de:	d100      	bne.n	100032e2 <_vsnprintf+0x5a>
100032e0:	e0cd      	b.n	1000347e <_vsnprintf+0x1f6>
100032e2:	3501      	adds	r5, #1
100032e4:	2825      	cmp	r0, #37	; 0x25
100032e6:	d1f1      	bne.n	100032cc <_vsnprintf+0x44>
100032e8:	2308      	movs	r3, #8
100032ea:	469a      	mov	sl, r3
100032ec:	3b04      	subs	r3, #4
100032ee:	4699      	mov	r9, r3
100032f0:	3b02      	subs	r3, #2
100032f2:	4698      	mov	r8, r3
100032f4:	3b01      	subs	r3, #1
100032f6:	2200      	movs	r2, #0
100032f8:	469c      	mov	ip, r3
100032fa:	940c      	str	r4, [sp, #48]	; 0x30
100032fc:	7828      	ldrb	r0, [r5, #0]
100032fe:	1c69      	adds	r1, r5, #1
10003300:	0003      	movs	r3, r0
10003302:	3b20      	subs	r3, #32
10003304:	b2db      	uxtb	r3, r3
10003306:	2b10      	cmp	r3, #16
10003308:	d803      	bhi.n	10003312 <_vsnprintf+0x8a>
1000330a:	9c09      	ldr	r4, [sp, #36]	; 0x24
1000330c:	009b      	lsls	r3, r3, #2
1000330e:	58e3      	ldr	r3, [r4, r3]
10003310:	469f      	mov	pc, r3
10003312:	0003      	movs	r3, r0
10003314:	3b30      	subs	r3, #48	; 0x30
10003316:	9c0c      	ldr	r4, [sp, #48]	; 0x30
10003318:	920a      	str	r2, [sp, #40]	; 0x28
1000331a:	2b09      	cmp	r3, #9
1000331c:	d97f      	bls.n	1000341e <_vsnprintf+0x196>
1000331e:	2300      	movs	r3, #0
10003320:	4698      	mov	r8, r3
10003322:	282a      	cmp	r0, #42	; 0x2a
10003324:	d100      	bne.n	10003328 <_vsnprintf+0xa0>
10003326:	e0c1      	b.n	100034ac <_vsnprintf+0x224>
10003328:	2300      	movs	r3, #0
1000332a:	469a      	mov	sl, r3
1000332c:	282e      	cmp	r0, #46	; 0x2e
1000332e:	d100      	bne.n	10003332 <_vsnprintf+0xaa>
10003330:	e090      	b.n	10003454 <_vsnprintf+0x1cc>
10003332:	0003      	movs	r3, r0
10003334:	3b68      	subs	r3, #104	; 0x68
10003336:	b2db      	uxtb	r3, r3
10003338:	2b12      	cmp	r3, #18
1000333a:	d81e      	bhi.n	1000337a <_vsnprintf+0xf2>
1000333c:	4aac      	ldr	r2, [pc, #688]	; (100035f0 <_vsnprintf+0x368>)
1000333e:	009b      	lsls	r3, r3, #2
10003340:	58d3      	ldr	r3, [r2, r3]
10003342:	469f      	mov	pc, r3
10003344:	4663      	mov	r3, ip
10003346:	000d      	movs	r5, r1
10003348:	431a      	orrs	r2, r3
1000334a:	e7d7      	b.n	100032fc <_vsnprintf+0x74>
1000334c:	4643      	mov	r3, r8
1000334e:	000d      	movs	r5, r1
10003350:	431a      	orrs	r2, r3
10003352:	e7d3      	b.n	100032fc <_vsnprintf+0x74>
10003354:	464b      	mov	r3, r9
10003356:	000d      	movs	r5, r1
10003358:	431a      	orrs	r2, r3
1000335a:	e7cf      	b.n	100032fc <_vsnprintf+0x74>
1000335c:	2310      	movs	r3, #16
1000335e:	000d      	movs	r5, r1
10003360:	431a      	orrs	r2, r3
10003362:	e7cb      	b.n	100032fc <_vsnprintf+0x74>
10003364:	4653      	mov	r3, sl
10003366:	000d      	movs	r5, r1
10003368:	431a      	orrs	r2, r3
1000336a:	e7c7      	b.n	100032fc <_vsnprintf+0x74>
1000336c:	2380      	movs	r3, #128	; 0x80
1000336e:	005b      	lsls	r3, r3, #1
10003370:	9a0a      	ldr	r2, [sp, #40]	; 0x28
10003372:	7868      	ldrb	r0, [r5, #1]
10003374:	431a      	orrs	r2, r3
10003376:	920a      	str	r2, [sp, #40]	; 0x28
10003378:	3101      	adds	r1, #1
1000337a:	000d      	movs	r5, r1
1000337c:	2867      	cmp	r0, #103	; 0x67
1000337e:	d80a      	bhi.n	10003396 <_vsnprintf+0x10e>
10003380:	2824      	cmp	r0, #36	; 0x24
10003382:	d9a3      	bls.n	100032cc <_vsnprintf+0x44>
10003384:	0003      	movs	r3, r0
10003386:	3b25      	subs	r3, #37	; 0x25
10003388:	b2db      	uxtb	r3, r3
1000338a:	2b42      	cmp	r3, #66	; 0x42
1000338c:	d89e      	bhi.n	100032cc <_vsnprintf+0x44>
1000338e:	9a0d      	ldr	r2, [sp, #52]	; 0x34
10003390:	009b      	lsls	r3, r3, #2
10003392:	58d3      	ldr	r3, [r2, r3]
10003394:	469f      	mov	pc, r3
10003396:	0001      	movs	r1, r0
10003398:	3969      	subs	r1, #105	; 0x69
1000339a:	b2c9      	uxtb	r1, r1
1000339c:	290f      	cmp	r1, #15
1000339e:	d895      	bhi.n	100032cc <_vsnprintf+0x44>
100033a0:	2301      	movs	r3, #1
100033a2:	408b      	lsls	r3, r1
100033a4:	469c      	mov	ip, r3
100033a6:	4b93      	ldr	r3, [pc, #588]	; (100035f4 <_vsnprintf+0x36c>)
100033a8:	4699      	mov	r9, r3
100033aa:	4663      	mov	r3, ip
100033ac:	464a      	mov	r2, r9
100033ae:	4013      	ands	r3, r2
100033b0:	930c      	str	r3, [sp, #48]	; 0x30
100033b2:	4662      	mov	r2, ip
100033b4:	464b      	mov	r3, r9
100033b6:	421a      	tst	r2, r3
100033b8:	d000      	beq.n	100033bc <_vsnprintf+0x134>
100033ba:	e25e      	b.n	1000387a <_vsnprintf+0x5f2>
100033bc:	290a      	cmp	r1, #10
100033be:	d100      	bne.n	100033c2 <_vsnprintf+0x13a>
100033c0:	e124      	b.n	1000360c <_vsnprintf+0x384>
100033c2:	2907      	cmp	r1, #7
100033c4:	d182      	bne.n	100032cc <_vsnprintf+0x44>
100033c6:	9b0b      	ldr	r3, [sp, #44]	; 0x2c
100033c8:	cb02      	ldmia	r3!, {r1}
100033ca:	4698      	mov	r8, r3
100033cc:	2900      	cmp	r1, #0
100033ce:	d100      	bne.n	100033d2 <_vsnprintf+0x14a>
100033d0:	e19b      	b.n	1000370a <_vsnprintf+0x482>
100033d2:	2021      	movs	r0, #33	; 0x21
100033d4:	9a0a      	ldr	r2, [sp, #40]	; 0x28
100033d6:	4302      	orrs	r2, r0
100033d8:	4691      	mov	r9, r2
100033da:	ab10      	add	r3, sp, #64	; 0x40
100033dc:	469c      	mov	ip, r3
100033de:	221f      	movs	r2, #31
100033e0:	230f      	movs	r3, #15
100033e2:	4640      	mov	r0, r8
100033e4:	4462      	add	r2, ip
100033e6:	950b      	str	r5, [sp, #44]	; 0x2c
100033e8:	469c      	mov	ip, r3
100033ea:	46a0      	mov	r8, r4
100033ec:	0015      	movs	r5, r2
100033ee:	9b0c      	ldr	r3, [sp, #48]	; 0x30
100033f0:	900a      	str	r0, [sp, #40]	; 0x28
100033f2:	e002      	b.n	100033fa <_vsnprintf+0x172>
100033f4:	2b20      	cmp	r3, #32
100033f6:	d00c      	beq.n	10003412 <_vsnprintf+0x18a>
100033f8:	0011      	movs	r1, r2
100033fa:	4664      	mov	r4, ip
100033fc:	400c      	ands	r4, r1
100033fe:	0020      	movs	r0, r4
10003400:	3037      	adds	r0, #55	; 0x37
10003402:	2c09      	cmp	r4, #9
10003404:	d800      	bhi.n	10003408 <_vsnprintf+0x180>
10003406:	3807      	subs	r0, #7
10003408:	3301      	adds	r3, #1
1000340a:	54e8      	strb	r0, [r5, r3]
1000340c:	090a      	lsrs	r2, r1, #4
1000340e:	290f      	cmp	r1, #15
10003410:	d8f0      	bhi.n	100033f4 <_vsnprintf+0x16c>
10003412:	930c      	str	r3, [sp, #48]	; 0x30
10003414:	9b0a      	ldr	r3, [sp, #40]	; 0x28
10003416:	4644      	mov	r4, r8
10003418:	9d0b      	ldr	r5, [sp, #44]	; 0x2c
1000341a:	4698      	mov	r8, r3
1000341c:	e185      	b.n	1000372a <_vsnprintf+0x4a2>
1000341e:	2300      	movs	r3, #0
10003420:	4698      	mov	r8, r3
10003422:	9b0a      	ldr	r3, [sp, #40]	; 0x28
10003424:	4645      	mov	r5, r8
10003426:	469c      	mov	ip, r3
10003428:	e000      	b.n	1000342c <_vsnprintf+0x1a4>
1000342a:	3101      	adds	r1, #1
1000342c:	00ab      	lsls	r3, r5, #2
1000342e:	195b      	adds	r3, r3, r5
10003430:	005b      	lsls	r3, r3, #1
10003432:	181d      	adds	r5, r3, r0
10003434:	7808      	ldrb	r0, [r1, #0]
10003436:	3d30      	subs	r5, #48	; 0x30
10003438:	0003      	movs	r3, r0
1000343a:	3b30      	subs	r3, #48	; 0x30
1000343c:	2b09      	cmp	r3, #9
1000343e:	d9f4      	bls.n	1000342a <_vsnprintf+0x1a2>
10003440:	4663      	mov	r3, ip
10003442:	930a      	str	r3, [sp, #40]	; 0x28
10003444:	2300      	movs	r3, #0
10003446:	46a8      	mov	r8, r5
10003448:	469a      	mov	sl, r3
1000344a:	000d      	movs	r5, r1
1000344c:	3101      	adds	r1, #1
1000344e:	282e      	cmp	r0, #46	; 0x2e
10003450:	d000      	beq.n	10003454 <_vsnprintf+0x1cc>
10003452:	e76e      	b.n	10003332 <_vsnprintf+0xaa>
10003454:	2080      	movs	r0, #128	; 0x80
10003456:	9a0a      	ldr	r2, [sp, #40]	; 0x28
10003458:	00c0      	lsls	r0, r0, #3
1000345a:	4302      	orrs	r2, r0
1000345c:	920a      	str	r2, [sp, #40]	; 0x28
1000345e:	2230      	movs	r2, #48	; 0x30
10003460:	4252      	negs	r2, r2
10003462:	4694      	mov	ip, r2
10003464:	7868      	ldrb	r0, [r5, #1]
10003466:	000b      	movs	r3, r1
10003468:	4484      	add	ip, r0
1000346a:	4662      	mov	r2, ip
1000346c:	2a09      	cmp	r2, #9
1000346e:	d800      	bhi.n	10003472 <_vsnprintf+0x1ea>
10003470:	e12e      	b.n	100036d0 <_vsnprintf+0x448>
10003472:	282a      	cmp	r0, #42	; 0x2a
10003474:	d100      	bne.n	10003478 <_vsnprintf+0x1f0>
10003476:	e13d      	b.n	100036f4 <_vsnprintf+0x46c>
10003478:	000d      	movs	r5, r1
1000347a:	3101      	adds	r1, #1
1000347c:	e759      	b.n	10003332 <_vsnprintf+0xaa>
1000347e:	46da      	mov	sl, fp
10003480:	46a1      	mov	r9, r4
10003482:	46b3      	mov	fp, r6
10003484:	46b8      	mov	r8, r7
10003486:	45c8      	cmp	r8, r9
10003488:	d803      	bhi.n	10003492 <_vsnprintf+0x20a>
1000348a:	2301      	movs	r3, #1
1000348c:	425b      	negs	r3, r3
1000348e:	4443      	add	r3, r8
10003490:	4699      	mov	r9, r3
10003492:	4643      	mov	r3, r8
10003494:	464a      	mov	r2, r9
10003496:	4651      	mov	r1, sl
10003498:	2000      	movs	r0, #0
1000349a:	47d8      	blx	fp
1000349c:	0020      	movs	r0, r4
1000349e:	b021      	add	sp, #132	; 0x84
100034a0:	bcf0      	pop	{r4, r5, r6, r7}
100034a2:	46bb      	mov	fp, r7
100034a4:	46b2      	mov	sl, r6
100034a6:	46a9      	mov	r9, r5
100034a8:	46a0      	mov	r8, r4
100034aa:	bdf0      	pop	{r4, r5, r6, r7, pc}
100034ac:	9b0b      	ldr	r3, [sp, #44]	; 0x2c
100034ae:	cb04      	ldmia	r3!, {r2}
100034b0:	4690      	mov	r8, r2
100034b2:	2a00      	cmp	r2, #0
100034b4:	db04      	blt.n	100034c0 <_vsnprintf+0x238>
100034b6:	7868      	ldrb	r0, [r5, #1]
100034b8:	930b      	str	r3, [sp, #44]	; 0x2c
100034ba:	000d      	movs	r5, r1
100034bc:	3101      	adds	r1, #1
100034be:	e733      	b.n	10003328 <_vsnprintf+0xa0>
100034c0:	9a0a      	ldr	r2, [sp, #40]	; 0x28
100034c2:	3828      	subs	r0, #40	; 0x28
100034c4:	4302      	orrs	r2, r0
100034c6:	920a      	str	r2, [sp, #40]	; 0x28
100034c8:	4642      	mov	r2, r8
100034ca:	4252      	negs	r2, r2
100034cc:	7868      	ldrb	r0, [r5, #1]
100034ce:	4690      	mov	r8, r2
100034d0:	000d      	movs	r5, r1
100034d2:	930b      	str	r3, [sp, #44]	; 0x2c
100034d4:	3101      	adds	r1, #1
100034d6:	e727      	b.n	10003328 <_vsnprintf+0xa0>
100034d8:	2867      	cmp	r0, #103	; 0x67
100034da:	d100      	bne.n	100034de <_vsnprintf+0x256>
100034dc:	e1c7      	b.n	1000386e <_vsnprintf+0x5e6>
100034de:	2847      	cmp	r0, #71	; 0x47
100034e0:	d100      	bne.n	100034e4 <_vsnprintf+0x25c>
100034e2:	e214      	b.n	1000390e <_vsnprintf+0x686>
100034e4:	2845      	cmp	r0, #69	; 0x45
100034e6:	d100      	bne.n	100034ea <_vsnprintf+0x262>
100034e8:	e216      	b.n	10003918 <_vsnprintf+0x690>
100034ea:	9a0a      	ldr	r2, [sp, #40]	; 0x28
100034ec:	2107      	movs	r1, #7
100034ee:	9204      	str	r2, [sp, #16]
100034f0:	4642      	mov	r2, r8
100034f2:	9b0b      	ldr	r3, [sp, #44]	; 0x2c
100034f4:	9203      	str	r2, [sp, #12]
100034f6:	3307      	adds	r3, #7
100034f8:	4652      	mov	r2, sl
100034fa:	438b      	bics	r3, r1
100034fc:	0019      	movs	r1, r3
100034fe:	9202      	str	r2, [sp, #8]
10003500:	c90c      	ldmia	r1!, {r2, r3}
10003502:	0030      	movs	r0, r6
10003504:	9200      	str	r2, [sp, #0]
10003506:	9301      	str	r3, [sp, #4]
10003508:	910b      	str	r1, [sp, #44]	; 0x2c
1000350a:	0022      	movs	r2, r4
1000350c:	003b      	movs	r3, r7
1000350e:	4659      	mov	r1, fp
10003510:	f7ff faa6 	bl	10002a60 <_etoa>
10003514:	0004      	movs	r4, r0
10003516:	e6e0      	b.n	100032da <_vsnprintf+0x52>
10003518:	2380      	movs	r3, #128	; 0x80
1000351a:	009b      	lsls	r3, r3, #2
1000351c:	e728      	b.n	10003370 <_vsnprintf+0xe8>
1000351e:	7868      	ldrb	r0, [r5, #1]
10003520:	2868      	cmp	r0, #104	; 0x68
10003522:	d100      	bne.n	10003526 <_vsnprintf+0x29e>
10003524:	e21b      	b.n	1000395e <_vsnprintf+0x6d6>
10003526:	2380      	movs	r3, #128	; 0x80
10003528:	9a0a      	ldr	r2, [sp, #40]	; 0x28
1000352a:	3101      	adds	r1, #1
1000352c:	431a      	orrs	r2, r3
1000352e:	920a      	str	r2, [sp, #40]	; 0x28
10003530:	e723      	b.n	1000337a <_vsnprintf+0xf2>
10003532:	7868      	ldrb	r0, [r5, #1]
10003534:	286c      	cmp	r0, #108	; 0x6c
10003536:	d100      	bne.n	1000353a <_vsnprintf+0x2b2>
10003538:	e209      	b.n	1000394e <_vsnprintf+0x6c6>
1000353a:	2380      	movs	r3, #128	; 0x80
1000353c:	9a0a      	ldr	r2, [sp, #40]	; 0x28
1000353e:	005b      	lsls	r3, r3, #1
10003540:	431a      	orrs	r2, r3
10003542:	920a      	str	r2, [sp, #40]	; 0x28
10003544:	3101      	adds	r1, #1
10003546:	e718      	b.n	1000337a <_vsnprintf+0xf2>
10003548:	2846      	cmp	r0, #70	; 0x46
1000354a:	d100      	bne.n	1000354e <_vsnprintf+0x2c6>
1000354c:	e18a      	b.n	10003864 <_vsnprintf+0x5dc>
1000354e:	9a0a      	ldr	r2, [sp, #40]	; 0x28
10003550:	2107      	movs	r1, #7
10003552:	9204      	str	r2, [sp, #16]
10003554:	4642      	mov	r2, r8
10003556:	9b0b      	ldr	r3, [sp, #44]	; 0x2c
10003558:	9203      	str	r2, [sp, #12]
1000355a:	3307      	adds	r3, #7
1000355c:	4652      	mov	r2, sl
1000355e:	438b      	bics	r3, r1
10003560:	0019      	movs	r1, r3
10003562:	9202      	str	r2, [sp, #8]
10003564:	c90c      	ldmia	r1!, {r2, r3}
10003566:	0030      	movs	r0, r6
10003568:	9200      	str	r2, [sp, #0]
1000356a:	9301      	str	r3, [sp, #4]
1000356c:	910b      	str	r1, [sp, #44]	; 0x2c
1000356e:	0022      	movs	r2, r4
10003570:	003b      	movs	r3, r7
10003572:	4659      	mov	r1, fp
10003574:	f7ff fca6 	bl	10002ec4 <_ftoa>
10003578:	0004      	movs	r4, r0
1000357a:	e6ae      	b.n	100032da <_vsnprintf+0x52>
1000357c:	1c63      	adds	r3, r4, #1
1000357e:	4698      	mov	r8, r3
10003580:	0022      	movs	r2, r4
10003582:	003b      	movs	r3, r7
10003584:	4659      	mov	r1, fp
10003586:	2025      	movs	r0, #37	; 0x25
10003588:	47b0      	blx	r6
1000358a:	4644      	mov	r4, r8
1000358c:	e6a5      	b.n	100032da <_vsnprintf+0x52>
1000358e:	9b0b      	ldr	r3, [sp, #44]	; 0x2c
10003590:	3304      	adds	r3, #4
10003592:	930c      	str	r3, [sp, #48]	; 0x30
10003594:	1c63      	adds	r3, r4, #1
10003596:	4699      	mov	r9, r3
10003598:	9b0a      	ldr	r3, [sp, #40]	; 0x28
1000359a:	079a      	lsls	r2, r3, #30
1000359c:	d400      	bmi.n	100035a0 <_vsnprintf+0x318>
1000359e:	e1e7      	b.n	10003970 <_vsnprintf+0x6e8>
100035a0:	9b0b      	ldr	r3, [sp, #44]	; 0x2c
100035a2:	0022      	movs	r2, r4
100035a4:	7818      	ldrb	r0, [r3, #0]
100035a6:	4659      	mov	r1, fp
100035a8:	003b      	movs	r3, r7
100035aa:	47b0      	blx	r6
100035ac:	4643      	mov	r3, r8
100035ae:	4444      	add	r4, r8
100035b0:	2b01      	cmp	r3, #1
100035b2:	d800      	bhi.n	100035b6 <_vsnprintf+0x32e>
100035b4:	e2b8      	b.n	10003b28 <_vsnprintf+0x8a0>
100035b6:	002b      	movs	r3, r5
100035b8:	46b8      	mov	r8, r7
100035ba:	0025      	movs	r5, r4
100035bc:	465f      	mov	r7, fp
100035be:	464c      	mov	r4, r9
100035c0:	4699      	mov	r9, r3
100035c2:	0022      	movs	r2, r4
100035c4:	4643      	mov	r3, r8
100035c6:	3401      	adds	r4, #1
100035c8:	0039      	movs	r1, r7
100035ca:	2020      	movs	r0, #32
100035cc:	47b0      	blx	r6
100035ce:	42ac      	cmp	r4, r5
100035d0:	d1f7      	bne.n	100035c2 <_vsnprintf+0x33a>
100035d2:	002c      	movs	r4, r5
100035d4:	46bb      	mov	fp, r7
100035d6:	464d      	mov	r5, r9
100035d8:	4647      	mov	r7, r8
100035da:	9b0c      	ldr	r3, [sp, #48]	; 0x30
100035dc:	930b      	str	r3, [sp, #44]	; 0x2c
100035de:	e67c      	b.n	100032da <_vsnprintf+0x52>
100035e0:	10003289 	.word	0x10003289
100035e4:	20001a28 	.word	0x20001a28
100035e8:	10008720 	.word	0x10008720
100035ec:	100087b0 	.word	0x100087b0
100035f0:	10008764 	.word	0x10008764
100035f4:	00009041 	.word	0x00009041
100035f8:	4bdc      	ldr	r3, [pc, #880]	; (1000396c <_vsnprintf+0x6e4>)
100035fa:	7828      	ldrb	r0, [r5, #0]
100035fc:	469b      	mov	fp, r3
100035fe:	2300      	movs	r3, #0
10003600:	4699      	mov	r9, r3
10003602:	2800      	cmp	r0, #0
10003604:	d000      	beq.n	10003608 <_vsnprintf+0x380>
10003606:	e658      	b.n	100032ba <_vsnprintf+0x32>
10003608:	2400      	movs	r4, #0
1000360a:	e73c      	b.n	10003486 <_vsnprintf+0x1fe>
1000360c:	9b0b      	ldr	r3, [sp, #44]	; 0x2c
1000360e:	cb02      	ldmia	r3!, {r1}
10003610:	9312      	str	r3, [sp, #72]	; 0x48
10003612:	780b      	ldrb	r3, [r1, #0]
10003614:	469c      	mov	ip, r3
10003616:	0018      	movs	r0, r3
10003618:	4653      	mov	r3, sl
1000361a:	2b00      	cmp	r3, #0
1000361c:	d000      	beq.n	10003620 <_vsnprintf+0x398>
1000361e:	e09c      	b.n	1000375a <_vsnprintf+0x4d2>
10003620:	2800      	cmp	r0, #0
10003622:	d012      	beq.n	1000364a <_vsnprintf+0x3c2>
10003624:	2302      	movs	r3, #2
10003626:	425b      	negs	r3, r3
10003628:	3301      	adds	r3, #1
1000362a:	4699      	mov	r9, r3
1000362c:	4489      	add	r9, r1
1000362e:	464a      	mov	r2, r9
10003630:	000b      	movs	r3, r1
10003632:	4689      	mov	r9, r1
10003634:	0011      	movs	r1, r2
10003636:	e001      	b.n	1000363c <_vsnprintf+0x3b4>
10003638:	428b      	cmp	r3, r1
1000363a:	d003      	beq.n	10003644 <_vsnprintf+0x3bc>
1000363c:	785a      	ldrb	r2, [r3, #1]
1000363e:	3301      	adds	r3, #1
10003640:	2a00      	cmp	r2, #0
10003642:	d1f9      	bne.n	10003638 <_vsnprintf+0x3b0>
10003644:	4649      	mov	r1, r9
10003646:	1a5b      	subs	r3, r3, r1
10003648:	930c      	str	r3, [sp, #48]	; 0x30
1000364a:	2380      	movs	r3, #128	; 0x80
1000364c:	00db      	lsls	r3, r3, #3
1000364e:	4699      	mov	r9, r3
10003650:	9a0a      	ldr	r2, [sp, #40]	; 0x28
10003652:	4013      	ands	r3, r2
10003654:	930b      	str	r3, [sp, #44]	; 0x2c
10003656:	464b      	mov	r3, r9
10003658:	421a      	tst	r2, r3
1000365a:	d004      	beq.n	10003666 <_vsnprintf+0x3de>
1000365c:	9b0c      	ldr	r3, [sp, #48]	; 0x30
1000365e:	4553      	cmp	r3, sl
10003660:	d901      	bls.n	10003666 <_vsnprintf+0x3de>
10003662:	4653      	mov	r3, sl
10003664:	930c      	str	r3, [sp, #48]	; 0x30
10003666:	2302      	movs	r3, #2
10003668:	4699      	mov	r9, r3
1000366a:	9a0a      	ldr	r2, [sp, #40]	; 0x28
1000366c:	4013      	ands	r3, r2
1000366e:	930a      	str	r3, [sp, #40]	; 0x28
10003670:	464b      	mov	r3, r9
10003672:	4213      	tst	r3, r2
10003674:	d100      	bne.n	10003678 <_vsnprintf+0x3f0>
10003676:	e1b5      	b.n	100039e4 <_vsnprintf+0x75c>
10003678:	4663      	mov	r3, ip
1000367a:	2b00      	cmp	r3, #0
1000367c:	d100      	bne.n	10003680 <_vsnprintf+0x3f8>
1000367e:	e197      	b.n	100039b0 <_vsnprintf+0x728>
10003680:	9b0b      	ldr	r3, [sp, #44]	; 0x2c
10003682:	2b00      	cmp	r3, #0
10003684:	d100      	bne.n	10003688 <_vsnprintf+0x400>
10003686:	e14c      	b.n	10003922 <_vsnprintf+0x69a>
10003688:	46d1      	mov	r9, sl
1000368a:	1b0b      	subs	r3, r1, r4
1000368c:	469a      	mov	sl, r3
1000368e:	002b      	movs	r3, r5
10003690:	44a1      	add	r9, r4
10003692:	464d      	mov	r5, r9
10003694:	0022      	movs	r2, r4
10003696:	46b9      	mov	r9, r7
10003698:	465f      	mov	r7, fp
1000369a:	469b      	mov	fp, r3
1000369c:	e009      	b.n	100036b2 <_vsnprintf+0x42a>
1000369e:	464b      	mov	r3, r9
100036a0:	0039      	movs	r1, r7
100036a2:	1c54      	adds	r4, r2, #1
100036a4:	47b0      	blx	r6
100036a6:	4653      	mov	r3, sl
100036a8:	5d18      	ldrb	r0, [r3, r4]
100036aa:	2800      	cmp	r0, #0
100036ac:	d100      	bne.n	100036b0 <_vsnprintf+0x428>
100036ae:	e158      	b.n	10003962 <_vsnprintf+0x6da>
100036b0:	0022      	movs	r2, r4
100036b2:	4295      	cmp	r5, r2
100036b4:	d1f3      	bne.n	1000369e <_vsnprintf+0x416>
100036b6:	465b      	mov	r3, fp
100036b8:	46bb      	mov	fp, r7
100036ba:	464f      	mov	r7, r9
100036bc:	46a9      	mov	r9, r5
100036be:	001d      	movs	r5, r3
100036c0:	464c      	mov	r4, r9
100036c2:	9b0a      	ldr	r3, [sp, #40]	; 0x28
100036c4:	2b00      	cmp	r3, #0
100036c6:	d000      	beq.n	100036ca <_vsnprintf+0x442>
100036c8:	e172      	b.n	100039b0 <_vsnprintf+0x728>
100036ca:	9b12      	ldr	r3, [sp, #72]	; 0x48
100036cc:	930b      	str	r3, [sp, #44]	; 0x2c
100036ce:	e604      	b.n	100032da <_vsnprintf+0x52>
100036d0:	4655      	mov	r5, sl
100036d2:	9a0a      	ldr	r2, [sp, #40]	; 0x28
100036d4:	00a9      	lsls	r1, r5, #2
100036d6:	1949      	adds	r1, r1, r5
100036d8:	0049      	lsls	r1, r1, #1
100036da:	3301      	adds	r3, #1
100036dc:	180d      	adds	r5, r1, r0
100036de:	7818      	ldrb	r0, [r3, #0]
100036e0:	3d30      	subs	r5, #48	; 0x30
100036e2:	0001      	movs	r1, r0
100036e4:	3930      	subs	r1, #48	; 0x30
100036e6:	2909      	cmp	r1, #9
100036e8:	d9f4      	bls.n	100036d4 <_vsnprintf+0x44c>
100036ea:	46aa      	mov	sl, r5
100036ec:	920a      	str	r2, [sp, #40]	; 0x28
100036ee:	001d      	movs	r5, r3
100036f0:	1c59      	adds	r1, r3, #1
100036f2:	e61e      	b.n	10003332 <_vsnprintf+0xaa>
100036f4:	9b0b      	ldr	r3, [sp, #44]	; 0x2c
100036f6:	78a8      	ldrb	r0, [r5, #2]
100036f8:	cb04      	ldmia	r3!, {r2}
100036fa:	3502      	adds	r5, #2
100036fc:	43d1      	mvns	r1, r2
100036fe:	17c9      	asrs	r1, r1, #31
10003700:	400a      	ands	r2, r1
10003702:	4692      	mov	sl, r2
10003704:	930b      	str	r3, [sp, #44]	; 0x2c
10003706:	1c69      	adds	r1, r5, #1
10003708:	e613      	b.n	10003332 <_vsnprintf+0xaa>
1000370a:	9b0a      	ldr	r3, [sp, #40]	; 0x28
1000370c:	2110      	movs	r1, #16
1000370e:	001a      	movs	r2, r3
10003710:	438a      	bics	r2, r1
10003712:	0010      	movs	r0, r2
10003714:	3111      	adds	r1, #17
10003716:	4308      	orrs	r0, r1
10003718:	4681      	mov	r9, r0
1000371a:	2080      	movs	r0, #128	; 0x80
1000371c:	001a      	movs	r2, r3
1000371e:	00c0      	lsls	r0, r0, #3
10003720:	4002      	ands	r2, r0
10003722:	0011      	movs	r1, r2
10003724:	4203      	tst	r3, r0
10003726:	d100      	bne.n	1000372a <_vsnprintf+0x4a2>
10003728:	e657      	b.n	100033da <_vsnprintf+0x152>
1000372a:	464b      	mov	r3, r9
1000372c:	2208      	movs	r2, #8
1000372e:	9306      	str	r3, [sp, #24]
10003730:	4653      	mov	r3, sl
10003732:	9205      	str	r2, [sp, #20]
10003734:	3208      	adds	r2, #8
10003736:	9203      	str	r2, [sp, #12]
10003738:	2200      	movs	r2, #0
1000373a:	9304      	str	r3, [sp, #16]
1000373c:	9b0c      	ldr	r3, [sp, #48]	; 0x30
1000373e:	9202      	str	r2, [sp, #8]
10003740:	9301      	str	r3, [sp, #4]
10003742:	ab18      	add	r3, sp, #96	; 0x60
10003744:	0022      	movs	r2, r4
10003746:	9300      	str	r3, [sp, #0]
10003748:	4659      	mov	r1, fp
1000374a:	003b      	movs	r3, r7
1000374c:	0030      	movs	r0, r6
1000374e:	f7ff f873 	bl	10002838 <_ntoa_format>
10003752:	4643      	mov	r3, r8
10003754:	0004      	movs	r4, r0
10003756:	930b      	str	r3, [sp, #44]	; 0x2c
10003758:	e5bf      	b.n	100032da <_vsnprintf+0x52>
1000375a:	2800      	cmp	r0, #0
1000375c:	d100      	bne.n	10003760 <_vsnprintf+0x4d8>
1000375e:	e774      	b.n	1000364a <_vsnprintf+0x3c2>
10003760:	4653      	mov	r3, sl
10003762:	3b01      	subs	r3, #1
10003764:	e760      	b.n	10003628 <_vsnprintf+0x3a0>
10003766:	2862      	cmp	r0, #98	; 0x62
10003768:	d100      	bne.n	1000376c <_vsnprintf+0x4e4>
1000376a:	e1df      	b.n	10003b2c <_vsnprintf+0x8a4>
1000376c:	2858      	cmp	r0, #88	; 0x58
1000376e:	d100      	bne.n	10003772 <_vsnprintf+0x4ea>
10003770:	e1ec      	b.n	10003b4c <_vsnprintf+0x8c4>
10003772:	990a      	ldr	r1, [sp, #40]	; 0x28
10003774:	2380      	movs	r3, #128	; 0x80
10003776:	000a      	movs	r2, r1
10003778:	00db      	lsls	r3, r3, #3
1000377a:	401a      	ands	r2, r3
1000377c:	0010      	movs	r0, r2
1000377e:	000a      	movs	r2, r1
10003780:	4219      	tst	r1, r3
10003782:	d100      	bne.n	10003786 <_vsnprintf+0x4fe>
10003784:	e1bd      	b.n	10003b02 <_vsnprintf+0x87a>
10003786:	2311      	movs	r3, #17
10003788:	439a      	bics	r2, r3
1000378a:	920c      	str	r2, [sp, #48]	; 0x30
1000378c:	9a0c      	ldr	r2, [sp, #48]	; 0x30
1000378e:	2380      	movs	r3, #128	; 0x80
10003790:	0011      	movs	r1, r2
10003792:	009b      	lsls	r3, r3, #2
10003794:	4019      	ands	r1, r3
10003796:	468c      	mov	ip, r1
10003798:	421a      	tst	r2, r3
1000379a:	d000      	beq.n	1000379e <_vsnprintf+0x516>
1000379c:	e146      	b.n	10003a2c <_vsnprintf+0x7a4>
1000379e:	2380      	movs	r3, #128	; 0x80
100037a0:	0011      	movs	r1, r2
100037a2:	005b      	lsls	r3, r3, #1
100037a4:	4019      	ands	r1, r3
100037a6:	4689      	mov	r9, r1
100037a8:	990b      	ldr	r1, [sp, #44]	; 0x2c
100037aa:	3104      	adds	r1, #4
100037ac:	910a      	str	r1, [sp, #40]	; 0x28
100037ae:	421a      	tst	r2, r3
100037b0:	d000      	beq.n	100037b4 <_vsnprintf+0x52c>
100037b2:	e28f      	b.n	10003cd4 <_vsnprintf+0xa4c>
100037b4:	0013      	movs	r3, r2
100037b6:	065b      	lsls	r3, r3, #25
100037b8:	d500      	bpl.n	100037bc <_vsnprintf+0x534>
100037ba:	e19e      	b.n	10003afa <_vsnprintf+0x872>
100037bc:	0013      	movs	r3, r2
100037be:	061b      	lsls	r3, r3, #24
100037c0:	d400      	bmi.n	100037c4 <_vsnprintf+0x53c>
100037c2:	e326      	b.n	10003e12 <_vsnprintf+0xb8a>
100037c4:	9b0b      	ldr	r3, [sp, #44]	; 0x2c
100037c6:	2200      	movs	r2, #0
100037c8:	5e9b      	ldrsh	r3, [r3, r2]
100037ca:	17d9      	asrs	r1, r3, #31
100037cc:	185a      	adds	r2, r3, r1
100037ce:	404a      	eors	r2, r1
100037d0:	b292      	uxth	r2, r2
100037d2:	0fd9      	lsrs	r1, r3, #31
100037d4:	910b      	str	r1, [sp, #44]	; 0x2c
100037d6:	2b00      	cmp	r3, #0
100037d8:	d100      	bne.n	100037dc <_vsnprintf+0x554>
100037da:	e277      	b.n	10003ccc <_vsnprintf+0xa44>
100037dc:	0010      	movs	r0, r2
100037de:	aa10      	add	r2, sp, #64	; 0x40
100037e0:	4694      	mov	ip, r2
100037e2:	4642      	mov	r2, r8
100037e4:	231f      	movs	r3, #31
100037e6:	9212      	str	r2, [sp, #72]	; 0x48
100037e8:	4652      	mov	r2, sl
100037ea:	4463      	add	r3, ip
100037ec:	46aa      	mov	sl, r5
100037ee:	9414      	str	r4, [sp, #80]	; 0x50
100037f0:	464d      	mov	r5, r9
100037f2:	0004      	movs	r4, r0
100037f4:	46b9      	mov	r9, r7
100037f6:	46b0      	mov	r8, r6
100037f8:	001f      	movs	r7, r3
100037fa:	9213      	str	r2, [sp, #76]	; 0x4c
100037fc:	e001      	b.n	10003802 <_vsnprintf+0x57a>
100037fe:	2d20      	cmp	r5, #32
10003800:	d00f      	beq.n	10003822 <_vsnprintf+0x59a>
10003802:	0020      	movs	r0, r4
10003804:	210a      	movs	r1, #10
10003806:	f000 fbd5 	bl	10003fb4 <__wrap___aeabi_uidiv>
1000380a:	3501      	adds	r5, #1
1000380c:	197e      	adds	r6, r7, r5
1000380e:	3130      	adds	r1, #48	; 0x30
10003810:	7031      	strb	r1, [r6, #0]
10003812:	0020      	movs	r0, r4
10003814:	210a      	movs	r1, #10
10003816:	f000 fbcd 	bl	10003fb4 <__wrap___aeabi_uidiv>
1000381a:	0026      	movs	r6, r4
1000381c:	0004      	movs	r4, r0
1000381e:	2e09      	cmp	r6, #9
10003820:	d8ed      	bhi.n	100037fe <_vsnprintf+0x576>
10003822:	9b12      	ldr	r3, [sp, #72]	; 0x48
10003824:	4646      	mov	r6, r8
10003826:	4698      	mov	r8, r3
10003828:	9b13      	ldr	r3, [sp, #76]	; 0x4c
1000382a:	464f      	mov	r7, r9
1000382c:	46a9      	mov	r9, r5
1000382e:	4655      	mov	r5, sl
10003830:	469a      	mov	sl, r3
10003832:	9c14      	ldr	r4, [sp, #80]	; 0x50
10003834:	9b0c      	ldr	r3, [sp, #48]	; 0x30
10003836:	9306      	str	r3, [sp, #24]
10003838:	4643      	mov	r3, r8
1000383a:	9305      	str	r3, [sp, #20]
1000383c:	4653      	mov	r3, sl
1000383e:	9304      	str	r3, [sp, #16]
10003840:	230a      	movs	r3, #10
10003842:	9303      	str	r3, [sp, #12]
10003844:	9b0b      	ldr	r3, [sp, #44]	; 0x2c
10003846:	9302      	str	r3, [sp, #8]
10003848:	464b      	mov	r3, r9
1000384a:	9301      	str	r3, [sp, #4]
1000384c:	ab18      	add	r3, sp, #96	; 0x60
1000384e:	0022      	movs	r2, r4
10003850:	9300      	str	r3, [sp, #0]
10003852:	4659      	mov	r1, fp
10003854:	003b      	movs	r3, r7
10003856:	0030      	movs	r0, r6
10003858:	f7fe ffee 	bl	10002838 <_ntoa_format>
1000385c:	9b0a      	ldr	r3, [sp, #40]	; 0x28
1000385e:	0004      	movs	r4, r0
10003860:	930b      	str	r3, [sp, #44]	; 0x2c
10003862:	e53a      	b.n	100032da <_vsnprintf+0x52>
10003864:	2320      	movs	r3, #32
10003866:	9a0a      	ldr	r2, [sp, #40]	; 0x28
10003868:	431a      	orrs	r2, r3
1000386a:	920a      	str	r2, [sp, #40]	; 0x28
1000386c:	e66f      	b.n	1000354e <_vsnprintf+0x2c6>
1000386e:	2380      	movs	r3, #128	; 0x80
10003870:	9a0a      	ldr	r2, [sp, #40]	; 0x28
10003872:	011b      	lsls	r3, r3, #4
10003874:	431a      	orrs	r2, r3
10003876:	920a      	str	r2, [sp, #40]	; 0x28
10003878:	e637      	b.n	100034ea <_vsnprintf+0x262>
1000387a:	2878      	cmp	r0, #120	; 0x78
1000387c:	d000      	beq.n	10003880 <_vsnprintf+0x5f8>
1000387e:	e1af      	b.n	10003be0 <_vsnprintf+0x958>
10003880:	980a      	ldr	r0, [sp, #40]	; 0x28
10003882:	2380      	movs	r3, #128	; 0x80
10003884:	0002      	movs	r2, r0
10003886:	00db      	lsls	r3, r3, #3
10003888:	401a      	ands	r2, r3
1000388a:	0011      	movs	r1, r2
1000388c:	0002      	movs	r2, r0
1000388e:	4218      	tst	r0, r3
10003890:	d100      	bne.n	10003894 <_vsnprintf+0x60c>
10003892:	e2d0      	b.n	10003e36 <_vsnprintf+0xbae>
10003894:	230d      	movs	r3, #13
10003896:	439a      	bics	r2, r3
10003898:	0010      	movs	r0, r2
1000389a:	3303      	adds	r3, #3
1000389c:	930a      	str	r3, [sp, #40]	; 0x28
1000389e:	2380      	movs	r3, #128	; 0x80
100038a0:	0002      	movs	r2, r0
100038a2:	009b      	lsls	r3, r3, #2
100038a4:	401a      	ands	r2, r3
100038a6:	4694      	mov	ip, r2
100038a8:	4218      	tst	r0, r3
100038aa:	d000      	beq.n	100038ae <_vsnprintf+0x626>
100038ac:	e1ac      	b.n	10003c08 <_vsnprintf+0x980>
100038ae:	2380      	movs	r3, #128	; 0x80
100038b0:	0002      	movs	r2, r0
100038b2:	005b      	lsls	r3, r3, #1
100038b4:	401a      	ands	r2, r3
100038b6:	4691      	mov	r9, r2
100038b8:	9a0b      	ldr	r2, [sp, #44]	; 0x2c
100038ba:	3204      	adds	r2, #4
100038bc:	920c      	str	r2, [sp, #48]	; 0x30
100038be:	4218      	tst	r0, r3
100038c0:	d000      	beq.n	100038c4 <_vsnprintf+0x63c>
100038c2:	e24a      	b.n	10003d5a <_vsnprintf+0xad2>
100038c4:	0643      	lsls	r3, r0, #25
100038c6:	d400      	bmi.n	100038ca <_vsnprintf+0x642>
100038c8:	e293      	b.n	10003df2 <_vsnprintf+0xb6a>
100038ca:	9b0b      	ldr	r3, [sp, #44]	; 0x2c
100038cc:	781b      	ldrb	r3, [r3, #0]
100038ce:	9308      	str	r3, [sp, #32]
100038d0:	2b00      	cmp	r3, #0
100038d2:	d000      	beq.n	100038d6 <_vsnprintf+0x64e>
100038d4:	e14b      	b.n	10003b6e <_vsnprintf+0x8e6>
100038d6:	3310      	adds	r3, #16
100038d8:	4398      	bics	r0, r3
100038da:	2900      	cmp	r1, #0
100038dc:	d100      	bne.n	100038e0 <_vsnprintf+0x658>
100038de:	e146      	b.n	10003b6e <_vsnprintf+0x8e6>
100038e0:	2300      	movs	r3, #0
100038e2:	4699      	mov	r9, r3
100038e4:	4643      	mov	r3, r8
100038e6:	9305      	str	r3, [sp, #20]
100038e8:	4653      	mov	r3, sl
100038ea:	9304      	str	r3, [sp, #16]
100038ec:	9b0a      	ldr	r3, [sp, #40]	; 0x28
100038ee:	9006      	str	r0, [sp, #24]
100038f0:	9303      	str	r3, [sp, #12]
100038f2:	2300      	movs	r3, #0
100038f4:	9302      	str	r3, [sp, #8]
100038f6:	464b      	mov	r3, r9
100038f8:	9301      	str	r3, [sp, #4]
100038fa:	ab18      	add	r3, sp, #96	; 0x60
100038fc:	0022      	movs	r2, r4
100038fe:	9300      	str	r3, [sp, #0]
10003900:	4659      	mov	r1, fp
10003902:	003b      	movs	r3, r7
10003904:	0030      	movs	r0, r6
10003906:	f7fe ff97 	bl	10002838 <_ntoa_format>
1000390a:	0004      	movs	r4, r0
1000390c:	e665      	b.n	100035da <_vsnprintf+0x352>
1000390e:	2380      	movs	r3, #128	; 0x80
10003910:	9a0a      	ldr	r2, [sp, #40]	; 0x28
10003912:	011b      	lsls	r3, r3, #4
10003914:	431a      	orrs	r2, r3
10003916:	920a      	str	r2, [sp, #40]	; 0x28
10003918:	2320      	movs	r3, #32
1000391a:	9a0a      	ldr	r2, [sp, #40]	; 0x28
1000391c:	431a      	orrs	r2, r3
1000391e:	920a      	str	r2, [sp, #40]	; 0x28
10003920:	e5e3      	b.n	100034ea <_vsnprintf+0x262>
10003922:	1b0b      	subs	r3, r1, r4
10003924:	469a      	mov	sl, r3
10003926:	9b0c      	ldr	r3, [sp, #48]	; 0x30
10003928:	4699      	mov	r9, r3
1000392a:	002b      	movs	r3, r5
1000392c:	465d      	mov	r5, fp
1000392e:	469b      	mov	fp, r3
10003930:	0022      	movs	r2, r4
10003932:	003b      	movs	r3, r7
10003934:	0029      	movs	r1, r5
10003936:	47b0      	blx	r6
10003938:	4653      	mov	r3, sl
1000393a:	3401      	adds	r4, #1
1000393c:	5d18      	ldrb	r0, [r3, r4]
1000393e:	2800      	cmp	r0, #0
10003940:	d1f6      	bne.n	10003930 <_vsnprintf+0x6a8>
10003942:	464b      	mov	r3, r9
10003944:	930c      	str	r3, [sp, #48]	; 0x30
10003946:	465b      	mov	r3, fp
10003948:	46ab      	mov	fp, r5
1000394a:	001d      	movs	r5, r3
1000394c:	e6b9      	b.n	100036c2 <_vsnprintf+0x43a>
1000394e:	23c0      	movs	r3, #192	; 0xc0
10003950:	009b      	lsls	r3, r3, #2
10003952:	9a0a      	ldr	r2, [sp, #40]	; 0x28
10003954:	78a8      	ldrb	r0, [r5, #2]
10003956:	431a      	orrs	r2, r3
10003958:	920a      	str	r2, [sp, #40]	; 0x28
1000395a:	1ce9      	adds	r1, r5, #3
1000395c:	e50d      	b.n	1000337a <_vsnprintf+0xf2>
1000395e:	23c0      	movs	r3, #192	; 0xc0
10003960:	e7f7      	b.n	10003952 <_vsnprintf+0x6ca>
10003962:	465d      	mov	r5, fp
10003964:	46bb      	mov	fp, r7
10003966:	464f      	mov	r7, r9
10003968:	e6ab      	b.n	100036c2 <_vsnprintf+0x43a>
1000396a:	46c0      	nop			; (mov r8, r8)
1000396c:	100027a5 	.word	0x100027a5
10003970:	4643      	mov	r3, r8
10003972:	2b01      	cmp	r3, #1
10003974:	d800      	bhi.n	10003978 <_vsnprintf+0x6f0>
10003976:	e0d1      	b.n	10003b1c <_vsnprintf+0x894>
10003978:	1e63      	subs	r3, r4, #1
1000397a:	4443      	add	r3, r8
1000397c:	46b9      	mov	r9, r7
1000397e:	001d      	movs	r5, r3
10003980:	465f      	mov	r7, fp
10003982:	46a2      	mov	sl, r4
10003984:	468b      	mov	fp, r1
10003986:	0022      	movs	r2, r4
10003988:	464b      	mov	r3, r9
1000398a:	3401      	adds	r4, #1
1000398c:	0039      	movs	r1, r7
1000398e:	2020      	movs	r0, #32
10003990:	47b0      	blx	r6
10003992:	42ac      	cmp	r4, r5
10003994:	d1f7      	bne.n	10003986 <_vsnprintf+0x6fe>
10003996:	465d      	mov	r5, fp
10003998:	46bb      	mov	fp, r7
1000399a:	464f      	mov	r7, r9
1000399c:	46a1      	mov	r9, r4
1000399e:	4654      	mov	r4, sl
100039a0:	9b0b      	ldr	r3, [sp, #44]	; 0x2c
100039a2:	464a      	mov	r2, r9
100039a4:	7818      	ldrb	r0, [r3, #0]
100039a6:	4659      	mov	r1, fp
100039a8:	003b      	movs	r3, r7
100039aa:	4444      	add	r4, r8
100039ac:	47b0      	blx	r6
100039ae:	e614      	b.n	100035da <_vsnprintf+0x352>
100039b0:	9b0c      	ldr	r3, [sp, #48]	; 0x30
100039b2:	46a1      	mov	r9, r4
100039b4:	4598      	cmp	r8, r3
100039b6:	d800      	bhi.n	100039ba <_vsnprintf+0x732>
100039b8:	e687      	b.n	100036ca <_vsnprintf+0x442>
100039ba:	4444      	add	r4, r8
100039bc:	1ae4      	subs	r4, r4, r3
100039be:	002b      	movs	r3, r5
100039c0:	46b8      	mov	r8, r7
100039c2:	0025      	movs	r5, r4
100039c4:	465f      	mov	r7, fp
100039c6:	464c      	mov	r4, r9
100039c8:	4699      	mov	r9, r3
100039ca:	0022      	movs	r2, r4
100039cc:	4643      	mov	r3, r8
100039ce:	3401      	adds	r4, #1
100039d0:	0039      	movs	r1, r7
100039d2:	2020      	movs	r0, #32
100039d4:	47b0      	blx	r6
100039d6:	42ac      	cmp	r4, r5
100039d8:	d1f7      	bne.n	100039ca <_vsnprintf+0x742>
100039da:	002c      	movs	r4, r5
100039dc:	46bb      	mov	fp, r7
100039de:	464d      	mov	r5, r9
100039e0:	4647      	mov	r7, r8
100039e2:	e672      	b.n	100036ca <_vsnprintf+0x442>
100039e4:	980c      	ldr	r0, [sp, #48]	; 0x30
100039e6:	4580      	cmp	r8, r0
100039e8:	d800      	bhi.n	100039ec <_vsnprintf+0x764>
100039ea:	e21c      	b.n	10003e26 <_vsnprintf+0xb9e>
100039ec:	4643      	mov	r3, r8
100039ee:	191a      	adds	r2, r3, r4
100039f0:	1a13      	subs	r3, r2, r0
100039f2:	4699      	mov	r9, r3
100039f4:	002b      	movs	r3, r5
100039f6:	464d      	mov	r5, r9
100039f8:	46b9      	mov	r9, r7
100039fa:	465f      	mov	r7, fp
100039fc:	469b      	mov	fp, r3
100039fe:	910c      	str	r1, [sp, #48]	; 0x30
10003a00:	0022      	movs	r2, r4
10003a02:	464b      	mov	r3, r9
10003a04:	3401      	adds	r4, #1
10003a06:	0039      	movs	r1, r7
10003a08:	2020      	movs	r0, #32
10003a0a:	47b0      	blx	r6
10003a0c:	42ac      	cmp	r4, r5
10003a0e:	d1f7      	bne.n	10003a00 <_vsnprintf+0x778>
10003a10:	4643      	mov	r3, r8
10003a12:	990c      	ldr	r1, [sp, #48]	; 0x30
10003a14:	3301      	adds	r3, #1
10003a16:	930c      	str	r3, [sp, #48]	; 0x30
10003a18:	780b      	ldrb	r3, [r1, #0]
10003a1a:	465d      	mov	r5, fp
10003a1c:	469c      	mov	ip, r3
10003a1e:	46bb      	mov	fp, r7
10003a20:	464f      	mov	r7, r9
10003a22:	4660      	mov	r0, ip
10003a24:	2800      	cmp	r0, #0
10003a26:	d000      	beq.n	10003a2a <_vsnprintf+0x7a2>
10003a28:	e62a      	b.n	10003680 <_vsnprintf+0x3f8>
10003a2a:	e64e      	b.n	100036ca <_vsnprintf+0x442>
10003a2c:	2207      	movs	r2, #7
10003a2e:	9b0b      	ldr	r3, [sp, #44]	; 0x2c
10003a30:	3307      	adds	r3, #7
10003a32:	4393      	bics	r3, r2
10003a34:	3201      	adds	r2, #1
10003a36:	4694      	mov	ip, r2
10003a38:	449c      	add	ip, r3
10003a3a:	4662      	mov	r2, ip
10003a3c:	920b      	str	r2, [sp, #44]	; 0x2c
10003a3e:	cb0c      	ldmia	r3, {r2, r3}
10003a40:	0fd9      	lsrs	r1, r3, #31
10003a42:	910a      	str	r1, [sp, #40]	; 0x28
10003a44:	0011      	movs	r1, r2
10003a46:	4319      	orrs	r1, r3
10003a48:	d05f      	beq.n	10003b0a <_vsnprintf+0x882>
10003a4a:	17d9      	asrs	r1, r3, #31
10003a4c:	9111      	str	r1, [sp, #68]	; 0x44
10003a4e:	9110      	str	r1, [sp, #64]	; 0x40
10003a50:	4051      	eors	r1, r2
10003a52:	910e      	str	r1, [sp, #56]	; 0x38
10003a54:	9911      	ldr	r1, [sp, #68]	; 0x44
10003a56:	4059      	eors	r1, r3
10003a58:	910f      	str	r1, [sp, #60]	; 0x3c
10003a5a:	980e      	ldr	r0, [sp, #56]	; 0x38
10003a5c:	990f      	ldr	r1, [sp, #60]	; 0x3c
10003a5e:	9a10      	ldr	r2, [sp, #64]	; 0x40
10003a60:	9b11      	ldr	r3, [sp, #68]	; 0x44
10003a62:	1a80      	subs	r0, r0, r2
10003a64:	4199      	sbcs	r1, r3
10003a66:	900e      	str	r0, [sp, #56]	; 0x38
10003a68:	910f      	str	r1, [sp, #60]	; 0x3c
10003a6a:	aa10      	add	r2, sp, #64	; 0x40
10003a6c:	2300      	movs	r3, #0
10003a6e:	4694      	mov	ip, r2
10003a70:	4642      	mov	r2, r8
10003a72:	4699      	mov	r9, r3
10003a74:	9212      	str	r2, [sp, #72]	; 0x48
10003a76:	4652      	mov	r2, sl
10003a78:	331f      	adds	r3, #31
10003a7a:	4463      	add	r3, ip
10003a7c:	46b0      	mov	r8, r6
10003a7e:	46aa      	mov	sl, r5
10003a80:	464e      	mov	r6, r9
10003a82:	9414      	str	r4, [sp, #80]	; 0x50
10003a84:	46b9      	mov	r9, r7
10003a86:	9c0e      	ldr	r4, [sp, #56]	; 0x38
10003a88:	9d0f      	ldr	r5, [sp, #60]	; 0x3c
10003a8a:	001f      	movs	r7, r3
10003a8c:	9213      	str	r2, [sp, #76]	; 0x4c
10003a8e:	e001      	b.n	10003a94 <_vsnprintf+0x80c>
10003a90:	2e20      	cmp	r6, #32
10003a92:	d010      	beq.n	10003ab6 <_vsnprintf+0x82e>
10003a94:	0020      	movs	r0, r4
10003a96:	0029      	movs	r1, r5
10003a98:	220a      	movs	r2, #10
10003a9a:	2300      	movs	r3, #0
10003a9c:	f000 facc 	bl	10004038 <__wrap___aeabi_uldivmod>
10003aa0:	3601      	adds	r6, #1
10003aa2:	3230      	adds	r2, #48	; 0x30
10003aa4:	002b      	movs	r3, r5
10003aa6:	55ba      	strb	r2, [r7, r6]
10003aa8:	000d      	movs	r5, r1
10003aaa:	0022      	movs	r2, r4
10003aac:	0004      	movs	r4, r0
10003aae:	2b00      	cmp	r3, #0
10003ab0:	d1ee      	bne.n	10003a90 <_vsnprintf+0x808>
10003ab2:	2a09      	cmp	r2, #9
10003ab4:	d8ec      	bhi.n	10003a90 <_vsnprintf+0x808>
10003ab6:	9b12      	ldr	r3, [sp, #72]	; 0x48
10003ab8:	464f      	mov	r7, r9
10003aba:	46b1      	mov	r9, r6
10003abc:	4646      	mov	r6, r8
10003abe:	4698      	mov	r8, r3
10003ac0:	9b13      	ldr	r3, [sp, #76]	; 0x4c
10003ac2:	940e      	str	r4, [sp, #56]	; 0x38
10003ac4:	950f      	str	r5, [sp, #60]	; 0x3c
10003ac6:	4655      	mov	r5, sl
10003ac8:	469a      	mov	sl, r3
10003aca:	9c14      	ldr	r4, [sp, #80]	; 0x50
10003acc:	9b0c      	ldr	r3, [sp, #48]	; 0x30
10003ace:	9306      	str	r3, [sp, #24]
10003ad0:	4643      	mov	r3, r8
10003ad2:	9305      	str	r3, [sp, #20]
10003ad4:	4653      	mov	r3, sl
10003ad6:	9304      	str	r3, [sp, #16]
10003ad8:	230a      	movs	r3, #10
10003ada:	9303      	str	r3, [sp, #12]
10003adc:	9b0a      	ldr	r3, [sp, #40]	; 0x28
10003ade:	9302      	str	r3, [sp, #8]
10003ae0:	464b      	mov	r3, r9
10003ae2:	9301      	str	r3, [sp, #4]
10003ae4:	ab18      	add	r3, sp, #96	; 0x60
10003ae6:	0022      	movs	r2, r4
10003ae8:	9300      	str	r3, [sp, #0]
10003aea:	4659      	mov	r1, fp
10003aec:	003b      	movs	r3, r7
10003aee:	0030      	movs	r0, r6
10003af0:	f7fe fea2 	bl	10002838 <_ntoa_format>
10003af4:	0004      	movs	r4, r0
10003af6:	f7ff fbf0 	bl	100032da <_vsnprintf+0x52>
10003afa:	9b0b      	ldr	r3, [sp, #44]	; 0x2c
10003afc:	781b      	ldrb	r3, [r3, #0]
10003afe:	001a      	movs	r2, r3
10003b00:	e667      	b.n	100037d2 <_vsnprintf+0x54a>
10003b02:	2310      	movs	r3, #16
10003b04:	439a      	bics	r2, r3
10003b06:	920c      	str	r2, [sp, #48]	; 0x30
10003b08:	e640      	b.n	1000378c <_vsnprintf+0x504>
10003b0a:	2300      	movs	r3, #0
10003b0c:	4699      	mov	r9, r3
10003b0e:	2800      	cmp	r0, #0
10003b10:	d1dc      	bne.n	10003acc <_vsnprintf+0x844>
10003b12:	2200      	movs	r2, #0
10003b14:	2300      	movs	r3, #0
10003b16:	920e      	str	r2, [sp, #56]	; 0x38
10003b18:	930f      	str	r3, [sp, #60]	; 0x3c
10003b1a:	e7a6      	b.n	10003a6a <_vsnprintf+0x7e2>
10003b1c:	9b0b      	ldr	r3, [sp, #44]	; 0x2c
10003b1e:	0022      	movs	r2, r4
10003b20:	7818      	ldrb	r0, [r3, #0]
10003b22:	4659      	mov	r1, fp
10003b24:	003b      	movs	r3, r7
10003b26:	47b0      	blx	r6
10003b28:	464c      	mov	r4, r9
10003b2a:	e556      	b.n	100035da <_vsnprintf+0x352>
10003b2c:	980a      	ldr	r0, [sp, #40]	; 0x28
10003b2e:	2380      	movs	r3, #128	; 0x80
10003b30:	0002      	movs	r2, r0
10003b32:	00db      	lsls	r3, r3, #3
10003b34:	401a      	ands	r2, r3
10003b36:	0011      	movs	r1, r2
10003b38:	4218      	tst	r0, r3
10003b3a:	d100      	bne.n	10003b3e <_vsnprintf+0x8b6>
10003b3c:	e15f      	b.n	10003dfe <_vsnprintf+0xb76>
10003b3e:	0002      	movs	r2, r0
10003b40:	230d      	movs	r3, #13
10003b42:	439a      	bics	r2, r3
10003b44:	3b0b      	subs	r3, #11
10003b46:	0010      	movs	r0, r2
10003b48:	930a      	str	r3, [sp, #40]	; 0x28
10003b4a:	e6a8      	b.n	1000389e <_vsnprintf+0x616>
10003b4c:	980a      	ldr	r0, [sp, #40]	; 0x28
10003b4e:	2380      	movs	r3, #128	; 0x80
10003b50:	0002      	movs	r2, r0
10003b52:	00db      	lsls	r3, r3, #3
10003b54:	401a      	ands	r2, r3
10003b56:	0011      	movs	r1, r2
10003b58:	0002      	movs	r2, r0
10003b5a:	4218      	tst	r0, r3
10003b5c:	d100      	bne.n	10003b60 <_vsnprintf+0x8d8>
10003b5e:	e166      	b.n	10003e2e <_vsnprintf+0xba6>
10003b60:	230d      	movs	r3, #13
10003b62:	2020      	movs	r0, #32
10003b64:	439a      	bics	r2, r3
10003b66:	3303      	adds	r3, #3
10003b68:	4310      	orrs	r0, r2
10003b6a:	930a      	str	r3, [sp, #40]	; 0x28
10003b6c:	e697      	b.n	1000389e <_vsnprintf+0x616>
10003b6e:	2361      	movs	r3, #97	; 0x61
10003b70:	0682      	lsls	r2, r0, #26
10003b72:	d500      	bpl.n	10003b76 <_vsnprintf+0x8ee>
10003b74:	2341      	movs	r3, #65	; 0x41
10003b76:	b2db      	uxtb	r3, r3
10003b78:	3b0a      	subs	r3, #10
10003b7a:	930b      	str	r3, [sp, #44]	; 0x2c
10003b7c:	4643      	mov	r3, r8
10003b7e:	a910      	add	r1, sp, #64	; 0x40
10003b80:	221f      	movs	r2, #31
10003b82:	468c      	mov	ip, r1
10003b84:	9312      	str	r3, [sp, #72]	; 0x48
10003b86:	4653      	mov	r3, sl
10003b88:	4462      	add	r2, ip
10003b8a:	46aa      	mov	sl, r5
10003b8c:	9414      	str	r4, [sp, #80]	; 0x50
10003b8e:	9715      	str	r7, [sp, #84]	; 0x54
10003b90:	464c      	mov	r4, r9
10003b92:	4680      	mov	r8, r0
10003b94:	46b1      	mov	r9, r6
10003b96:	0017      	movs	r7, r2
10003b98:	9e0a      	ldr	r6, [sp, #40]	; 0x28
10003b9a:	9d08      	ldr	r5, [sp, #32]
10003b9c:	9313      	str	r3, [sp, #76]	; 0x4c
10003b9e:	e008      	b.n	10003bb2 <_vsnprintf+0x92a>
10003ba0:	3330      	adds	r3, #48	; 0x30
10003ba2:	b2db      	uxtb	r3, r3
10003ba4:	3401      	adds	r4, #1
10003ba6:	553b      	strb	r3, [r7, r4]
10003ba8:	42b5      	cmp	r5, r6
10003baa:	d30e      	bcc.n	10003bca <_vsnprintf+0x942>
10003bac:	2c20      	cmp	r4, #32
10003bae:	d00c      	beq.n	10003bca <_vsnprintf+0x942>
10003bb0:	0005      	movs	r5, r0
10003bb2:	0031      	movs	r1, r6
10003bb4:	0028      	movs	r0, r5
10003bb6:	f000 f9fd 	bl	10003fb4 <__wrap___aeabi_uidiv>
10003bba:	b2cb      	uxtb	r3, r1
10003bbc:	2909      	cmp	r1, #9
10003bbe:	d9ef      	bls.n	10003ba0 <_vsnprintf+0x918>
10003bc0:	9a0b      	ldr	r2, [sp, #44]	; 0x2c
10003bc2:	4694      	mov	ip, r2
10003bc4:	4463      	add	r3, ip
10003bc6:	b2db      	uxtb	r3, r3
10003bc8:	e7ec      	b.n	10003ba4 <_vsnprintf+0x91c>
10003bca:	9b12      	ldr	r3, [sp, #72]	; 0x48
10003bcc:	4640      	mov	r0, r8
10003bce:	4698      	mov	r8, r3
10003bd0:	9b13      	ldr	r3, [sp, #76]	; 0x4c
10003bd2:	464e      	mov	r6, r9
10003bd4:	4655      	mov	r5, sl
10003bd6:	46a1      	mov	r9, r4
10003bd8:	469a      	mov	sl, r3
10003bda:	9c14      	ldr	r4, [sp, #80]	; 0x50
10003bdc:	9f15      	ldr	r7, [sp, #84]	; 0x54
10003bde:	e681      	b.n	100038e4 <_vsnprintf+0x65c>
10003be0:	286f      	cmp	r0, #111	; 0x6f
10003be2:	d000      	beq.n	10003be6 <_vsnprintf+0x95e>
10003be4:	e137      	b.n	10003e56 <_vsnprintf+0xbce>
10003be6:	990a      	ldr	r1, [sp, #40]	; 0x28
10003be8:	230c      	movs	r3, #12
10003bea:	000a      	movs	r2, r1
10003bec:	439a      	bics	r2, r3
10003bee:	2380      	movs	r3, #128	; 0x80
10003bf0:	0010      	movs	r0, r2
10003bf2:	000a      	movs	r2, r1
10003bf4:	00db      	lsls	r3, r3, #3
10003bf6:	401a      	ands	r2, r3
10003bf8:	0011      	movs	r1, r2
10003bfa:	9a0a      	ldr	r2, [sp, #40]	; 0x28
10003bfc:	421a      	tst	r2, r3
10003bfe:	d000      	beq.n	10003c02 <_vsnprintf+0x97a>
10003c00:	e121      	b.n	10003e46 <_vsnprintf+0xbbe>
10003c02:	2308      	movs	r3, #8
10003c04:	930a      	str	r3, [sp, #40]	; 0x28
10003c06:	e64a      	b.n	1000389e <_vsnprintf+0x616>
10003c08:	9a0b      	ldr	r2, [sp, #44]	; 0x2c
10003c0a:	3bfa      	subs	r3, #250	; 0xfa
10003c0c:	3bff      	subs	r3, #255	; 0xff
10003c0e:	3207      	adds	r2, #7
10003c10:	439a      	bics	r2, r3
10003c12:	3301      	adds	r3, #1
10003c14:	469c      	mov	ip, r3
10003c16:	4494      	add	ip, r2
10003c18:	4663      	mov	r3, ip
10003c1a:	930b      	str	r3, [sp, #44]	; 0x2c
10003c1c:	6813      	ldr	r3, [r2, #0]
10003c1e:	6852      	ldr	r2, [r2, #4]
10003c20:	9308      	str	r3, [sp, #32]
10003c22:	4313      	orrs	r3, r2
10003c24:	9212      	str	r2, [sp, #72]	; 0x48
10003c26:	1e1a      	subs	r2, r3, #0
10003c28:	d105      	bne.n	10003c36 <_vsnprintf+0x9ae>
10003c2a:	2300      	movs	r3, #0
10003c2c:	3210      	adds	r2, #16
10003c2e:	4699      	mov	r9, r3
10003c30:	4390      	bics	r0, r2
10003c32:	2900      	cmp	r1, #0
10003c34:	d141      	bne.n	10003cba <_vsnprintf+0xa32>
10003c36:	2261      	movs	r2, #97	; 0x61
10003c38:	0681      	lsls	r1, r0, #26
10003c3a:	d500      	bpl.n	10003c3e <_vsnprintf+0x9b6>
10003c3c:	2241      	movs	r2, #65	; 0x41
10003c3e:	b2d2      	uxtb	r2, r2
10003c40:	3a0a      	subs	r2, #10
10003c42:	920c      	str	r2, [sp, #48]	; 0x30
10003c44:	4642      	mov	r2, r8
10003c46:	2300      	movs	r3, #0
10003c48:	a910      	add	r1, sp, #64	; 0x40
10003c4a:	9213      	str	r2, [sp, #76]	; 0x4c
10003c4c:	4652      	mov	r2, sl
10003c4e:	468c      	mov	ip, r1
10003c50:	4699      	mov	r9, r3
10003c52:	9214      	str	r2, [sp, #80]	; 0x50
10003c54:	331f      	adds	r3, #31
10003c56:	9a0a      	ldr	r2, [sp, #40]	; 0x28
10003c58:	4463      	add	r3, ip
10003c5a:	46aa      	mov	sl, r5
10003c5c:	9415      	str	r4, [sp, #84]	; 0x54
10003c5e:	9617      	str	r6, [sp, #92]	; 0x5c
10003c60:	464c      	mov	r4, r9
10003c62:	4690      	mov	r8, r2
10003c64:	46b9      	mov	r9, r7
10003c66:	9e08      	ldr	r6, [sp, #32]
10003c68:	001f      	movs	r7, r3
10003c6a:	9d12      	ldr	r5, [sp, #72]	; 0x48
10003c6c:	9016      	str	r0, [sp, #88]	; 0x58
10003c6e:	e00a      	b.n	10003c86 <_vsnprintf+0x9fe>
10003c70:	3230      	adds	r2, #48	; 0x30
10003c72:	b2d2      	uxtb	r2, r2
10003c74:	2300      	movs	r3, #0
10003c76:	3401      	adds	r4, #1
10003c78:	553a      	strb	r2, [r7, r4]
10003c7a:	42ab      	cmp	r3, r5
10003c7c:	d011      	beq.n	10003ca2 <_vsnprintf+0xa1a>
10003c7e:	2c20      	cmp	r4, #32
10003c80:	d011      	beq.n	10003ca6 <_vsnprintf+0xa1e>
10003c82:	0006      	movs	r6, r0
10003c84:	000d      	movs	r5, r1
10003c86:	4642      	mov	r2, r8
10003c88:	2300      	movs	r3, #0
10003c8a:	0030      	movs	r0, r6
10003c8c:	0029      	movs	r1, r5
10003c8e:	f000 f9d3 	bl	10004038 <__wrap___aeabi_uldivmod>
10003c92:	b2d2      	uxtb	r2, r2
10003c94:	2a09      	cmp	r2, #9
10003c96:	d9eb      	bls.n	10003c70 <_vsnprintf+0x9e8>
10003c98:	9b0c      	ldr	r3, [sp, #48]	; 0x30
10003c9a:	469c      	mov	ip, r3
10003c9c:	4462      	add	r2, ip
10003c9e:	b2d2      	uxtb	r2, r2
10003ca0:	e7e8      	b.n	10003c74 <_vsnprintf+0x9ec>
10003ca2:	45b0      	cmp	r8, r6
10003ca4:	d9eb      	bls.n	10003c7e <_vsnprintf+0x9f6>
10003ca6:	9b13      	ldr	r3, [sp, #76]	; 0x4c
10003ca8:	4655      	mov	r5, sl
10003caa:	4698      	mov	r8, r3
10003cac:	9b14      	ldr	r3, [sp, #80]	; 0x50
10003cae:	464f      	mov	r7, r9
10003cb0:	469a      	mov	sl, r3
10003cb2:	46a1      	mov	r9, r4
10003cb4:	9816      	ldr	r0, [sp, #88]	; 0x58
10003cb6:	9e17      	ldr	r6, [sp, #92]	; 0x5c
10003cb8:	9c15      	ldr	r4, [sp, #84]	; 0x54
10003cba:	4643      	mov	r3, r8
10003cbc:	9305      	str	r3, [sp, #20]
10003cbe:	4653      	mov	r3, sl
10003cc0:	9304      	str	r3, [sp, #16]
10003cc2:	9b0a      	ldr	r3, [sp, #40]	; 0x28
10003cc4:	9006      	str	r0, [sp, #24]
10003cc6:	9303      	str	r3, [sp, #12]
10003cc8:	2300      	movs	r3, #0
10003cca:	e708      	b.n	10003ade <_vsnprintf+0x856>
10003ccc:	2800      	cmp	r0, #0
10003cce:	d000      	beq.n	10003cd2 <_vsnprintf+0xa4a>
10003cd0:	e5b0      	b.n	10003834 <_vsnprintf+0x5ac>
10003cd2:	e584      	b.n	100037de <_vsnprintf+0x556>
10003cd4:	9b0b      	ldr	r3, [sp, #44]	; 0x2c
10003cd6:	681b      	ldr	r3, [r3, #0]
10003cd8:	0fda      	lsrs	r2, r3, #31
10003cda:	0011      	movs	r1, r2
10003cdc:	2b00      	cmp	r3, #0
10003cde:	d100      	bne.n	10003ce2 <_vsnprintf+0xa5a>
10003ce0:	e094      	b.n	10003e0c <_vsnprintf+0xb84>
10003ce2:	17da      	asrs	r2, r3, #31
10003ce4:	1898      	adds	r0, r3, r2
10003ce6:	4050      	eors	r0, r2
10003ce8:	aa10      	add	r2, sp, #64	; 0x40
10003cea:	4691      	mov	r9, r2
10003cec:	4642      	mov	r2, r8
10003cee:	231f      	movs	r3, #31
10003cf0:	9212      	str	r2, [sp, #72]	; 0x48
10003cf2:	4652      	mov	r2, sl
10003cf4:	444b      	add	r3, r9
10003cf6:	46a0      	mov	r8, r4
10003cf8:	46aa      	mov	sl, r5
10003cfa:	9714      	str	r7, [sp, #80]	; 0x50
10003cfc:	0004      	movs	r4, r0
10003cfe:	46b1      	mov	r9, r6
10003d00:	4665      	mov	r5, ip
10003d02:	001f      	movs	r7, r3
10003d04:	910b      	str	r1, [sp, #44]	; 0x2c
10003d06:	9213      	str	r2, [sp, #76]	; 0x4c
10003d08:	e001      	b.n	10003d0e <_vsnprintf+0xa86>
10003d0a:	2d20      	cmp	r5, #32
10003d0c:	d00f      	beq.n	10003d2e <_vsnprintf+0xaa6>
10003d0e:	0020      	movs	r0, r4
10003d10:	210a      	movs	r1, #10
10003d12:	f000 f94f 	bl	10003fb4 <__wrap___aeabi_uidiv>
10003d16:	3501      	adds	r5, #1
10003d18:	197e      	adds	r6, r7, r5
10003d1a:	3130      	adds	r1, #48	; 0x30
10003d1c:	7031      	strb	r1, [r6, #0]
10003d1e:	0020      	movs	r0, r4
10003d20:	210a      	movs	r1, #10
10003d22:	f000 f947 	bl	10003fb4 <__wrap___aeabi_uidiv>
10003d26:	0026      	movs	r6, r4
10003d28:	0004      	movs	r4, r0
10003d2a:	2e09      	cmp	r6, #9
10003d2c:	d8ed      	bhi.n	10003d0a <_vsnprintf+0xa82>
10003d2e:	9b12      	ldr	r3, [sp, #72]	; 0x48
10003d30:	4644      	mov	r4, r8
10003d32:	4698      	mov	r8, r3
10003d34:	9b0b      	ldr	r3, [sp, #44]	; 0x2c
10003d36:	46ac      	mov	ip, r5
10003d38:	0019      	movs	r1, r3
10003d3a:	9b13      	ldr	r3, [sp, #76]	; 0x4c
10003d3c:	4655      	mov	r5, sl
10003d3e:	464e      	mov	r6, r9
10003d40:	469a      	mov	sl, r3
10003d42:	9f14      	ldr	r7, [sp, #80]	; 0x50
10003d44:	9b0c      	ldr	r3, [sp, #48]	; 0x30
10003d46:	9102      	str	r1, [sp, #8]
10003d48:	9306      	str	r3, [sp, #24]
10003d4a:	4643      	mov	r3, r8
10003d4c:	9305      	str	r3, [sp, #20]
10003d4e:	4653      	mov	r3, sl
10003d50:	9304      	str	r3, [sp, #16]
10003d52:	230a      	movs	r3, #10
10003d54:	9303      	str	r3, [sp, #12]
10003d56:	4663      	mov	r3, ip
10003d58:	e577      	b.n	1000384a <_vsnprintf+0x5c2>
10003d5a:	9b0b      	ldr	r3, [sp, #44]	; 0x2c
10003d5c:	681b      	ldr	r3, [r3, #0]
10003d5e:	9308      	str	r3, [sp, #32]
10003d60:	2b00      	cmp	r3, #0
10003d62:	d103      	bne.n	10003d6c <_vsnprintf+0xae4>
10003d64:	3310      	adds	r3, #16
10003d66:	4398      	bics	r0, r3
10003d68:	2900      	cmp	r1, #0
10003d6a:	d137      	bne.n	10003ddc <_vsnprintf+0xb54>
10003d6c:	2361      	movs	r3, #97	; 0x61
10003d6e:	0682      	lsls	r2, r0, #26
10003d70:	d500      	bpl.n	10003d74 <_vsnprintf+0xaec>
10003d72:	2341      	movs	r3, #65	; 0x41
10003d74:	b2db      	uxtb	r3, r3
10003d76:	3b0a      	subs	r3, #10
10003d78:	930b      	str	r3, [sp, #44]	; 0x2c
10003d7a:	4643      	mov	r3, r8
10003d7c:	a910      	add	r1, sp, #64	; 0x40
10003d7e:	4689      	mov	r9, r1
10003d80:	221f      	movs	r2, #31
10003d82:	9312      	str	r3, [sp, #72]	; 0x48
10003d84:	4653      	mov	r3, sl
10003d86:	444a      	add	r2, r9
10003d88:	46aa      	mov	sl, r5
10003d8a:	46b1      	mov	r9, r6
10003d8c:	9414      	str	r4, [sp, #80]	; 0x50
10003d8e:	9715      	str	r7, [sp, #84]	; 0x54
10003d90:	4664      	mov	r4, ip
10003d92:	4680      	mov	r8, r0
10003d94:	0017      	movs	r7, r2
10003d96:	9d08      	ldr	r5, [sp, #32]
10003d98:	9e0a      	ldr	r6, [sp, #40]	; 0x28
10003d9a:	9313      	str	r3, [sp, #76]	; 0x4c
10003d9c:	e008      	b.n	10003db0 <_vsnprintf+0xb28>
10003d9e:	3330      	adds	r3, #48	; 0x30
10003da0:	b2db      	uxtb	r3, r3
10003da2:	3401      	adds	r4, #1
10003da4:	553b      	strb	r3, [r7, r4]
10003da6:	42b5      	cmp	r5, r6
10003da8:	d30e      	bcc.n	10003dc8 <_vsnprintf+0xb40>
10003daa:	2c20      	cmp	r4, #32
10003dac:	d00c      	beq.n	10003dc8 <_vsnprintf+0xb40>
10003dae:	0005      	movs	r5, r0
10003db0:	0031      	movs	r1, r6
10003db2:	0028      	movs	r0, r5
10003db4:	f000 f8fe 	bl	10003fb4 <__wrap___aeabi_uidiv>
10003db8:	b2cb      	uxtb	r3, r1
10003dba:	2909      	cmp	r1, #9
10003dbc:	d9ef      	bls.n	10003d9e <_vsnprintf+0xb16>
10003dbe:	9a0b      	ldr	r2, [sp, #44]	; 0x2c
10003dc0:	4694      	mov	ip, r2
10003dc2:	4463      	add	r3, ip
10003dc4:	b2db      	uxtb	r3, r3
10003dc6:	e7ec      	b.n	10003da2 <_vsnprintf+0xb1a>
10003dc8:	9b12      	ldr	r3, [sp, #72]	; 0x48
10003dca:	4640      	mov	r0, r8
10003dcc:	4698      	mov	r8, r3
10003dce:	9b13      	ldr	r3, [sp, #76]	; 0x4c
10003dd0:	4655      	mov	r5, sl
10003dd2:	464e      	mov	r6, r9
10003dd4:	469a      	mov	sl, r3
10003dd6:	46a4      	mov	ip, r4
10003dd8:	9f15      	ldr	r7, [sp, #84]	; 0x54
10003dda:	9c14      	ldr	r4, [sp, #80]	; 0x50
10003ddc:	4643      	mov	r3, r8
10003dde:	9305      	str	r3, [sp, #20]
10003de0:	4653      	mov	r3, sl
10003de2:	9304      	str	r3, [sp, #16]
10003de4:	9b0a      	ldr	r3, [sp, #40]	; 0x28
10003de6:	9006      	str	r0, [sp, #24]
10003de8:	9303      	str	r3, [sp, #12]
10003dea:	2300      	movs	r3, #0
10003dec:	9302      	str	r3, [sp, #8]
10003dee:	4663      	mov	r3, ip
10003df0:	e582      	b.n	100038f8 <_vsnprintf+0x670>
10003df2:	0603      	lsls	r3, r0, #24
10003df4:	d513      	bpl.n	10003e1e <_vsnprintf+0xb96>
10003df6:	9b0b      	ldr	r3, [sp, #44]	; 0x2c
10003df8:	881b      	ldrh	r3, [r3, #0]
10003dfa:	9308      	str	r3, [sp, #32]
10003dfc:	e568      	b.n	100038d0 <_vsnprintf+0x648>
10003dfe:	0002      	movs	r2, r0
10003e00:	230c      	movs	r3, #12
10003e02:	439a      	bics	r2, r3
10003e04:	3b0a      	subs	r3, #10
10003e06:	0010      	movs	r0, r2
10003e08:	930a      	str	r3, [sp, #40]	; 0x28
10003e0a:	e548      	b.n	1000389e <_vsnprintf+0x616>
10003e0c:	2800      	cmp	r0, #0
10003e0e:	d199      	bne.n	10003d44 <_vsnprintf+0xabc>
10003e10:	e76a      	b.n	10003ce8 <_vsnprintf+0xa60>
10003e12:	9b0b      	ldr	r3, [sp, #44]	; 0x2c
10003e14:	681b      	ldr	r3, [r3, #0]
10003e16:	17d9      	asrs	r1, r3, #31
10003e18:	185a      	adds	r2, r3, r1
10003e1a:	404a      	eors	r2, r1
10003e1c:	e4d9      	b.n	100037d2 <_vsnprintf+0x54a>
10003e1e:	9b0b      	ldr	r3, [sp, #44]	; 0x2c
10003e20:	681b      	ldr	r3, [r3, #0]
10003e22:	9308      	str	r3, [sp, #32]
10003e24:	e554      	b.n	100038d0 <_vsnprintf+0x648>
10003e26:	0003      	movs	r3, r0
10003e28:	3301      	adds	r3, #1
10003e2a:	930c      	str	r3, [sp, #48]	; 0x30
10003e2c:	e5f9      	b.n	10003a22 <_vsnprintf+0x79a>
10003e2e:	2320      	movs	r3, #32
10003e30:	9a0a      	ldr	r2, [sp, #40]	; 0x28
10003e32:	431a      	orrs	r2, r3
10003e34:	920a      	str	r2, [sp, #40]	; 0x28
10003e36:	230c      	movs	r3, #12
10003e38:	9a0a      	ldr	r2, [sp, #40]	; 0x28
10003e3a:	2100      	movs	r1, #0
10003e3c:	439a      	bics	r2, r3
10003e3e:	3304      	adds	r3, #4
10003e40:	0010      	movs	r0, r2
10003e42:	930a      	str	r3, [sp, #40]	; 0x28
10003e44:	e52b      	b.n	1000389e <_vsnprintf+0x616>
10003e46:	9b0a      	ldr	r3, [sp, #40]	; 0x28
10003e48:	930c      	str	r3, [sp, #48]	; 0x30
10003e4a:	2308      	movs	r3, #8
10003e4c:	930a      	str	r3, [sp, #40]	; 0x28
10003e4e:	230d      	movs	r3, #13
10003e50:	980c      	ldr	r0, [sp, #48]	; 0x30
10003e52:	4398      	bics	r0, r3
10003e54:	e523      	b.n	1000389e <_vsnprintf+0x616>
10003e56:	2310      	movs	r3, #16
10003e58:	9a0a      	ldr	r2, [sp, #40]	; 0x28
10003e5a:	439a      	bics	r2, r3
10003e5c:	920c      	str	r2, [sp, #48]	; 0x30
10003e5e:	2869      	cmp	r0, #105	; 0x69
10003e60:	d10a      	bne.n	10003e78 <_vsnprintf+0xbf0>
10003e62:	990a      	ldr	r1, [sp, #40]	; 0x28
10003e64:	2380      	movs	r3, #128	; 0x80
10003e66:	000a      	movs	r2, r1
10003e68:	00db      	lsls	r3, r3, #3
10003e6a:	401a      	ands	r2, r3
10003e6c:	0010      	movs	r0, r2
10003e6e:	000a      	movs	r2, r1
10003e70:	4219      	tst	r1, r3
10003e72:	d100      	bne.n	10003e76 <_vsnprintf+0xbee>
10003e74:	e48a      	b.n	1000378c <_vsnprintf+0x504>
10003e76:	e486      	b.n	10003786 <_vsnprintf+0x4fe>
10003e78:	990a      	ldr	r1, [sp, #40]	; 0x28
10003e7a:	231c      	movs	r3, #28
10003e7c:	000a      	movs	r2, r1
10003e7e:	439a      	bics	r2, r3
10003e80:	2380      	movs	r3, #128	; 0x80
10003e82:	0010      	movs	r0, r2
10003e84:	000a      	movs	r2, r1
10003e86:	00db      	lsls	r3, r3, #3
10003e88:	401a      	ands	r2, r3
10003e8a:	0011      	movs	r1, r2
10003e8c:	9a0a      	ldr	r2, [sp, #40]	; 0x28
10003e8e:	421a      	tst	r2, r3
10003e90:	d102      	bne.n	10003e98 <_vsnprintf+0xc10>
10003e92:	230a      	movs	r3, #10
10003e94:	930a      	str	r3, [sp, #40]	; 0x28
10003e96:	e502      	b.n	1000389e <_vsnprintf+0x616>
10003e98:	230a      	movs	r3, #10
10003e9a:	930a      	str	r3, [sp, #40]	; 0x28
10003e9c:	e7d7      	b.n	10003e4e <_vsnprintf+0xbc6>
10003e9e:	46c0      	nop			; (mov r8, r8)

10003ea0 <vfctprintf>:
10003ea0:	b500      	push	{lr}
10003ea2:	b085      	sub	sp, #20
10003ea4:	9103      	str	r1, [sp, #12]
10003ea6:	2101      	movs	r1, #1
10003ea8:	9002      	str	r0, [sp, #8]
10003eaa:	9300      	str	r3, [sp, #0]
10003eac:	4803      	ldr	r0, [pc, #12]	; (10003ebc <vfctprintf+0x1c>)
10003eae:	0013      	movs	r3, r2
10003eb0:	424a      	negs	r2, r1
10003eb2:	a902      	add	r1, sp, #8
10003eb4:	f7ff f9e8 	bl	10003288 <_vsnprintf>
10003eb8:	b005      	add	sp, #20
10003eba:	bd00      	pop	{pc}
10003ebc:	10002a51 	.word	0x10002a51

10003ec0 <weak_raw_vprintf>:
10003ec0:	b510      	push	{r4, lr}
10003ec2:	4a09      	ldr	r2, [pc, #36]	; (10003ee8 <weak_raw_vprintf+0x28>)
10003ec4:	0003      	movs	r3, r0
10003ec6:	6814      	ldr	r4, [r2, #0]
10003ec8:	b084      	sub	sp, #16
10003eca:	2c00      	cmp	r4, #0
10003ecc:	d008      	beq.n	10003ee0 <weak_raw_vprintf+0x20>
10003ece:	2201      	movs	r2, #1
10003ed0:	9100      	str	r1, [sp, #0]
10003ed2:	4806      	ldr	r0, [pc, #24]	; (10003eec <weak_raw_vprintf+0x2c>)
10003ed4:	4252      	negs	r2, r2
10003ed6:	a903      	add	r1, sp, #12
10003ed8:	47a0      	blx	r4
10003eda:	2001      	movs	r0, #1
10003edc:	b004      	add	sp, #16
10003ede:	bd10      	pop	{r4, pc}
10003ee0:	f001 f834 	bl	10004f4c <__wrap_puts>
10003ee4:	2000      	movs	r0, #0
10003ee6:	e7f9      	b.n	10003edc <weak_raw_vprintf+0x1c>
10003ee8:	20001a28 	.word	0x20001a28
10003eec:	10002a41 	.word	0x10002a41

10003ef0 <__aeabi_bits_init>:
10003ef0:	4801      	ldr	r0, [pc, #4]	; (10003ef8 <__aeabi_bits_init+0x8>)
10003ef2:	2104      	movs	r1, #4
10003ef4:	4b01      	ldr	r3, [pc, #4]	; (10003efc <__aeabi_bits_init+0xc>)
10003ef6:	4718      	bx	r3
10003ef8:	200003f0 	.word	0x200003f0
10003efc:	10003f21 	.word	0x10003f21

10003f00 <rom_func_lookup>:
10003f00:	2314      	movs	r3, #20
10003f02:	b510      	push	{r4, lr}
10003f04:	0001      	movs	r1, r0
10003f06:	8818      	ldrh	r0, [r3, #0]
10003f08:	3304      	adds	r3, #4
10003f0a:	881b      	ldrh	r3, [r3, #0]
10003f0c:	4798      	blx	r3
10003f0e:	bd10      	pop	{r4, pc}

10003f10 <rom_data_lookup>:
10003f10:	2316      	movs	r3, #22
10003f12:	b510      	push	{r4, lr}
10003f14:	0001      	movs	r1, r0
10003f16:	8818      	ldrh	r0, [r3, #0]
10003f18:	3302      	adds	r3, #2
10003f1a:	881b      	ldrh	r3, [r3, #0]
10003f1c:	4798      	blx	r3
10003f1e:	bd10      	pop	{r4, pc}

10003f20 <rom_funcs_lookup>:
10003f20:	b5f8      	push	{r3, r4, r5, r6, r7, lr}
10003f22:	4647      	mov	r7, r8
10003f24:	46ce      	mov	lr, r9
10003f26:	b580      	push	{r7, lr}
10003f28:	1e0f      	subs	r7, r1, #0
10003f2a:	d019      	beq.n	10003f60 <rom_funcs_lookup+0x40>
10003f2c:	2314      	movs	r3, #20
10003f2e:	4699      	mov	r9, r3
10003f30:	3304      	adds	r3, #4
10003f32:	0004      	movs	r4, r0
10003f34:	2500      	movs	r5, #0
10003f36:	2601      	movs	r6, #1
10003f38:	4698      	mov	r8, r3
10003f3a:	464b      	mov	r3, r9
10003f3c:	8818      	ldrh	r0, [r3, #0]
10003f3e:	4643      	mov	r3, r8
10003f40:	6821      	ldr	r1, [r4, #0]
10003f42:	881b      	ldrh	r3, [r3, #0]
10003f44:	4798      	blx	r3
10003f46:	c401      	stmia	r4!, {r0}
10003f48:	1e43      	subs	r3, r0, #1
10003f4a:	4198      	sbcs	r0, r3
10003f4c:	3501      	adds	r5, #1
10003f4e:	4240      	negs	r0, r0
10003f50:	4006      	ands	r6, r0
10003f52:	42af      	cmp	r7, r5
10003f54:	d1f1      	bne.n	10003f3a <rom_funcs_lookup+0x1a>
10003f56:	0030      	movs	r0, r6
10003f58:	bcc0      	pop	{r6, r7}
10003f5a:	46b9      	mov	r9, r7
10003f5c:	46b0      	mov	r8, r6
10003f5e:	bdf8      	pop	{r3, r4, r5, r6, r7, pc}
10003f60:	2601      	movs	r6, #1
10003f62:	e7f8      	b.n	10003f56 <rom_funcs_lookup+0x36>

10003f64 <__wrap___aeabi_idiv>:
10003f64:	4a12      	ldr	r2, [pc, #72]	; (10003fb0 <divmod_s32s32_savestate+0x18>)
10003f66:	6f93      	ldr	r3, [r2, #120]	; 0x78
10003f68:	089b      	lsrs	r3, r3, #2
10003f6a:	d215      	bcs.n	10003f98 <divmod_s32s32_savestate>

10003f6c <divmod_s32s32_unsafe>:
10003f6c:	6690      	str	r0, [r2, #104]	; 0x68
10003f6e:	66d1      	str	r1, [r2, #108]	; 0x6c
10003f70:	2900      	cmp	r1, #0
10003f72:	d005      	beq.n	10003f80 <divmod_s32s32_unsafe+0x14>
10003f74:	e7ff      	b.n	10003f76 <divmod_s32s32_unsafe+0xa>
10003f76:	e7ff      	b.n	10003f78 <divmod_s32s32_unsafe+0xc>
10003f78:	e7ff      	b.n	10003f7a <divmod_s32s32_unsafe+0xe>
10003f7a:	6f51      	ldr	r1, [r2, #116]	; 0x74
10003f7c:	6f10      	ldr	r0, [r2, #112]	; 0x70
10003f7e:	4770      	bx	lr
10003f80:	b504      	push	{r2, lr}
10003f82:	2180      	movs	r1, #128	; 0x80
10003f84:	0609      	lsls	r1, r1, #24
10003f86:	17c2      	asrs	r2, r0, #31
10003f88:	4051      	eors	r1, r2
10003f8a:	2800      	cmp	r0, #0
10003f8c:	d000      	beq.n	10003f90 <divmod_s32s32_unsafe+0x24>
10003f8e:	43c8      	mvns	r0, r1
10003f90:	f004 fafa 	bl	10008588 <____aeabi_idiv0_veneer>
10003f94:	2100      	movs	r1, #0
10003f96:	bd04      	pop	{r2, pc}

10003f98 <divmod_s32s32_savestate>:
10003f98:	b5f0      	push	{r4, r5, r6, r7, lr}
10003f9a:	6e14      	ldr	r4, [r2, #96]	; 0x60
10003f9c:	6e55      	ldr	r5, [r2, #100]	; 0x64
10003f9e:	6f57      	ldr	r7, [r2, #116]	; 0x74
10003fa0:	6f16      	ldr	r6, [r2, #112]	; 0x70
10003fa2:	f7ff ffe3 	bl	10003f6c <divmod_s32s32_unsafe>
10003fa6:	6614      	str	r4, [r2, #96]	; 0x60
10003fa8:	6655      	str	r5, [r2, #100]	; 0x64
10003faa:	6757      	str	r7, [r2, #116]	; 0x74
10003fac:	6716      	str	r6, [r2, #112]	; 0x70
10003fae:	bdf0      	pop	{r4, r5, r6, r7, pc}
10003fb0:	d0000000 	.word	0xd0000000

10003fb4 <__wrap___aeabi_uidiv>:
10003fb4:	4a11      	ldr	r2, [pc, #68]	; (10003ffc <divmod_u32u32_savestate+0x18>)
10003fb6:	6f93      	ldr	r3, [r2, #120]	; 0x78
10003fb8:	089b      	lsrs	r3, r3, #2
10003fba:	d213      	bcs.n	10003fe4 <divmod_u32u32_savestate>

10003fbc <divmod_u32u32_unsafe>:
10003fbc:	6610      	str	r0, [r2, #96]	; 0x60
10003fbe:	6651      	str	r1, [r2, #100]	; 0x64
10003fc0:	2900      	cmp	r1, #0
10003fc2:	d005      	beq.n	10003fd0 <divmod_u32u32_unsafe+0x14>
10003fc4:	e7ff      	b.n	10003fc6 <divmod_u32u32_unsafe+0xa>
10003fc6:	e7ff      	b.n	10003fc8 <divmod_u32u32_unsafe+0xc>
10003fc8:	e7ff      	b.n	10003fca <divmod_u32u32_unsafe+0xe>
10003fca:	6f51      	ldr	r1, [r2, #116]	; 0x74
10003fcc:	6f10      	ldr	r0, [r2, #112]	; 0x70
10003fce:	4770      	bx	lr
10003fd0:	b504      	push	{r2, lr}
10003fd2:	2800      	cmp	r0, #0
10003fd4:	d001      	beq.n	10003fda <divmod_u32u32_unsafe+0x1e>
10003fd6:	2000      	movs	r0, #0
10003fd8:	43c0      	mvns	r0, r0
10003fda:	f004 fad5 	bl	10008588 <____aeabi_idiv0_veneer>
10003fde:	2100      	movs	r1, #0
10003fe0:	bd04      	pop	{r2, pc}
10003fe2:	46c0      	nop			; (mov r8, r8)

10003fe4 <divmod_u32u32_savestate>:
10003fe4:	b5f0      	push	{r4, r5, r6, r7, lr}
10003fe6:	6e14      	ldr	r4, [r2, #96]	; 0x60
10003fe8:	6e55      	ldr	r5, [r2, #100]	; 0x64
10003fea:	6f57      	ldr	r7, [r2, #116]	; 0x74
10003fec:	6f16      	ldr	r6, [r2, #112]	; 0x70
10003fee:	f7ff ffe5 	bl	10003fbc <divmod_u32u32_unsafe>
10003ff2:	6614      	str	r4, [r2, #96]	; 0x60
10003ff4:	6655      	str	r5, [r2, #100]	; 0x64
10003ff6:	6757      	str	r7, [r2, #116]	; 0x74
10003ff8:	6716      	str	r6, [r2, #112]	; 0x70
10003ffa:	bdf0      	pop	{r4, r5, r6, r7, pc}
10003ffc:	d0000000 	.word	0xd0000000

10004000 <__wrap___aeabi_ldivmod>:
10004000:	4694      	mov	ip, r2
10004002:	4a4e      	ldr	r2, [pc, #312]	; (1000413c <udiv0+0x1a>)
10004004:	6f92      	ldr	r2, [r2, #120]	; 0x78
10004006:	0892      	lsrs	r2, r2, #2
10004008:	4662      	mov	r2, ip
1000400a:	d201      	bcs.n	10004010 <divmod_s64s64_savestate>
1000400c:	e030      	b.n	10004070 <divmod_s64s64_unsafe>
1000400e:	46c0      	nop			; (mov r8, r8)

10004010 <divmod_s64s64_savestate>:
10004010:	b5f0      	push	{r4, r5, r6, r7, lr}
10004012:	4e4a      	ldr	r6, [pc, #296]	; (1000413c <udiv0+0x1a>)
10004014:	6fb5      	ldr	r5, [r6, #120]	; 0x78
10004016:	086d      	lsrs	r5, r5, #1
10004018:	d3fc      	bcc.n	10004014 <divmod_s64s64_savestate+0x4>
1000401a:	6e34      	ldr	r4, [r6, #96]	; 0x60
1000401c:	6e75      	ldr	r5, [r6, #100]	; 0x64
1000401e:	6f77      	ldr	r7, [r6, #116]	; 0x74
10004020:	6f36      	ldr	r6, [r6, #112]	; 0x70
10004022:	f000 f825 	bl	10004070 <divmod_s64s64_unsafe>
10004026:	4694      	mov	ip, r2
10004028:	4a44      	ldr	r2, [pc, #272]	; (1000413c <udiv0+0x1a>)
1000402a:	6614      	str	r4, [r2, #96]	; 0x60
1000402c:	6655      	str	r5, [r2, #100]	; 0x64
1000402e:	6757      	str	r7, [r2, #116]	; 0x74
10004030:	6716      	str	r6, [r2, #112]	; 0x70
10004032:	4662      	mov	r2, ip
10004034:	bdf0      	pop	{r4, r5, r6, r7, pc}
10004036:	46c0      	nop			; (mov r8, r8)

10004038 <__wrap___aeabi_uldivmod>:
10004038:	4694      	mov	ip, r2
1000403a:	4a40      	ldr	r2, [pc, #256]	; (1000413c <udiv0+0x1a>)
1000403c:	6f92      	ldr	r2, [r2, #120]	; 0x78
1000403e:	0892      	lsrs	r2, r2, #2
10004040:	4662      	mov	r2, ip
10004042:	d201      	bcs.n	10004048 <divmod_u64u64_savestate>
10004044:	e058      	b.n	100040f8 <divmod_u64u64_unsafe>
10004046:	46c0      	nop			; (mov r8, r8)

10004048 <divmod_u64u64_savestate>:
10004048:	b5f0      	push	{r4, r5, r6, r7, lr}
1000404a:	4e3c      	ldr	r6, [pc, #240]	; (1000413c <udiv0+0x1a>)
1000404c:	6fb5      	ldr	r5, [r6, #120]	; 0x78
1000404e:	086d      	lsrs	r5, r5, #1
10004050:	d3fc      	bcc.n	1000404c <divmod_u64u64_savestate+0x4>
10004052:	6e34      	ldr	r4, [r6, #96]	; 0x60
10004054:	6e75      	ldr	r5, [r6, #100]	; 0x64
10004056:	6f77      	ldr	r7, [r6, #116]	; 0x74
10004058:	6f36      	ldr	r6, [r6, #112]	; 0x70
1000405a:	f000 f84d 	bl	100040f8 <divmod_u64u64_unsafe>
1000405e:	4694      	mov	ip, r2
10004060:	4a36      	ldr	r2, [pc, #216]	; (1000413c <udiv0+0x1a>)
10004062:	6614      	str	r4, [r2, #96]	; 0x60
10004064:	6655      	str	r5, [r2, #100]	; 0x64
10004066:	6757      	str	r7, [r2, #116]	; 0x74
10004068:	6716      	str	r6, [r2, #112]	; 0x70
1000406a:	4662      	mov	r2, ip
1000406c:	bdf0      	pop	{r4, r5, r6, r7, pc}
1000406e:	46c0      	nop			; (mov r8, r8)

10004070 <divmod_s64s64_unsafe>:
10004070:	2b00      	cmp	r3, #0
10004072:	db24      	blt.n	100040be <l41_1+0x26>
10004074:	d011      	beq.n	1000409a <l41_1+0x2>
10004076:	2900      	cmp	r1, #0
10004078:	da3e      	bge.n	100040f8 <divmod_u64u64_unsafe>
1000407a:	b500      	push	{lr}
1000407c:	43c9      	mvns	r1, r1
1000407e:	4240      	negs	r0, r0
10004080:	d100      	bne.n	10004084 <l39_1>
10004082:	3101      	adds	r1, #1

10004084 <l39_1>:
10004084:	f000 f838 	bl	100040f8 <divmod_u64u64_unsafe>
10004088:	43c9      	mvns	r1, r1
1000408a:	4240      	negs	r0, r0
1000408c:	d100      	bne.n	10004090 <l40_1>
1000408e:	3101      	adds	r1, #1

10004090 <l40_1>:
10004090:	43db      	mvns	r3, r3
10004092:	4252      	negs	r2, r2
10004094:	d100      	bne.n	10004098 <l41_1>
10004096:	3301      	adds	r3, #1

10004098 <l41_1>:
10004098:	bd00      	pop	{pc}
1000409a:	2a00      	cmp	r2, #0
1000409c:	d1eb      	bne.n	10004076 <divmod_s64s64_unsafe+0x6>
1000409e:	2800      	cmp	r0, #0
100040a0:	d101      	bne.n	100040a6 <l41_1+0xe>
100040a2:	2900      	cmp	r1, #0
100040a4:	d005      	beq.n	100040b2 <l41_1+0x1a>
100040a6:	2000      	movs	r0, #0
100040a8:	0fc9      	lsrs	r1, r1, #31
100040aa:	07c9      	lsls	r1, r1, #31
100040ac:	d101      	bne.n	100040b2 <l41_1+0x1a>
100040ae:	43c0      	mvns	r0, r0
100040b0:	0841      	lsrs	r1, r0, #1
100040b2:	b500      	push	{lr}
100040b4:	f004 fa60 	bl	10008578 <____aeabi_ldiv0_veneer>
100040b8:	2200      	movs	r2, #0
100040ba:	2300      	movs	r3, #0
100040bc:	bd00      	pop	{pc}
100040be:	b500      	push	{lr}
100040c0:	2900      	cmp	r1, #0
100040c2:	db0a      	blt.n	100040da <l43_1+0x2>
100040c4:	43db      	mvns	r3, r3
100040c6:	4252      	negs	r2, r2
100040c8:	d100      	bne.n	100040cc <l42_1>
100040ca:	3301      	adds	r3, #1

100040cc <l42_1>:
100040cc:	f000 f814 	bl	100040f8 <divmod_u64u64_unsafe>
100040d0:	43c9      	mvns	r1, r1
100040d2:	4240      	negs	r0, r0
100040d4:	d100      	bne.n	100040d8 <l43_1>
100040d6:	3101      	adds	r1, #1

100040d8 <l43_1>:
100040d8:	bd00      	pop	{pc}
100040da:	43c9      	mvns	r1, r1
100040dc:	4240      	negs	r0, r0
100040de:	d100      	bne.n	100040e2 <l44_1>
100040e0:	3101      	adds	r1, #1

100040e2 <l44_1>:
100040e2:	43db      	mvns	r3, r3
100040e4:	4252      	negs	r2, r2
100040e6:	d100      	bne.n	100040ea <l45_1>
100040e8:	3301      	adds	r3, #1

100040ea <l45_1>:
100040ea:	f000 f805 	bl	100040f8 <divmod_u64u64_unsafe>
100040ee:	43db      	mvns	r3, r3
100040f0:	4252      	negs	r2, r2
100040f2:	d100      	bne.n	100040f6 <l46_1>
100040f4:	3301      	adds	r3, #1

100040f6 <l46_1>:
100040f6:	bd00      	pop	{pc}

100040f8 <divmod_u64u64_unsafe>:
100040f8:	2900      	cmp	r1, #0
100040fa:	d123      	bne.n	10004144 <y64>
100040fc:	2b00      	cmp	r3, #0
100040fe:	d118      	bne.n	10004132 <udiv0+0x10>
10004100:	2a00      	cmp	r2, #0
10004102:	d00c      	beq.n	1000411e <divmod_u64u64_unsafe+0x26>
10004104:	46bc      	mov	ip, r7
10004106:	4f0d      	ldr	r7, [pc, #52]	; (1000413c <udiv0+0x1a>)
10004108:	6638      	str	r0, [r7, #96]	; 0x60
1000410a:	667a      	str	r2, [r7, #100]	; 0x64
1000410c:	2100      	movs	r1, #0
1000410e:	2300      	movs	r3, #0
10004110:	e7ff      	b.n	10004112 <divmod_u64u64_unsafe+0x1a>
10004112:	e7ff      	b.n	10004114 <divmod_u64u64_unsafe+0x1c>
10004114:	e7ff      	b.n	10004116 <divmod_u64u64_unsafe+0x1e>
10004116:	6f7a      	ldr	r2, [r7, #116]	; 0x74
10004118:	6f38      	ldr	r0, [r7, #112]	; 0x70
1000411a:	4667      	mov	r7, ip
1000411c:	4770      	bx	lr
1000411e:	2800      	cmp	r0, #0
10004120:	d001      	beq.n	10004126 <udiv0+0x4>

10004122 <udiv0>:
10004122:	4807      	ldr	r0, [pc, #28]	; (10004140 <udiv0+0x1e>)
10004124:	0001      	movs	r1, r0
10004126:	b500      	push	{lr}
10004128:	f004 fa26 	bl	10008578 <____aeabi_ldiv0_veneer>
1000412c:	2200      	movs	r2, #0
1000412e:	2300      	movs	r3, #0
10004130:	bd00      	pop	{pc}
10004132:	0002      	movs	r2, r0
10004134:	000b      	movs	r3, r1
10004136:	2000      	movs	r0, #0
10004138:	2100      	movs	r1, #0
1000413a:	4770      	bx	lr
1000413c:	d0000000 	.word	0xd0000000
10004140:	ffffffff 	.word	0xffffffff

10004144 <y64>:
10004144:	2b00      	cmp	r3, #0
10004146:	d000      	beq.n	1000414a <y64+0x6>
10004148:	e0bf      	b.n	100042ca <y64_x48>
1000414a:	0c13      	lsrs	r3, r2, #16
1000414c:	d128      	bne.n	100041a0 <y64_x32>
1000414e:	2a00      	cmp	r2, #0
10004150:	d0e7      	beq.n	10004122 <udiv0>
10004152:	b480      	push	{r7}
10004154:	4f11      	ldr	r7, [pc, #68]	; (1000419c <y64+0x58>)
10004156:	6639      	str	r1, [r7, #96]	; 0x60
10004158:	667a      	str	r2, [r7, #100]	; 0x64
1000415a:	e7ff      	b.n	1000415c <y64+0x18>
1000415c:	e7ff      	b.n	1000415e <y64+0x1a>
1000415e:	b430      	push	{r4, r5}
10004160:	0c04      	lsrs	r4, r0, #16
10004162:	6f7b      	ldr	r3, [r7, #116]	; 0x74
10004164:	6f39      	ldr	r1, [r7, #112]	; 0x70
10004166:	041b      	lsls	r3, r3, #16
10004168:	4323      	orrs	r3, r4
1000416a:	663b      	str	r3, [r7, #96]	; 0x60
1000416c:	667a      	str	r2, [r7, #100]	; 0x64
1000416e:	e7ff      	b.n	10004170 <y64+0x2c>
10004170:	e7ff      	b.n	10004172 <y64+0x2e>
10004172:	e7ff      	b.n	10004174 <y64+0x30>
10004174:	46c0      	nop			; (mov r8, r8)
10004176:	b284      	uxth	r4, r0
10004178:	6f7b      	ldr	r3, [r7, #116]	; 0x74
1000417a:	6f3d      	ldr	r5, [r7, #112]	; 0x70
1000417c:	041b      	lsls	r3, r3, #16
1000417e:	4323      	orrs	r3, r4
10004180:	663b      	str	r3, [r7, #96]	; 0x60
10004182:	667a      	str	r2, [r7, #100]	; 0x64
10004184:	e7ff      	b.n	10004186 <y64+0x42>
10004186:	e7ff      	b.n	10004188 <y64+0x44>
10004188:	46c0      	nop			; (mov r8, r8)
1000418a:	2300      	movs	r3, #0
1000418c:	042c      	lsls	r4, r5, #16
1000418e:	0c2d      	lsrs	r5, r5, #16
10004190:	6f7a      	ldr	r2, [r7, #116]	; 0x74
10004192:	6f38      	ldr	r0, [r7, #112]	; 0x70
10004194:	1900      	adds	r0, r0, r4
10004196:	4169      	adcs	r1, r5
10004198:	bcb0      	pop	{r4, r5, r7}
1000419a:	4770      	bx	lr
1000419c:	d0000000 	.word	0xd0000000

100041a0 <y64_x32>:
100041a0:	b5f0      	push	{r4, r5, r6, r7, lr}
100041a2:	4694      	mov	ip, r2
100041a4:	2500      	movs	r5, #0
100041a6:	0e14      	lsrs	r4, r2, #24
100041a8:	d101      	bne.n	100041ae <y64_x32+0xe>
100041aa:	0212      	lsls	r2, r2, #8
100041ac:	3508      	adds	r5, #8
100041ae:	0f14      	lsrs	r4, r2, #28
100041b0:	d101      	bne.n	100041b6 <y64_x32+0x16>
100041b2:	0112      	lsls	r2, r2, #4
100041b4:	3504      	adds	r5, #4
100041b6:	0f94      	lsrs	r4, r2, #30
100041b8:	d101      	bne.n	100041be <y64_x32+0x1e>
100041ba:	0092      	lsls	r2, r2, #2
100041bc:	3502      	adds	r5, #2
100041be:	0fd4      	lsrs	r4, r2, #31
100041c0:	d101      	bne.n	100041c6 <y64_x32+0x26>
100041c2:	0052      	lsls	r2, r2, #1
100041c4:	3501      	adds	r5, #1
100041c6:	0bd4      	lsrs	r4, r2, #15
100041c8:	3401      	adds	r4, #1
100041ca:	4f25      	ldr	r7, [pc, #148]	; (10004260 <y64_x32+0xc0>)
100041cc:	667c      	str	r4, [r7, #100]	; 0x64
100041ce:	4c25      	ldr	r4, [pc, #148]	; (10004264 <y64_x32+0xc4>)
100041d0:	663c      	str	r4, [r7, #96]	; 0x60
100041d2:	0c0e      	lsrs	r6, r1, #16
100041d4:	b293      	uxth	r3, r2
100041d6:	e7ff      	b.n	100041d8 <y64_x32+0x38>
100041d8:	e7ff      	b.n	100041da <y64_x32+0x3a>
100041da:	e7ff      	b.n	100041dc <y64_x32+0x3c>
100041dc:	6f3c      	ldr	r4, [r7, #112]	; 0x70
100041de:	4366      	muls	r6, r4
100041e0:	0c36      	lsrs	r6, r6, #16
100041e2:	0377      	lsls	r7, r6, #13
100041e4:	46be      	mov	lr, r7
100041e6:	4373      	muls	r3, r6
100041e8:	0bdf      	lsrs	r7, r3, #15
100041ea:	045b      	lsls	r3, r3, #17
100041ec:	1ac0      	subs	r0, r0, r3
100041ee:	41b9      	sbcs	r1, r7
100041f0:	0c13      	lsrs	r3, r2, #16
100041f2:	4373      	muls	r3, r6
100041f4:	18db      	adds	r3, r3, r3
100041f6:	1ac9      	subs	r1, r1, r3
100041f8:	08ce      	lsrs	r6, r1, #3
100041fa:	4366      	muls	r6, r4
100041fc:	0c36      	lsrs	r6, r6, #16
100041fe:	44b6      	add	lr, r6
10004200:	b293      	uxth	r3, r2
10004202:	4373      	muls	r3, r6
10004204:	0f1f      	lsrs	r7, r3, #28
10004206:	011b      	lsls	r3, r3, #4
10004208:	1ac0      	subs	r0, r0, r3
1000420a:	41b9      	sbcs	r1, r7
1000420c:	0c13      	lsrs	r3, r2, #16
1000420e:	4373      	muls	r3, r6
10004210:	0b1f      	lsrs	r7, r3, #12
10004212:	051b      	lsls	r3, r3, #20
10004214:	1ac0      	subs	r0, r0, r3
10004216:	41b9      	sbcs	r1, r7
10004218:	0d86      	lsrs	r6, r0, #22
1000421a:	028f      	lsls	r7, r1, #10
1000421c:	433e      	orrs	r6, r7
1000421e:	4366      	muls	r6, r4
10004220:	0c36      	lsrs	r6, r6, #16
10004222:	2d09      	cmp	r5, #9
10004224:	db24      	blt.n	10004270 <last0>
10004226:	0a52      	lsrs	r2, r2, #9
10004228:	4372      	muls	r2, r6
1000422a:	1a80      	subs	r0, r0, r2
1000422c:	0377      	lsls	r7, r6, #13
1000422e:	0a46      	lsrs	r6, r0, #9
10004230:	4366      	muls	r6, r4
10004232:	0c36      	lsrs	r6, r6, #16
10004234:	2316      	movs	r3, #22
10004236:	1b5b      	subs	r3, r3, r5
10004238:	40de      	lsrs	r6, r3
1000423a:	40df      	lsrs	r7, r3
1000423c:	19bf      	adds	r7, r7, r6
1000423e:	4664      	mov	r4, ip
10004240:	4366      	muls	r6, r4
10004242:	1b82      	subs	r2, r0, r6
10004244:	4670      	mov	r0, lr
10004246:	3504      	adds	r5, #4
10004248:	3306      	adds	r3, #6
1000424a:	0001      	movs	r1, r0
1000424c:	40d9      	lsrs	r1, r3
1000424e:	40a8      	lsls	r0, r5
10004250:	19c0      	adds	r0, r0, r7
10004252:	d300      	bcc.n	10004256 <y64_x32+0xb6>
10004254:	3101      	adds	r1, #1
10004256:	42a2      	cmp	r2, r4
10004258:	d206      	bcs.n	10004268 <y64_x32+0xc8>
1000425a:	2300      	movs	r3, #0
1000425c:	bdf0      	pop	{r4, r5, r6, r7, pc}
1000425e:	0000      	.short	0x0000
10004260:	d0000000 	.word	0xd0000000
10004264:	ffffffff 	.word	0xffffffff
10004268:	1b12      	subs	r2, r2, r4
1000426a:	3001      	adds	r0, #1
1000426c:	d3f3      	bcc.n	10004256 <y64_x32+0xb6>
1000426e:	e7f1      	b.n	10004254 <y64_x32+0xb4>

10004270 <last0>:
10004270:	2709      	movs	r7, #9
10004272:	1b7f      	subs	r7, r7, r5
10004274:	40fe      	lsrs	r6, r7
10004276:	4664      	mov	r4, ip
10004278:	b2a2      	uxth	r2, r4
1000427a:	4372      	muls	r2, r6
1000427c:	1a80      	subs	r0, r0, r2
1000427e:	d200      	bcs.n	10004282 <last0+0x12>
10004280:	3901      	subs	r1, #1
10004282:	0c22      	lsrs	r2, r4, #16
10004284:	4372      	muls	r2, r6
10004286:	0c13      	lsrs	r3, r2, #16
10004288:	0412      	lsls	r2, r2, #16
1000428a:	1a82      	subs	r2, r0, r2
1000428c:	4199      	sbcs	r1, r3
1000428e:	000b      	movs	r3, r1
10004290:	4670      	mov	r0, lr
10004292:	3504      	adds	r5, #4
10004294:	3713      	adds	r7, #19
10004296:	0001      	movs	r1, r0
10004298:	40f9      	lsrs	r1, r7
1000429a:	40a8      	lsls	r0, r5
1000429c:	1980      	adds	r0, r0, r6
1000429e:	d300      	bcc.n	100042a2 <last0+0x32>
100042a0:	3101      	adds	r1, #1
100042a2:	2b00      	cmp	r3, #0
100042a4:	d102      	bne.n	100042ac <last0+0x3c>
100042a6:	42a2      	cmp	r2, r4
100042a8:	d20a      	bcs.n	100042c0 <last0+0x50>
100042aa:	bdf0      	pop	{r4, r5, r6, r7, pc}
100042ac:	3001      	adds	r0, #1
100042ae:	d300      	bcc.n	100042b2 <last0+0x42>
100042b0:	3101      	adds	r1, #1
100042b2:	1b12      	subs	r2, r2, r4
100042b4:	d2fa      	bcs.n	100042ac <last0+0x3c>
100042b6:	3b01      	subs	r3, #1
100042b8:	d1f8      	bne.n	100042ac <last0+0x3c>
100042ba:	42a2      	cmp	r2, r4
100042bc:	d200      	bcs.n	100042c0 <last0+0x50>
100042be:	bdf0      	pop	{r4, r5, r6, r7, pc}
100042c0:	3001      	adds	r0, #1
100042c2:	d300      	bcc.n	100042c6 <last0+0x56>
100042c4:	3101      	adds	r1, #1
100042c6:	1b12      	subs	r2, r2, r4
100042c8:	e7f7      	b.n	100042ba <last0+0x4a>

100042ca <y64_x48>:
100042ca:	b5f0      	push	{r4, r5, r6, r7, lr}
100042cc:	0c1c      	lsrs	r4, r3, #16
100042ce:	d000      	beq.n	100042d2 <y64_x48+0x8>
100042d0:	e080      	b.n	100043d4 <y64_x64>
100042d2:	b40c      	push	{r2, r3}
100042d4:	2500      	movs	r5, #0
100042d6:	0a1c      	lsrs	r4, r3, #8
100042d8:	d104      	bne.n	100042e4 <y64_x48+0x1a>
100042da:	021b      	lsls	r3, r3, #8
100042dc:	0e16      	lsrs	r6, r2, #24
100042de:	4333      	orrs	r3, r6
100042e0:	0212      	lsls	r2, r2, #8
100042e2:	3508      	adds	r5, #8
100042e4:	0b1c      	lsrs	r4, r3, #12
100042e6:	d104      	bne.n	100042f2 <y64_x48+0x28>
100042e8:	011b      	lsls	r3, r3, #4
100042ea:	0f16      	lsrs	r6, r2, #28
100042ec:	4333      	orrs	r3, r6
100042ee:	0112      	lsls	r2, r2, #4
100042f0:	3504      	adds	r5, #4
100042f2:	0b9c      	lsrs	r4, r3, #14
100042f4:	d104      	bne.n	10004300 <y64_x48+0x36>
100042f6:	009b      	lsls	r3, r3, #2
100042f8:	0f96      	lsrs	r6, r2, #30
100042fa:	4333      	orrs	r3, r6
100042fc:	0092      	lsls	r2, r2, #2
100042fe:	3502      	adds	r5, #2
10004300:	0bdc      	lsrs	r4, r3, #15
10004302:	d102      	bne.n	1000430a <y64_x48+0x40>
10004304:	1892      	adds	r2, r2, r2
10004306:	415b      	adcs	r3, r3
10004308:	3501      	adds	r5, #1
1000430a:	001c      	movs	r4, r3
1000430c:	1897      	adds	r7, r2, r2
1000430e:	4164      	adcs	r4, r4
10004310:	3401      	adds	r4, #1
10004312:	4f46      	ldr	r7, [pc, #280]	; (1000442c <y64_x64+0x58>)
10004314:	667c      	str	r4, [r7, #100]	; 0x64
10004316:	4c46      	ldr	r4, [pc, #280]	; (10004430 <y64_x64+0x5c>)
10004318:	663c      	str	r4, [r7, #96]	; 0x60
1000431a:	0c0e      	lsrs	r6, r1, #16
1000431c:	e7ff      	b.n	1000431e <y64_x48+0x54>
1000431e:	e7ff      	b.n	10004320 <y64_x48+0x56>
10004320:	e7ff      	b.n	10004322 <y64_x48+0x58>
10004322:	46c0      	nop			; (mov r8, r8)
10004324:	6f3c      	ldr	r4, [r7, #112]	; 0x70
10004326:	4366      	muls	r6, r4
10004328:	0c36      	lsrs	r6, r6, #16
1000432a:	0377      	lsls	r7, r6, #13
1000432c:	46be      	mov	lr, r7
1000432e:	b297      	uxth	r7, r2
10004330:	4377      	muls	r7, r6
10004332:	1bc0      	subs	r0, r0, r7
10004334:	d200      	bcs.n	10004338 <y64_x48+0x6e>
10004336:	3901      	subs	r1, #1
10004338:	1bc0      	subs	r0, r0, r7
1000433a:	d200      	bcs.n	1000433e <y64_x48+0x74>
1000433c:	3901      	subs	r1, #1
1000433e:	b29f      	uxth	r7, r3
10004340:	4377      	muls	r7, r6
10004342:	1bc9      	subs	r1, r1, r7
10004344:	1bc9      	subs	r1, r1, r7
10004346:	0c17      	lsrs	r7, r2, #16
10004348:	4377      	muls	r7, r6
1000434a:	047e      	lsls	r6, r7, #17
1000434c:	0bff      	lsrs	r7, r7, #15
1000434e:	1b80      	subs	r0, r0, r6
10004350:	41b9      	sbcs	r1, r7
10004352:	08ce      	lsrs	r6, r1, #3
10004354:	4366      	muls	r6, r4
10004356:	0c36      	lsrs	r6, r6, #16
10004358:	2d0c      	cmp	r5, #12
1000435a:	db33      	blt.n	100043c4 <last1>
1000435c:	44b6      	add	lr, r6
1000435e:	0b12      	lsrs	r2, r2, #12
10004360:	051f      	lsls	r7, r3, #20
10004362:	433a      	orrs	r2, r7
10004364:	0b1b      	lsrs	r3, r3, #12
10004366:	b297      	uxth	r7, r2
10004368:	4377      	muls	r7, r6
1000436a:	1bc0      	subs	r0, r0, r7
1000436c:	d200      	bcs.n	10004370 <y64_x48+0xa6>
1000436e:	3901      	subs	r1, #1
10004370:	b29f      	uxth	r7, r3
10004372:	4377      	muls	r7, r6
10004374:	1bc9      	subs	r1, r1, r7
10004376:	0c17      	lsrs	r7, r2, #16
10004378:	4377      	muls	r7, r6
1000437a:	043e      	lsls	r6, r7, #16
1000437c:	0c3f      	lsrs	r7, r7, #16
1000437e:	1b80      	subs	r0, r0, r6
10004380:	41b9      	sbcs	r1, r7
10004382:	0d86      	lsrs	r6, r0, #22
10004384:	028f      	lsls	r7, r1, #10
10004386:	433e      	orrs	r6, r7
10004388:	4366      	muls	r6, r4
1000438a:	2729      	movs	r7, #41	; 0x29
1000438c:	1b7f      	subs	r7, r7, r5
1000438e:	40fe      	lsrs	r6, r7
10004390:	3d0c      	subs	r5, #12
10004392:	4677      	mov	r7, lr
10004394:	40af      	lsls	r7, r5
10004396:	19bf      	adds	r7, r7, r6
10004398:	bc30      	pop	{r4, r5}
1000439a:	b2a2      	uxth	r2, r4
1000439c:	b2ab      	uxth	r3, r5
1000439e:	4372      	muls	r2, r6
100043a0:	4373      	muls	r3, r6
100043a2:	1a80      	subs	r0, r0, r2
100043a4:	4199      	sbcs	r1, r3
100043a6:	0c22      	lsrs	r2, r4, #16
100043a8:	4372      	muls	r2, r6
100043aa:	0c13      	lsrs	r3, r2, #16
100043ac:	0412      	lsls	r2, r2, #16
100043ae:	1a80      	subs	r0, r0, r2
100043b0:	4199      	sbcs	r1, r3
100043b2:	0002      	movs	r2, r0
100043b4:	000b      	movs	r3, r1
100043b6:	3701      	adds	r7, #1
100043b8:	1b00      	subs	r0, r0, r4
100043ba:	41a9      	sbcs	r1, r5
100043bc:	d2f9      	bcs.n	100043b2 <y64_x48+0xe8>
100043be:	1e78      	subs	r0, r7, #1
100043c0:	2100      	movs	r1, #0
100043c2:	bdf0      	pop	{r4, r5, r6, r7, pc}

100043c4 <last1>:
100043c4:	270c      	movs	r7, #12
100043c6:	1b7f      	subs	r7, r7, r5
100043c8:	40fe      	lsrs	r6, r7
100043ca:	4677      	mov	r7, lr
100043cc:	0b7f      	lsrs	r7, r7, #13
100043ce:	40af      	lsls	r7, r5
100043d0:	19ff      	adds	r7, r7, r7
100043d2:	e7e0      	b.n	10004396 <y64_x48+0xcc>

100043d4 <y64_x64>:
100043d4:	2400      	movs	r4, #0
100043d6:	1c5d      	adds	r5, r3, #1
100043d8:	d007      	beq.n	100043ea <y64_x64+0x16>
100043da:	4f14      	ldr	r7, [pc, #80]	; (1000442c <y64_x64+0x58>)
100043dc:	667d      	str	r5, [r7, #100]	; 0x64
100043de:	6639      	str	r1, [r7, #96]	; 0x60
100043e0:	e7ff      	b.n	100043e2 <y64_x64+0xe>
100043e2:	e7ff      	b.n	100043e4 <y64_x64+0x10>
100043e4:	e7ff      	b.n	100043e6 <y64_x64+0x12>
100043e6:	e7ff      	b.n	100043e8 <y64_x64+0x14>
100043e8:	6f3c      	ldr	r4, [r7, #112]	; 0x70
100043ea:	b295      	uxth	r5, r2
100043ec:	b29e      	uxth	r6, r3
100043ee:	4365      	muls	r5, r4
100043f0:	4366      	muls	r6, r4
100043f2:	1b40      	subs	r0, r0, r5
100043f4:	41b1      	sbcs	r1, r6
100043f6:	0c15      	lsrs	r5, r2, #16
100043f8:	0c1e      	lsrs	r6, r3, #16
100043fa:	4365      	muls	r5, r4
100043fc:	4366      	muls	r6, r4
100043fe:	0436      	lsls	r6, r6, #16
10004400:	0c2f      	lsrs	r7, r5, #16
10004402:	433e      	orrs	r6, r7
10004404:	042d      	lsls	r5, r5, #16
10004406:	1b40      	subs	r0, r0, r5
10004408:	41b1      	sbcs	r1, r6
1000440a:	4299      	cmp	r1, r3
1000440c:	d204      	bcs.n	10004418 <y64_x64+0x44>
1000440e:	0002      	movs	r2, r0
10004410:	000b      	movs	r3, r1
10004412:	0020      	movs	r0, r4
10004414:	2100      	movs	r1, #0
10004416:	bdf0      	pop	{r4, r5, r6, r7, pc}
10004418:	d101      	bne.n	1000441e <y64_x64+0x4a>
1000441a:	4290      	cmp	r0, r2
1000441c:	d3f7      	bcc.n	1000440e <y64_x64+0x3a>
1000441e:	1a80      	subs	r0, r0, r2
10004420:	4199      	sbcs	r1, r3
10004422:	3401      	adds	r4, #1
10004424:	4299      	cmp	r1, r3
10004426:	d3f2      	bcc.n	1000440e <y64_x64+0x3a>
10004428:	e7f6      	b.n	10004418 <y64_x64+0x44>
1000442a:	0000      	.short	0x0000
1000442c:	d0000000 	.word	0xd0000000
10004430:	ffffffff 	.word	0xffffffff

10004434 <__wrap___aeabi_drsub>:
10004434:	4048      	eors	r0, r1
10004436:	4041      	eors	r1, r0
10004438:	4048      	eors	r0, r1

1000443a <__wrap___aeabi_dsub>:
1000443a:	b418      	push	{r3, r4}
1000443c:	4b1b      	ldr	r3, [pc, #108]	; (100044ac <__wrap___aeabi_dmul+0x12>)
1000443e:	685b      	ldr	r3, [r3, #4]
10004440:	46fc      	mov	ip, pc
10004442:	9301      	str	r3, [sp, #4]
10004444:	bd08      	pop	{r3, pc}
10004446:	df04      	.short	0xdf04
10004448:	100046c7 	.word	0x100046c7

1000444c <__wrap___aeabi_dadd>:
1000444c:	b418      	push	{r3, r4}
1000444e:	4b17      	ldr	r3, [pc, #92]	; (100044ac <__wrap___aeabi_dmul+0x12>)
10004450:	681b      	ldr	r3, [r3, #0]
10004452:	46fc      	mov	ip, pc
10004454:	9301      	str	r3, [sp, #4]
10004456:	bd08      	pop	{r3, pc}
10004458:	46d1df00 	.word	0x46d1df00
1000445c:	1000      	.short	0x1000

1000445e <__wrap___aeabi_ddiv>:
1000445e:	4694      	mov	ip, r2
10004460:	4a13      	ldr	r2, [pc, #76]	; (100044b0 <__wrap___aeabi_dmul+0x16>)
10004462:	6f92      	ldr	r2, [r2, #120]	; 0x78
10004464:	0892      	lsrs	r2, r2, #2
10004466:	d209      	bcs.n	1000447c <ddiv_save_state>
10004468:	4662      	mov	r2, ip

1000446a <ddiv_shim_call>:
1000446a:	b418      	push	{r3, r4}
1000446c:	4b0f      	ldr	r3, [pc, #60]	; (100044ac <__wrap___aeabi_dmul+0x12>)
1000446e:	68db      	ldr	r3, [r3, #12]
10004470:	46fc      	mov	ip, pc
10004472:	9301      	str	r3, [sp, #4]
10004474:	bd08      	pop	{r3, pc}
10004476:	df0c      	.short	0xdf0c
10004478:	10004989 	.word	0x10004989

1000447c <ddiv_save_state>:
1000447c:	4a0c      	ldr	r2, [pc, #48]	; (100044b0 <__wrap___aeabi_dmul+0x16>)
1000447e:	b5f0      	push	{r4, r5, r6, r7, lr}
10004480:	6e14      	ldr	r4, [r2, #96]	; 0x60
10004482:	6e55      	ldr	r5, [r2, #100]	; 0x64
10004484:	6f57      	ldr	r7, [r2, #116]	; 0x74
10004486:	6f16      	ldr	r6, [r2, #112]	; 0x70
10004488:	4662      	mov	r2, ip
1000448a:	f7ff ffee 	bl	1000446a <ddiv_shim_call>
1000448e:	4a08      	ldr	r2, [pc, #32]	; (100044b0 <__wrap___aeabi_dmul+0x16>)
10004490:	6614      	str	r4, [r2, #96]	; 0x60
10004492:	6655      	str	r5, [r2, #100]	; 0x64
10004494:	6757      	str	r7, [r2, #116]	; 0x74
10004496:	6716      	str	r6, [r2, #112]	; 0x70
10004498:	bdf0      	pop	{r4, r5, r6, r7, pc}

1000449a <__wrap___aeabi_dmul>:
1000449a:	b418      	push	{r3, r4}
1000449c:	4b03      	ldr	r3, [pc, #12]	; (100044ac <__wrap___aeabi_dmul+0x12>)
1000449e:	689b      	ldr	r3, [r3, #8]
100044a0:	46fc      	mov	ip, pc
100044a2:	9301      	str	r3, [sp, #4]
100044a4:	bd08      	pop	{r3, pc}
100044a6:	df08      	.short	0xdf08
100044a8:	1000482d 	.word	0x1000482d
100044ac:	20000df0 	.word	0x20000df0
100044b0:	d0000000 	.word	0xd0000000

100044b4 <__wrap___aeabi_cdrcmple>:
100044b4:	b5ff      	push	{r0, r1, r2, r3, r4, r5, r6, r7, lr}
100044b6:	4050      	eors	r0, r2
100044b8:	4042      	eors	r2, r0
100044ba:	4050      	eors	r0, r2
100044bc:	4059      	eors	r1, r3
100044be:	404b      	eors	r3, r1
100044c0:	4059      	eors	r1, r3
100044c2:	e000      	b.n	100044c6 <__aeabi_dfcmple_guts>

100044c4 <__wrap___aeabi_cdcmpeq>:
100044c4:	b5ff      	push	{r0, r1, r2, r3, r4, r5, r6, r7, lr}

100044c6 <__aeabi_dfcmple_guts>:
100044c6:	4f15      	ldr	r7, [pc, #84]	; (1000451c <__aeabi_dfcmple_guts+0x56>)
100044c8:	004c      	lsls	r4, r1, #1
100044ca:	0d64      	lsrs	r4, r4, #21
100044cc:	d003      	beq.n	100044d6 <__aeabi_dfcmple_guts+0x10>
100044ce:	42bc      	cmp	r4, r7
100044d0:	d104      	bne.n	100044dc <__aeabi_dfcmple_guts+0x16>
100044d2:	030c      	lsls	r4, r1, #12
100044d4:	d814      	bhi.n	10004500 <__aeabi_dfcmple_guts+0x3a>
100044d6:	2000      	movs	r0, #0
100044d8:	0d09      	lsrs	r1, r1, #20
100044da:	0509      	lsls	r1, r1, #20
100044dc:	005c      	lsls	r4, r3, #1
100044de:	0d64      	lsrs	r4, r4, #21
100044e0:	d003      	beq.n	100044ea <__aeabi_dfcmple_guts+0x24>
100044e2:	42bc      	cmp	r4, r7
100044e4:	d104      	bne.n	100044f0 <__aeabi_dfcmple_guts+0x2a>
100044e6:	031c      	lsls	r4, r3, #12
100044e8:	d80a      	bhi.n	10004500 <__aeabi_dfcmple_guts+0x3a>
100044ea:	2200      	movs	r2, #0
100044ec:	0d1b      	lsrs	r3, r3, #20
100044ee:	051b      	lsls	r3, r3, #20
100044f0:	2601      	movs	r6, #1
100044f2:	404b      	eors	r3, r1
100044f4:	d409      	bmi.n	1000450a <__aeabi_dfcmple_guts+0x44>
100044f6:	404b      	eors	r3, r1
100044f8:	d503      	bpl.n	10004502 <__aeabi_dfcmple_guts+0x3c>
100044fa:	428b      	cmp	r3, r1
100044fc:	d100      	bne.n	10004500 <__aeabi_dfcmple_guts+0x3a>
100044fe:	4282      	cmp	r2, r0
10004500:	bdff      	pop	{r0, r1, r2, r3, r4, r5, r6, r7, pc}
10004502:	4299      	cmp	r1, r3
10004504:	d1fc      	bne.n	10004500 <__aeabi_dfcmple_guts+0x3a>
10004506:	4290      	cmp	r0, r2
10004508:	bdff      	pop	{r0, r1, r2, r3, r4, r5, r6, r7, pc}
1000450a:	430b      	orrs	r3, r1
1000450c:	18db      	adds	r3, r3, r3
1000450e:	4303      	orrs	r3, r0
10004510:	4313      	orrs	r3, r2
10004512:	d0f5      	beq.n	10004500 <__aeabi_dfcmple_guts+0x3a>
10004514:	43c9      	mvns	r1, r1
10004516:	1849      	adds	r1, r1, r1
10004518:	bdff      	pop	{r0, r1, r2, r3, r4, r5, r6, r7, pc}
1000451a:	0000      	.short	0x0000
1000451c:	000007ff 	.word	0x000007ff

10004520 <__wrap___aeabi_dcmplt>:
10004520:	b500      	push	{lr}
10004522:	f7ff ffcf 	bl	100044c4 <__wrap___aeabi_cdcmpeq>
10004526:	4180      	sbcs	r0, r0
10004528:	bd00      	pop	{pc}
1000452a:	46c0      	nop			; (mov r8, r8)

1000452c <__wrap___aeabi_dcmpge>:
1000452c:	b500      	push	{lr}
1000452e:	f7ff ffc1 	bl	100044b4 <__wrap___aeabi_cdrcmple>
10004532:	d901      	bls.n	10004538 <__wrap___aeabi_dcmpge+0xc>
10004534:	2000      	movs	r0, #0
10004536:	bd00      	pop	{pc}
10004538:	2001      	movs	r0, #1
1000453a:	bd00      	pop	{pc}

1000453c <__wrap___aeabi_dcmpgt>:
1000453c:	b500      	push	{lr}
1000453e:	f7ff ffb9 	bl	100044b4 <__wrap___aeabi_cdrcmple>
10004542:	4180      	sbcs	r0, r0
10004544:	bd00      	pop	{pc}

10004546 <__wrap___aeabi_dcmpun>:
10004546:	2001      	movs	r0, #1
10004548:	0540      	lsls	r0, r0, #21
1000454a:	004a      	lsls	r2, r1, #1
1000454c:	1812      	adds	r2, r2, r0
1000454e:	d804      	bhi.n	1000455a <__wrap___aeabi_dcmpun+0x14>
10004550:	005a      	lsls	r2, r3, #1
10004552:	1812      	adds	r2, r2, r0
10004554:	d801      	bhi.n	1000455a <__wrap___aeabi_dcmpun+0x14>
10004556:	2000      	movs	r0, #0
10004558:	4770      	bx	lr
1000455a:	2001      	movs	r0, #1
1000455c:	4770      	bx	lr
1000455e:	2000      	movs	r0, #0
10004560:	4770      	bx	lr
	...

10004564 <__wrap___aeabi_ui2d>:
10004564:	2100      	movs	r1, #0
10004566:	2800      	cmp	r0, #0
10004568:	d105      	bne.n	10004576 <__wrap___aeabi_i2d+0xa>
1000456a:	4770      	bx	lr

1000456c <__wrap___aeabi_i2d>:
1000456c:	17c1      	asrs	r1, r0, #31
1000456e:	4048      	eors	r0, r1
10004570:	1a40      	subs	r0, r0, r1
10004572:	d0fa      	beq.n	1000456a <__wrap___aeabi_ui2d+0x6>
10004574:	07c9      	lsls	r1, r1, #31
10004576:	b513      	push	{r0, r1, r4, lr}
10004578:	4b06      	ldr	r3, [pc, #24]	; (10004594 <__wrap___aeabi_i2d+0x28>)
1000457a:	681b      	ldr	r3, [r3, #0]
1000457c:	4798      	blx	r3
1000457e:	bc0c      	pop	{r2, r3}
10004580:	1c44      	adds	r4, r0, #1
10004582:	40a2      	lsls	r2, r4
10004584:	0510      	lsls	r0, r2, #20
10004586:	0b12      	lsrs	r2, r2, #12
10004588:	4903      	ldr	r1, [pc, #12]	; (10004598 <__wrap___aeabi_i2d+0x2c>)
1000458a:	1b09      	subs	r1, r1, r4
1000458c:	0509      	lsls	r1, r1, #20
1000458e:	4319      	orrs	r1, r3
10004590:	4311      	orrs	r1, r2
10004592:	bd10      	pop	{r4, pc}
10004594:	20001a74 	.word	0x20001a74
10004598:	0000041f 	.word	0x0000041f

1000459c <__wrap___aeabi_d2iz>:
1000459c:	b510      	push	{r4, lr}
1000459e:	004c      	lsls	r4, r1, #1
100045a0:	0d62      	lsrs	r2, r4, #21
100045a2:	2380      	movs	r3, #128	; 0x80
100045a4:	18d2      	adds	r2, r2, r3
100045a6:	00db      	lsls	r3, r3, #3
100045a8:	1ad2      	subs	r2, r2, r3
100045aa:	055b      	lsls	r3, r3, #21
100045ac:	2a7e      	cmp	r2, #126	; 0x7e
100045ae:	dd10      	ble.n	100045d2 <__wrap___aeabi_d2iz+0x36>
100045b0:	3a9e      	subs	r2, #158	; 0x9e
100045b2:	da13      	bge.n	100045dc <__wrap___aeabi_d2iz+0x40>
100045b4:	17cc      	asrs	r4, r1, #31
100045b6:	0309      	lsls	r1, r1, #12
100045b8:	0849      	lsrs	r1, r1, #1
100045ba:	4319      	orrs	r1, r3
100045bc:	4252      	negs	r2, r2
100045be:	40d1      	lsrs	r1, r2
100045c0:	0064      	lsls	r4, r4, #1
100045c2:	3401      	adds	r4, #1
100045c4:	3215      	adds	r2, #21
100045c6:	2a20      	cmp	r2, #32
100045c8:	da05      	bge.n	100045d6 <__wrap___aeabi_d2iz+0x3a>
100045ca:	40d0      	lsrs	r0, r2
100045cc:	4308      	orrs	r0, r1
100045ce:	4360      	muls	r0, r4
100045d0:	bd10      	pop	{r4, pc}
100045d2:	2000      	movs	r0, #0
100045d4:	bd10      	pop	{r4, pc}
100045d6:	4608      	mov	r0, r1
100045d8:	4360      	muls	r0, r4
100045da:	bd10      	pop	{r4, pc}
100045dc:	0fc8      	lsrs	r0, r1, #31
100045de:	18c0      	adds	r0, r0, r3
100045e0:	3801      	subs	r0, #1
100045e2:	bd10      	pop	{r4, pc}

100045e4 <__wrap___aeabi_d2uiz>:
100045e4:	b418      	push	{r3, r4}
100045e6:	4b04      	ldr	r3, [pc, #16]	; (100045f8 <__wrap___aeabi_d2uiz+0x14>)
100045e8:	6a5b      	ldr	r3, [r3, #36]	; 0x24
100045ea:	46fc      	mov	ip, pc
100045ec:	9301      	str	r3, [sp, #4]
100045ee:	bd08      	pop	{r3, pc}
100045f0:	4b39df24 	.word	0x4b39df24
100045f4:	00001000 	.word	0x00001000
100045f8:	20000df0 	.word	0x20000df0

100045fc <__aeabi_double_init>:
100045fc:	2313      	movs	r3, #19
100045fe:	b570      	push	{r4, r5, r6, lr}
10004600:	781d      	ldrb	r5, [r3, #0]
10004602:	2d01      	cmp	r5, #1
10004604:	d015      	beq.n	10004632 <__aeabi_double_init+0x36>
10004606:	dd10      	ble.n	1000462a <__aeabi_double_init+0x2e>
10004608:	481d      	ldr	r0, [pc, #116]	; (10004680 <__aeabi_double_init+0x84>)
1000460a:	f7ff fc81 	bl	10003f10 <rom_data_lookup>
1000460e:	4c1d      	ldr	r4, [pc, #116]	; (10004684 <__aeabi_double_init+0x88>)
10004610:	0001      	movs	r1, r0
10004612:	2280      	movs	r2, #128	; 0x80
10004614:	0020      	movs	r0, r4
10004616:	f000 fbc1 	bl	10004d9c <__wrap___aeabi_memcpy>
1000461a:	2d02      	cmp	r5, #2
1000461c:	d02d      	beq.n	1000467a <__aeabi_double_init+0x7e>
1000461e:	481a      	ldr	r0, [pc, #104]	; (10004688 <__aeabi_double_init+0x8c>)
10004620:	f7ff fc6e 	bl	10003f00 <rom_func_lookup>
10004624:	4b19      	ldr	r3, [pc, #100]	; (1000468c <__aeabi_double_init+0x90>)
10004626:	6018      	str	r0, [r3, #0]
10004628:	bd70      	pop	{r4, r5, r6, pc}
1000462a:	4b19      	ldr	r3, [pc, #100]	; (10004690 <__aeabi_double_init+0x94>)
1000462c:	4c15      	ldr	r4, [pc, #84]	; (10004684 <__aeabi_double_init+0x88>)
1000462e:	64a3      	str	r3, [r4, #72]	; 0x48
10004630:	e7f5      	b.n	1000461e <__aeabi_double_init+0x22>
10004632:	4b17      	ldr	r3, [pc, #92]	; (10004690 <__aeabi_double_init+0x94>)
10004634:	4c13      	ldr	r4, [pc, #76]	; (10004684 <__aeabi_double_init+0x88>)
10004636:	6023      	str	r3, [r4, #0]
10004638:	6063      	str	r3, [r4, #4]
1000463a:	60a3      	str	r3, [r4, #8]
1000463c:	60e3      	str	r3, [r4, #12]
1000463e:	6123      	str	r3, [r4, #16]
10004640:	6163      	str	r3, [r4, #20]
10004642:	61a3      	str	r3, [r4, #24]
10004644:	61e3      	str	r3, [r4, #28]
10004646:	6223      	str	r3, [r4, #32]
10004648:	6263      	str	r3, [r4, #36]	; 0x24
1000464a:	62a3      	str	r3, [r4, #40]	; 0x28
1000464c:	62e3      	str	r3, [r4, #44]	; 0x2c
1000464e:	6323      	str	r3, [r4, #48]	; 0x30
10004650:	6363      	str	r3, [r4, #52]	; 0x34
10004652:	63a3      	str	r3, [r4, #56]	; 0x38
10004654:	63e3      	str	r3, [r4, #60]	; 0x3c
10004656:	6423      	str	r3, [r4, #64]	; 0x40
10004658:	6463      	str	r3, [r4, #68]	; 0x44
1000465a:	64a3      	str	r3, [r4, #72]	; 0x48
1000465c:	64e3      	str	r3, [r4, #76]	; 0x4c
1000465e:	6523      	str	r3, [r4, #80]	; 0x50
10004660:	6563      	str	r3, [r4, #84]	; 0x54
10004662:	65a3      	str	r3, [r4, #88]	; 0x58
10004664:	65e3      	str	r3, [r4, #92]	; 0x5c
10004666:	6623      	str	r3, [r4, #96]	; 0x60
10004668:	6663      	str	r3, [r4, #100]	; 0x64
1000466a:	66a3      	str	r3, [r4, #104]	; 0x68
1000466c:	66e3      	str	r3, [r4, #108]	; 0x6c
1000466e:	6723      	str	r3, [r4, #112]	; 0x70
10004670:	6763      	str	r3, [r4, #116]	; 0x74
10004672:	67a3      	str	r3, [r4, #120]	; 0x78
10004674:	67e3      	str	r3, [r4, #124]	; 0x7c
10004676:	64a3      	str	r3, [r4, #72]	; 0x48
10004678:	e7d1      	b.n	1000461e <__aeabi_double_init+0x22>
1000467a:	4b05      	ldr	r3, [pc, #20]	; (10004690 <__aeabi_double_init+0x94>)
1000467c:	64a3      	str	r3, [r4, #72]	; 0x48
1000467e:	e7ce      	b.n	1000461e <__aeabi_double_init+0x22>
10004680:	00004453 	.word	0x00004453
10004684:	20000df0 	.word	0x20000df0
10004688:	0000334c 	.word	0x0000334c
1000468c:	20001a74 	.word	0x20001a74
10004690:	10004695 	.word	0x10004695

10004694 <double_table_shim_on_use_helper>:
10004694:	b507      	push	{r0, r1, r2, lr}
10004696:	4660      	mov	r0, ip
10004698:	8801      	ldrh	r1, [r0, #0]
1000469a:	0a0a      	lsrs	r2, r1, #8
1000469c:	3002      	adds	r0, #2
1000469e:	2adf      	cmp	r2, #223	; 0xdf
100046a0:	d1fa      	bne.n	10004698 <double_table_shim_on_use_helper+0x4>
100046a2:	b2c9      	uxtb	r1, r1
100046a4:	0882      	lsrs	r2, r0, #2
100046a6:	d304      	bcc.n	100046b2 <double_table_shim_on_use_helper+0x1e>
100046a8:	8802      	ldrh	r2, [r0, #0]
100046aa:	8840      	ldrh	r0, [r0, #2]
100046ac:	0400      	lsls	r0, r0, #16
100046ae:	4310      	orrs	r0, r2
100046b0:	e000      	b.n	100046b4 <double_table_shim_on_use_helper+0x20>
100046b2:	6800      	ldr	r0, [r0, #0]
100046b4:	4a01      	ldr	r2, [pc, #4]	; (100046bc <double_table_shim_on_use_helper+0x28>)
100046b6:	5050      	str	r0, [r2, r1]
100046b8:	9003      	str	r0, [sp, #12]
100046ba:	bd07      	pop	{r0, r1, r2, pc}
100046bc:	20000df0 	.word	0x20000df0

100046c0 <drsub_shim>:
100046c0:	b40f      	push	{r0, r1, r2, r3}
100046c2:	bc03      	pop	{r0, r1}
100046c4:	bc0c      	pop	{r2, r3}

100046c6 <dsub_shim>:
100046c6:	b5f0      	push	{r4, r5, r6, r7, lr}
100046c8:	2401      	movs	r4, #1
100046ca:	07e4      	lsls	r4, r4, #31
100046cc:	4063      	eors	r3, r4
100046ce:	e000      	b.n	100046d2 <da_entry>

100046d0 <dadd_shim>:
100046d0:	b5f0      	push	{r4, r5, r6, r7, lr}

100046d2 <da_entry>:
100046d2:	0d0c      	lsrs	r4, r1, #20
100046d4:	0fcf      	lsrs	r7, r1, #31
100046d6:	1e66      	subs	r6, r4, #1
100046d8:	0536      	lsls	r6, r6, #20
100046da:	1b89      	subs	r1, r1, r6
100046dc:	0564      	lsls	r4, r4, #21
100046de:	d303      	bcc.n	100046e8 <l7_1>
100046e0:	43c9      	mvns	r1, r1
100046e2:	4240      	negs	r0, r0
100046e4:	d300      	bcc.n	100046e8 <l7_1>
100046e6:	3101      	adds	r1, #1

100046e8 <l7_1>:
100046e8:	0d64      	lsrs	r4, r4, #21
100046ea:	d003      	beq.n	100046f4 <l7_2>
100046ec:	1c66      	adds	r6, r4, #1
100046ee:	0af6      	lsrs	r6, r6, #11
100046f0:	d007      	beq.n	10004702 <l7_3>
100046f2:	1be4      	subs	r4, r4, r7

100046f4 <l7_2>:
100046f4:	2000      	movs	r0, #0
100046f6:	007f      	lsls	r7, r7, #1
100046f8:	1c79      	adds	r1, r7, #1
100046fa:	0789      	lsls	r1, r1, #30
100046fc:	1289      	asrs	r1, r1, #10
100046fe:	3c80      	subs	r4, #128	; 0x80
10004700:	0324      	lsls	r4, r4, #12

10004702 <l7_3>:
10004702:	0d1d      	lsrs	r5, r3, #20
10004704:	0fdf      	lsrs	r7, r3, #31
10004706:	1e6e      	subs	r6, r5, #1
10004708:	0536      	lsls	r6, r6, #20
1000470a:	1b9b      	subs	r3, r3, r6
1000470c:	056d      	lsls	r5, r5, #21
1000470e:	d303      	bcc.n	10004718 <l8_1>
10004710:	43db      	mvns	r3, r3
10004712:	4252      	negs	r2, r2
10004714:	d300      	bcc.n	10004718 <l8_1>
10004716:	3301      	adds	r3, #1

10004718 <l8_1>:
10004718:	0d6d      	lsrs	r5, r5, #21
1000471a:	d003      	beq.n	10004724 <l8_2>
1000471c:	1c6e      	adds	r6, r5, #1
1000471e:	0af6      	lsrs	r6, r6, #11
10004720:	d007      	beq.n	10004732 <l8_3>
10004722:	1bed      	subs	r5, r5, r7

10004724 <l8_2>:
10004724:	2200      	movs	r2, #0
10004726:	007f      	lsls	r7, r7, #1
10004728:	1c7b      	adds	r3, r7, #1
1000472a:	079b      	lsls	r3, r3, #30
1000472c:	129b      	asrs	r3, r3, #10
1000472e:	3d80      	subs	r5, #128	; 0x80
10004730:	032d      	lsls	r5, r5, #12

10004732 <l8_3>:
10004732:	1b2f      	subs	r7, r5, r4
10004734:	1b66      	subs	r6, r4, r5
10004736:	d458      	bmi.n	100047ea <da_ygtx>
10004738:	46a4      	mov	ip, r4
1000473a:	2e20      	cmp	r6, #32
1000473c:	da46      	bge.n	100047cc <da_xrgty>
1000473e:	3720      	adds	r7, #32
10004740:	0014      	movs	r4, r2
10004742:	40bc      	lsls	r4, r7

10004744 <da_xgty0>:
10004744:	001d      	movs	r5, r3
10004746:	40bd      	lsls	r5, r7
10004748:	40f2      	lsrs	r2, r6
1000474a:	4133      	asrs	r3, r6
1000474c:	432a      	orrs	r2, r5

1000474e <da_add>:
1000474e:	1880      	adds	r0, r0, r2
10004750:	4159      	adcs	r1, r3

10004752 <da_pack>:
10004752:	0fcb      	lsrs	r3, r1, #31
10004754:	d005      	beq.n	10004762 <da_pack+0x10>
10004756:	43c9      	mvns	r1, r1
10004758:	43c0      	mvns	r0, r0
1000475a:	2200      	movs	r2, #0
1000475c:	4264      	negs	r4, r4
1000475e:	4150      	adcs	r0, r2
10004760:	4151      	adcs	r1, r2
10004762:	4662      	mov	r2, ip
10004764:	0d4d      	lsrs	r5, r1, #21
10004766:	d128      	bne.n	100047ba <da_0>
10004768:	0d0d      	lsrs	r5, r1, #20
1000476a:	d107      	bne.n	1000477c <da_1>
1000476c:	2800      	cmp	r0, #0
1000476e:	d01f      	beq.n	100047b0 <da_5>

10004770 <da_2>:
10004770:	1924      	adds	r4, r4, r4
10004772:	4140      	adcs	r0, r0
10004774:	4149      	adcs	r1, r1
10004776:	3a01      	subs	r2, #1
10004778:	0d0d      	lsrs	r5, r1, #20
1000477a:	d0f9      	beq.n	10004770 <da_2>

1000477c <da_1>:
1000477c:	0064      	lsls	r4, r4, #1
1000477e:	d306      	bcc.n	1000478e <da_3>

10004780 <da_4>:
10004780:	3001      	adds	r0, #1
10004782:	d300      	bcc.n	10004786 <da_4+0x6>
10004784:	3101      	adds	r1, #1
10004786:	2c00      	cmp	r4, #0
10004788:	d101      	bne.n	1000478e <da_3>
1000478a:	0840      	lsrs	r0, r0, #1
1000478c:	0040      	lsls	r0, r0, #1

1000478e <da_3>:
1000478e:	3a01      	subs	r2, #1
10004790:	d40b      	bmi.n	100047aa <da_6>
10004792:	1c94      	adds	r4, r2, #2
10004794:	0ae4      	lsrs	r4, r4, #11
10004796:	d104      	bne.n	100047a2 <da_7>
10004798:	0512      	lsls	r2, r2, #20
1000479a:	4411      	add	r1, r2
1000479c:	07db      	lsls	r3, r3, #31
1000479e:	4419      	add	r1, r3
100047a0:	bdf0      	pop	{r4, r5, r6, r7, pc}

100047a2 <da_7>:
100047a2:	07d9      	lsls	r1, r3, #31
100047a4:	4b20      	ldr	r3, [pc, #128]	; (10004828 <da_xmgty+0x4>)
100047a6:	4319      	orrs	r1, r3
100047a8:	e000      	b.n	100047ac <da_6+0x2>

100047aa <da_6>:
100047aa:	07d9      	lsls	r1, r3, #31
100047ac:	2000      	movs	r0, #0
100047ae:	bdf0      	pop	{r4, r5, r6, r7, pc}

100047b0 <da_5>:
100047b0:	2900      	cmp	r1, #0
100047b2:	d1dd      	bne.n	10004770 <da_2>
100047b4:	2c00      	cmp	r4, #0
100047b6:	d1db      	bne.n	10004770 <da_2>
100047b8:	bdf0      	pop	{r4, r5, r6, r7, pc}

100047ba <da_0>:
100047ba:	3201      	adds	r2, #1
100047bc:	07c6      	lsls	r6, r0, #31
100047be:	0840      	lsrs	r0, r0, #1
100047c0:	07cd      	lsls	r5, r1, #31
100047c2:	4328      	orrs	r0, r5
100047c4:	0849      	lsrs	r1, r1, #1
100047c6:	2e00      	cmp	r6, #0
100047c8:	d0e1      	beq.n	1000478e <da_3>
100047ca:	e7d9      	b.n	10004780 <da_4>

100047cc <da_xrgty>:
100047cc:	2e3c      	cmp	r6, #60	; 0x3c
100047ce:	da29      	bge.n	10004824 <da_xmgty>
100047d0:	3e20      	subs	r6, #32
100047d2:	3740      	adds	r7, #64	; 0x40
100047d4:	0014      	movs	r4, r2
100047d6:	40bc      	lsls	r4, r7
100047d8:	d000      	beq.n	100047dc <da_xrgty+0x10>
100047da:	2401      	movs	r4, #1
100047dc:	40f2      	lsrs	r2, r6
100047de:	4314      	orrs	r4, r2
100047e0:	001a      	movs	r2, r3
100047e2:	40bb      	lsls	r3, r7
100047e4:	431c      	orrs	r4, r3
100047e6:	17d3      	asrs	r3, r2, #31
100047e8:	e7ac      	b.n	10004744 <da_xgty0>

100047ea <da_ygtx>:
100047ea:	46ac      	mov	ip, r5
100047ec:	2f20      	cmp	r7, #32
100047ee:	da08      	bge.n	10004802 <da_yrgtx>
100047f0:	3620      	adds	r6, #32
100047f2:	0004      	movs	r4, r0
100047f4:	40b4      	lsls	r4, r6

100047f6 <da_ygtx0>:
100047f6:	000d      	movs	r5, r1
100047f8:	40b5      	lsls	r5, r6
100047fa:	40f8      	lsrs	r0, r7
100047fc:	4139      	asrs	r1, r7
100047fe:	4328      	orrs	r0, r5
10004800:	e7a5      	b.n	1000474e <da_add>

10004802 <da_yrgtx>:
10004802:	2f3c      	cmp	r7, #60	; 0x3c
10004804:	da0c      	bge.n	10004820 <da_ymgtx>
10004806:	3f20      	subs	r7, #32
10004808:	3640      	adds	r6, #64	; 0x40
1000480a:	0004      	movs	r4, r0
1000480c:	40b4      	lsls	r4, r6
1000480e:	d000      	beq.n	10004812 <da_yrgtx+0x10>
10004810:	2401      	movs	r4, #1
10004812:	40f8      	lsrs	r0, r7
10004814:	4304      	orrs	r4, r0
10004816:	0008      	movs	r0, r1
10004818:	40b1      	lsls	r1, r6
1000481a:	430c      	orrs	r4, r1
1000481c:	17c1      	asrs	r1, r0, #31
1000481e:	e7ea      	b.n	100047f6 <da_ygtx0>

10004820 <da_ymgtx>:
10004820:	0010      	movs	r0, r2
10004822:	0019      	movs	r1, r3

10004824 <da_xmgty>:
10004824:	2400      	movs	r4, #0
10004826:	e794      	b.n	10004752 <da_pack>
10004828:	7ff00000 	.word	0x7ff00000

1000482c <dmul_shim>:
1000482c:	b5f0      	push	{r4, r5, r6, r7, lr}
1000482e:	0d0c      	lsrs	r4, r1, #20
10004830:	1e66      	subs	r6, r4, #1
10004832:	0536      	lsls	r6, r6, #20
10004834:	1b89      	subs	r1, r1, r6
10004836:	0ae6      	lsrs	r6, r4, #11
10004838:	0564      	lsls	r4, r4, #21
1000483a:	0d64      	lsrs	r4, r4, #21
1000483c:	d002      	beq.n	10004844 <l11_1>
1000483e:	1c65      	adds	r5, r4, #1
10004840:	0aed      	lsrs	r5, r5, #11
10004842:	d004      	beq.n	1000484e <l11_2>

10004844 <l11_1>:
10004844:	2000      	movs	r0, #0
10004846:	2101      	movs	r1, #1
10004848:	0509      	lsls	r1, r1, #20
1000484a:	3c80      	subs	r4, #128	; 0x80
1000484c:	0324      	lsls	r4, r4, #12

1000484e <l11_2>:
1000484e:	46a4      	mov	ip, r4
10004850:	0d1c      	lsrs	r4, r3, #20
10004852:	1e67      	subs	r7, r4, #1
10004854:	053f      	lsls	r7, r7, #20
10004856:	1bdb      	subs	r3, r3, r7
10004858:	0ae7      	lsrs	r7, r4, #11
1000485a:	0564      	lsls	r4, r4, #21
1000485c:	0d64      	lsrs	r4, r4, #21
1000485e:	d002      	beq.n	10004866 <l12_1>
10004860:	1c65      	adds	r5, r4, #1
10004862:	0aed      	lsrs	r5, r5, #11
10004864:	d004      	beq.n	10004870 <l12_2>

10004866 <l12_1>:
10004866:	2200      	movs	r2, #0
10004868:	2301      	movs	r3, #1
1000486a:	051b      	lsls	r3, r3, #20
1000486c:	3c80      	subs	r4, #128	; 0x80
1000486e:	0324      	lsls	r4, r4, #12

10004870 <l12_2>:
10004870:	4077      	eors	r7, r6
10004872:	4464      	add	r4, ip
10004874:	b497      	push	{r0, r1, r2, r4, r7}
10004876:	b284      	uxth	r4, r0
10004878:	b296      	uxth	r6, r2
1000487a:	4374      	muls	r4, r6
1000487c:	0c07      	lsrs	r7, r0, #16
1000487e:	437e      	muls	r6, r7
10004880:	0c15      	lsrs	r5, r2, #16
10004882:	436f      	muls	r7, r5
10004884:	b280      	uxth	r0, r0
10004886:	4368      	muls	r0, r5
10004888:	1836      	adds	r6, r6, r0
1000488a:	d302      	bcc.n	10004892 <l13_1>
1000488c:	2001      	movs	r0, #1
1000488e:	0400      	lsls	r0, r0, #16
10004890:	183f      	adds	r7, r7, r0

10004892 <l13_1>:
10004892:	0430      	lsls	r0, r6, #16
10004894:	0c35      	lsrs	r5, r6, #16
10004896:	1900      	adds	r0, r0, r4
10004898:	417d      	adcs	r5, r7
1000489a:	4684      	mov	ip, r0
1000489c:	b288      	uxth	r0, r1
1000489e:	b29a      	uxth	r2, r3
100048a0:	4350      	muls	r0, r2
100048a2:	0c0c      	lsrs	r4, r1, #16
100048a4:	4362      	muls	r2, r4
100048a6:	0c1f      	lsrs	r7, r3, #16
100048a8:	437c      	muls	r4, r7
100048aa:	b28e      	uxth	r6, r1
100048ac:	437e      	muls	r6, r7
100048ae:	1992      	adds	r2, r2, r6
100048b0:	d302      	bcc.n	100048b8 <l14_1>
100048b2:	2601      	movs	r6, #1
100048b4:	0436      	lsls	r6, r6, #16
100048b6:	19a4      	adds	r4, r4, r6

100048b8 <l14_1>:
100048b8:	0416      	lsls	r6, r2, #16
100048ba:	0c17      	lsrs	r7, r2, #16
100048bc:	1836      	adds	r6, r6, r0
100048be:	4167      	adcs	r7, r4
100048c0:	bc01      	pop	{r0}
100048c2:	b281      	uxth	r1, r0
100048c4:	b29a      	uxth	r2, r3
100048c6:	4351      	muls	r1, r2
100048c8:	0c04      	lsrs	r4, r0, #16
100048ca:	4362      	muls	r2, r4
100048cc:	0c1b      	lsrs	r3, r3, #16
100048ce:	435c      	muls	r4, r3
100048d0:	b280      	uxth	r0, r0
100048d2:	4358      	muls	r0, r3
100048d4:	1812      	adds	r2, r2, r0
100048d6:	d302      	bcc.n	100048de <l15_1>
100048d8:	2001      	movs	r0, #1
100048da:	0400      	lsls	r0, r0, #16
100048dc:	1824      	adds	r4, r4, r0

100048de <l15_1>:
100048de:	0410      	lsls	r0, r2, #16
100048e0:	0c13      	lsrs	r3, r2, #16
100048e2:	1840      	adds	r0, r0, r1
100048e4:	4163      	adcs	r3, r4
100048e6:	182d      	adds	r5, r5, r0
100048e8:	415e      	adcs	r6, r3
100048ea:	2000      	movs	r0, #0
100048ec:	4147      	adcs	r7, r0
100048ee:	bc06      	pop	{r1, r2}
100048f0:	b288      	uxth	r0, r1
100048f2:	b293      	uxth	r3, r2
100048f4:	4358      	muls	r0, r3
100048f6:	0c0c      	lsrs	r4, r1, #16
100048f8:	4363      	muls	r3, r4
100048fa:	0c12      	lsrs	r2, r2, #16
100048fc:	4354      	muls	r4, r2
100048fe:	b289      	uxth	r1, r1
10004900:	4351      	muls	r1, r2
10004902:	185b      	adds	r3, r3, r1
10004904:	d302      	bcc.n	1000490c <l16_1>
10004906:	2101      	movs	r1, #1
10004908:	0409      	lsls	r1, r1, #16
1000490a:	1864      	adds	r4, r4, r1

1000490c <l16_1>:
1000490c:	0419      	lsls	r1, r3, #16
1000490e:	0c1a      	lsrs	r2, r3, #16
10004910:	1809      	adds	r1, r1, r0
10004912:	4162      	adcs	r2, r4
10004914:	186d      	adds	r5, r5, r1
10004916:	4156      	adcs	r6, r2
10004918:	2000      	movs	r0, #0
1000491a:	4147      	adcs	r7, r0
1000491c:	bc18      	pop	{r3, r4}
1000491e:	02f9      	lsls	r1, r7, #11
10004920:	0d72      	lsrs	r2, r6, #21
10004922:	4311      	orrs	r1, r2
10004924:	02f0      	lsls	r0, r6, #11
10004926:	0d6a      	lsrs	r2, r5, #21
10004928:	4310      	orrs	r0, r2
1000492a:	02ed      	lsls	r5, r5, #11
1000492c:	0d0a      	lsrs	r2, r1, #20
1000492e:	d103      	bne.n	10004938 <l16_1+0x2c>
10004930:	196d      	adds	r5, r5, r5
10004932:	4140      	adcs	r0, r0
10004934:	4149      	adcs	r1, r1
10004936:	3b01      	subs	r3, #1
10004938:	4e12      	ldr	r6, [pc, #72]	; (10004984 <dm_1+0xa>)
1000493a:	1b9b      	subs	r3, r3, r6
1000493c:	0076      	lsls	r6, r6, #1
1000493e:	42b3      	cmp	r3, r6
10004940:	d20e      	bcs.n	10004960 <dm_0>
10004942:	006d      	lsls	r5, r5, #1
10004944:	d307      	bcc.n	10004956 <l16_1+0x4a>
10004946:	3001      	adds	r0, #1
10004948:	2600      	movs	r6, #0
1000494a:	4171      	adcs	r1, r6
1000494c:	4666      	mov	r6, ip
1000494e:	4335      	orrs	r5, r6
10004950:	d101      	bne.n	10004956 <l16_1+0x4a>
10004952:	0840      	lsrs	r0, r0, #1
10004954:	0040      	lsls	r0, r0, #1
10004956:	051b      	lsls	r3, r3, #20
10004958:	18c9      	adds	r1, r1, r3

1000495a <dm_2>:
1000495a:	07e4      	lsls	r4, r4, #31
1000495c:	4421      	add	r1, r4
1000495e:	bdf0      	pop	{r4, r5, r6, r7, pc}

10004960 <dm_0>:
10004960:	da0b      	bge.n	1000497a <dm_1>
10004962:	3301      	adds	r3, #1
10004964:	d106      	bne.n	10004974 <dm_0+0x14>
10004966:	3001      	adds	r0, #1
10004968:	d104      	bne.n	10004974 <dm_0+0x14>
1000496a:	3101      	adds	r1, #1
1000496c:	0d4f      	lsrs	r7, r1, #21
1000496e:	d001      	beq.n	10004974 <dm_0+0x14>
10004970:	0849      	lsrs	r1, r1, #1
10004972:	e7f2      	b.n	1000495a <dm_2>
10004974:	07e1      	lsls	r1, r4, #31
10004976:	2000      	movs	r0, #0
10004978:	bdf0      	pop	{r4, r5, r6, r7, pc}

1000497a <dm_1>:
1000497a:	3601      	adds	r6, #1
1000497c:	0531      	lsls	r1, r6, #20
1000497e:	2000      	movs	r0, #0
10004980:	e7eb      	b.n	1000495a <dm_2>
10004982:	0000      	.short	0x0000
10004984:	000003ff 	.word	0x000003ff

10004988 <ddiv_shim>:
10004988:	b5f0      	push	{r4, r5, r6, r7, lr}

1000498a <ddiv0>:
1000498a:	0d1c      	lsrs	r4, r3, #20
1000498c:	1e67      	subs	r7, r4, #1
1000498e:	053f      	lsls	r7, r7, #20
10004990:	1bdb      	subs	r3, r3, r7
10004992:	0ae7      	lsrs	r7, r4, #11
10004994:	0564      	lsls	r4, r4, #21
10004996:	0d64      	lsrs	r4, r4, #21
10004998:	d002      	beq.n	100049a0 <l19_1>
1000499a:	1c66      	adds	r6, r4, #1
1000499c:	0af6      	lsrs	r6, r6, #11
1000499e:	d004      	beq.n	100049aa <l19_2>

100049a0 <l19_1>:
100049a0:	2200      	movs	r2, #0
100049a2:	2301      	movs	r3, #1
100049a4:	051b      	lsls	r3, r3, #20
100049a6:	3c80      	subs	r4, #128	; 0x80
100049a8:	0324      	lsls	r4, r4, #12

100049aa <l19_2>:
100049aa:	25d0      	movs	r5, #208	; 0xd0
100049ac:	062d      	lsls	r5, r5, #24
100049ae:	2600      	movs	r6, #0
100049b0:	43f6      	mvns	r6, r6
100049b2:	662e      	str	r6, [r5, #96]	; 0x60
100049b4:	091e      	lsrs	r6, r3, #4
100049b6:	666e      	str	r6, [r5, #100]	; 0x64
100049b8:	0fce      	lsrs	r6, r1, #31
100049ba:	19f6      	adds	r6, r6, r7
100049bc:	46b4      	mov	ip, r6
100049be:	0049      	lsls	r1, r1, #1
100049c0:	0d4f      	lsrs	r7, r1, #21
100049c2:	d002      	beq.n	100049ca <l19_2+0x20>
100049c4:	1c7e      	adds	r6, r7, #1
100049c6:	0af6      	lsrs	r6, r6, #11
100049c8:	d003      	beq.n	100049d2 <l19_2+0x28>
100049ca:	2000      	movs	r0, #0
100049cc:	2100      	movs	r1, #0
100049ce:	3f40      	subs	r7, #64	; 0x40
100049d0:	033f      	lsls	r7, r7, #12
100049d2:	1b3e      	subs	r6, r7, r4
100049d4:	00b6      	lsls	r6, r6, #2
100049d6:	44b4      	add	ip, r6
100049d8:	3f01      	subs	r7, #1
100049da:	057f      	lsls	r7, r7, #21
100049dc:	1bc9      	subs	r1, r1, r7
100049de:	0849      	lsrs	r1, r1, #1
100049e0:	6f2e      	ldr	r6, [r5, #112]	; 0x70
100049e2:	3601      	adds	r6, #1
100049e4:	0876      	lsrs	r6, r6, #1
100049e6:	029c      	lsls	r4, r3, #10
100049e8:	0d95      	lsrs	r5, r2, #22
100049ea:	4325      	orrs	r5, r4
100049ec:	4375      	muls	r5, r6
100049ee:	13ed      	asrs	r5, r5, #15
100049f0:	4375      	muls	r5, r6
100049f2:	13ad      	asrs	r5, r5, #14
100049f4:	3501      	adds	r5, #1
100049f6:	106d      	asrs	r5, r5, #1
100049f8:	03f6      	lsls	r6, r6, #15
100049fa:	1b76      	subs	r6, r6, r5
100049fc:	b40c      	push	{r2, r3}
100049fe:	02cc      	lsls	r4, r1, #11
10004a00:	0d45      	lsrs	r5, r0, #21
10004a02:	432c      	orrs	r4, r5
10004a04:	b2a2      	uxth	r2, r4
10004a06:	b2b3      	uxth	r3, r6
10004a08:	435a      	muls	r2, r3
10004a0a:	0c27      	lsrs	r7, r4, #16
10004a0c:	437b      	muls	r3, r7
10004a0e:	0c35      	lsrs	r5, r6, #16
10004a10:	436f      	muls	r7, r5
10004a12:	b2a4      	uxth	r4, r4
10004a14:	436c      	muls	r4, r5
10004a16:	191b      	adds	r3, r3, r4
10004a18:	d302      	bcc.n	10004a20 <l20_1>
10004a1a:	2401      	movs	r4, #1
10004a1c:	0424      	lsls	r4, r4, #16
10004a1e:	193f      	adds	r7, r7, r4

10004a20 <l20_1>:
10004a20:	041c      	lsls	r4, r3, #16
10004a22:	0c1d      	lsrs	r5, r3, #16
10004a24:	18a4      	adds	r4, r4, r2
10004a26:	417d      	adcs	r5, r7
10004a28:	1924      	adds	r4, r4, r4
10004a2a:	416d      	adcs	r5, r5
10004a2c:	9a00      	ldr	r2, [sp, #0]
10004a2e:	b291      	uxth	r1, r2
10004a30:	b2ac      	uxth	r4, r5
10004a32:	4361      	muls	r1, r4
10004a34:	0c17      	lsrs	r7, r2, #16
10004a36:	437c      	muls	r4, r7
10004a38:	0c2b      	lsrs	r3, r5, #16
10004a3a:	435f      	muls	r7, r3
10004a3c:	b292      	uxth	r2, r2
10004a3e:	435a      	muls	r2, r3
10004a40:	18a4      	adds	r4, r4, r2
10004a42:	d302      	bcc.n	10004a4a <l21_1>
10004a44:	2201      	movs	r2, #1
10004a46:	0412      	lsls	r2, r2, #16
10004a48:	18bf      	adds	r7, r7, r2

10004a4a <l21_1>:
10004a4a:	0422      	lsls	r2, r4, #16
10004a4c:	0c23      	lsrs	r3, r4, #16
10004a4e:	1852      	adds	r2, r2, r1
10004a50:	417b      	adcs	r3, r7
10004a52:	9c01      	ldr	r4, [sp, #4]
10004a54:	436c      	muls	r4, r5
10004a56:	191b      	adds	r3, r3, r4
10004a58:	0e52      	lsrs	r2, r2, #25
10004a5a:	01d9      	lsls	r1, r3, #7
10004a5c:	430a      	orrs	r2, r1
10004a5e:	0144      	lsls	r4, r0, #5
10004a60:	1aa0      	subs	r0, r4, r2
10004a62:	b281      	uxth	r1, r0
10004a64:	b2b2      	uxth	r2, r6
10004a66:	4351      	muls	r1, r2
10004a68:	1403      	asrs	r3, r0, #16
10004a6a:	435a      	muls	r2, r3
10004a6c:	0c36      	lsrs	r6, r6, #16
10004a6e:	4373      	muls	r3, r6
10004a70:	b287      	uxth	r7, r0
10004a72:	4377      	muls	r7, r6
10004a74:	17d6      	asrs	r6, r2, #31
10004a76:	19d2      	adds	r2, r2, r7
10004a78:	2700      	movs	r7, #0
10004a7a:	417e      	adcs	r6, r7
10004a7c:	0436      	lsls	r6, r6, #16
10004a7e:	199b      	adds	r3, r3, r6
10004a80:	0417      	lsls	r7, r2, #16
10004a82:	0c16      	lsrs	r6, r2, #16
10004a84:	187f      	adds	r7, r7, r1
10004a86:	415e      	adcs	r6, r3
10004a88:	1673      	asrs	r3, r6, #25
10004a8a:	18ed      	adds	r5, r5, r3
10004a8c:	01f3      	lsls	r3, r6, #7
10004a8e:	2600      	movs	r6, #0
10004a90:	3380      	adds	r3, #128	; 0x80
10004a92:	4175      	adcs	r5, r6
10004a94:	0fa9      	lsrs	r1, r5, #30
10004a96:	d106      	bne.n	10004aa6 <dd_0>
10004a98:	0064      	lsls	r4, r4, #1
10004a9a:	0a69      	lsrs	r1, r5, #9
10004a9c:	05e8      	lsls	r0, r5, #23
10004a9e:	0a5b      	lsrs	r3, r3, #9
10004aa0:	4318      	orrs	r0, r3
10004aa2:	d209      	bcs.n	10004ab8 <dd_1>
10004aa4:	e02f      	b.n	10004b06 <dd_2>

10004aa6 <dd_0>:
10004aa6:	2204      	movs	r2, #4
10004aa8:	4494      	add	ip, r2
10004aaa:	3380      	adds	r3, #128	; 0x80
10004aac:	4175      	adcs	r5, r6
10004aae:	0aa9      	lsrs	r1, r5, #10
10004ab0:	05a8      	lsls	r0, r5, #22
10004ab2:	0a9b      	lsrs	r3, r3, #10
10004ab4:	4318      	orrs	r0, r3
10004ab6:	d326      	bcc.n	10004b06 <dd_2>

10004ab8 <dd_1>:
10004ab8:	4140      	adcs	r0, r0
10004aba:	4149      	adcs	r1, r1
10004abc:	0424      	lsls	r4, r4, #16
10004abe:	9a00      	ldr	r2, [sp, #0]
10004ac0:	9b01      	ldr	r3, [sp, #4]
10004ac2:	000d      	movs	r5, r1
10004ac4:	4355      	muls	r5, r2
10004ac6:	1b64      	subs	r4, r4, r5
10004ac8:	4343      	muls	r3, r0
10004aca:	1ae4      	subs	r4, r4, r3
10004acc:	b295      	uxth	r5, r2
10004ace:	b286      	uxth	r6, r0
10004ad0:	4375      	muls	r5, r6
10004ad2:	0c17      	lsrs	r7, r2, #16
10004ad4:	437e      	muls	r6, r7
10004ad6:	0c03      	lsrs	r3, r0, #16
10004ad8:	435f      	muls	r7, r3
10004ada:	b292      	uxth	r2, r2
10004adc:	435a      	muls	r2, r3
10004ade:	18b6      	adds	r6, r6, r2
10004ae0:	d302      	bcc.n	10004ae8 <l23_1>
10004ae2:	2201      	movs	r2, #1
10004ae4:	0412      	lsls	r2, r2, #16
10004ae6:	18bf      	adds	r7, r7, r2

10004ae8 <l23_1>:
10004ae8:	0432      	lsls	r2, r6, #16
10004aea:	0c33      	lsrs	r3, r6, #16
10004aec:	1952      	adds	r2, r2, r5
10004aee:	417b      	adcs	r3, r7
10004af0:	4252      	negs	r2, r2
10004af2:	419c      	sbcs	r4, r3
10004af4:	2c00      	cmp	r4, #0
10004af6:	d402      	bmi.n	10004afe <l23_1+0x16>
10004af8:	2200      	movs	r2, #0
10004afa:	3001      	adds	r0, #1
10004afc:	4151      	adcs	r1, r2
10004afe:	0840      	lsrs	r0, r0, #1
10004b00:	07ca      	lsls	r2, r1, #31
10004b02:	4310      	orrs	r0, r2
10004b04:	0849      	lsrs	r1, r1, #1

10004b06 <dd_2>:
10004b06:	b002      	add	sp, #8
10004b08:	4662      	mov	r2, ip
10004b0a:	07d7      	lsls	r7, r2, #31
10004b0c:	1092      	asrs	r2, r2, #2
10004b0e:	4b08      	ldr	r3, [pc, #32]	; (10004b30 <dd_4+0x6>)
10004b10:	18d2      	adds	r2, r2, r3
10004b12:	4b08      	ldr	r3, [pc, #32]	; (10004b34 <dd_4+0xa>)
10004b14:	429a      	cmp	r2, r3
10004b16:	d203      	bcs.n	10004b20 <dd_3>
10004b18:	0512      	lsls	r2, r2, #20
10004b1a:	1889      	adds	r1, r1, r2

10004b1c <dd_5>:
10004b1c:	19c9      	adds	r1, r1, r7
10004b1e:	bdf0      	pop	{r4, r5, r6, r7, pc}

10004b20 <dd_3>:
10004b20:	2000      	movs	r0, #0
10004b22:	2a00      	cmp	r2, #0
10004b24:	dc01      	bgt.n	10004b2a <dd_4>
10004b26:	0039      	movs	r1, r7
10004b28:	bdf0      	pop	{r4, r5, r6, r7, pc}

10004b2a <dd_4>:
10004b2a:	3301      	adds	r3, #1
10004b2c:	0519      	lsls	r1, r3, #20
10004b2e:	e7f5      	b.n	10004b1c <dd_5>
10004b30:	000003fd 	.word	0x000003fd
10004b34:	000007fe 	.word	0x000007fe

10004b38 <double2uint_shim>:
10004b38:	2200      	movs	r2, #0

10004b3a <double2ufix_shim>:
10004b3a:	b500      	push	{lr}
10004b3c:	3220      	adds	r2, #32
10004b3e:	f000 f804 	bl	10004b4a <double2ufix64_shim>
10004b42:	0008      	movs	r0, r1
10004b44:	bd00      	pop	{pc}
	...

10004b48 <double2uint64_shim>:
10004b48:	2200      	movs	r2, #0

10004b4a <double2ufix64_shim>:
10004b4a:	150b      	asrs	r3, r1, #20
10004b4c:	d40a      	bmi.n	10004b64 <ret_dzero>

10004b4e <d2fix>:
10004b4e:	b510      	push	{r4, lr}
10004b50:	4694      	mov	ip, r2
10004b52:	f000 f831 	bl	10004bb8 <dunpacks>
10004b56:	1414      	asrs	r4, r2, #16
10004b58:	3401      	adds	r4, #1
10004b5a:	da00      	bge.n	10004b5e <d2fix+0x10>
10004b5c:	2100      	movs	r1, #0
10004b5e:	17cb      	asrs	r3, r1, #31
10004b60:	4c14      	ldr	r4, [pc, #80]	; (10004bb4 <d2fix_a+0x4a>)
10004b62:	4720      	bx	r4

10004b64 <ret_dzero>:
10004b64:	2000      	movs	r0, #0
10004b66:	2100      	movs	r1, #0
10004b68:	4770      	bx	lr

10004b6a <d2fix_a>:
10004b6a:	4462      	add	r2, ip
10004b6c:	3a34      	subs	r2, #52	; 0x34
10004b6e:	d40c      	bmi.n	10004b8a <d2fix_a+0x20>
10004b70:	2a0c      	cmp	r2, #12
10004b72:	da07      	bge.n	10004b84 <d2fix_a+0x1a>
10004b74:	0004      	movs	r4, r0
10004b76:	4091      	lsls	r1, r2
10004b78:	4090      	lsls	r0, r2
10004b7a:	4252      	negs	r2, r2
10004b7c:	3220      	adds	r2, #32
10004b7e:	40d4      	lsrs	r4, r2
10004b80:	4321      	orrs	r1, r4
10004b82:	bd10      	pop	{r4, pc}
10004b84:	43d8      	mvns	r0, r3
10004b86:	43d9      	mvns	r1, r3
10004b88:	bd10      	pop	{r4, pc}
10004b8a:	3220      	adds	r2, #32
10004b8c:	d407      	bmi.n	10004b9e <d2fix_a+0x34>
10004b8e:	460c      	mov	r4, r1
10004b90:	4094      	lsls	r4, r2
10004b92:	4252      	negs	r2, r2
10004b94:	3220      	adds	r2, #32
10004b96:	4111      	asrs	r1, r2
10004b98:	40d0      	lsrs	r0, r2
10004b9a:	4320      	orrs	r0, r4
10004b9c:	bd10      	pop	{r4, pc}
10004b9e:	0008      	movs	r0, r1
10004ba0:	17c9      	asrs	r1, r1, #31
10004ba2:	3220      	adds	r2, #32
10004ba4:	d403      	bmi.n	10004bae <d2fix_a+0x44>
10004ba6:	4252      	negs	r2, r2
10004ba8:	3220      	adds	r2, #32
10004baa:	4110      	asrs	r0, r2
10004bac:	bd10      	pop	{r4, pc}
10004bae:	0018      	movs	r0, r3
10004bb0:	0019      	movs	r1, r3
10004bb2:	bd10      	pop	{r4, pc}
10004bb4:	10004b6b 	.word	0x10004b6b

10004bb8 <dunpacks>:
10004bb8:	0d0a      	lsrs	r2, r1, #20
10004bba:	0fcc      	lsrs	r4, r1, #31
10004bbc:	1e53      	subs	r3, r2, #1
10004bbe:	051b      	lsls	r3, r3, #20
10004bc0:	1ac9      	subs	r1, r1, r3
10004bc2:	0552      	lsls	r2, r2, #21
10004bc4:	d303      	bcc.n	10004bce <l59_1>
10004bc6:	43c9      	mvns	r1, r1
10004bc8:	4240      	negs	r0, r0
10004bca:	d300      	bcc.n	10004bce <l59_1>
10004bcc:	3101      	adds	r1, #1

10004bce <l59_1>:
10004bce:	0d52      	lsrs	r2, r2, #21
10004bd0:	d003      	beq.n	10004bda <l59_2>
10004bd2:	1c53      	adds	r3, r2, #1
10004bd4:	0adb      	lsrs	r3, r3, #11
10004bd6:	d007      	beq.n	10004be8 <l59_3>
10004bd8:	1b12      	subs	r2, r2, r4

10004bda <l59_2>:
10004bda:	2000      	movs	r0, #0
10004bdc:	0064      	lsls	r4, r4, #1
10004bde:	1c61      	adds	r1, r4, #1
10004be0:	0789      	lsls	r1, r1, #30
10004be2:	1289      	asrs	r1, r1, #10
10004be4:	3a80      	subs	r2, #128	; 0x80
10004be6:	0312      	lsls	r2, r2, #12

10004be8 <l59_3>:
10004be8:	4b01      	ldr	r3, [pc, #4]	; (10004bf0 <l59_3+0x8>)
10004bea:	1ad2      	subs	r2, r2, r3
10004bec:	4770      	bx	lr
10004bee:	0000      	.short	0x0000
10004bf0:	000003ff 	.word	0x000003ff

10004bf4 <__wrap___aeabi_lmul>:
10004bf4:	4351      	muls	r1, r2
10004bf6:	4343      	muls	r3, r0
10004bf8:	18c9      	adds	r1, r1, r3
10004bfa:	468c      	mov	ip, r1
10004bfc:	0c11      	lsrs	r1, r2, #16
10004bfe:	b283      	uxth	r3, r0
10004c00:	434b      	muls	r3, r1
10004c02:	b410      	push	{r4}
10004c04:	0c04      	lsrs	r4, r0, #16
10004c06:	4361      	muls	r1, r4
10004c08:	b292      	uxth	r2, r2
10004c0a:	b280      	uxth	r0, r0
10004c0c:	4350      	muls	r0, r2
10004c0e:	4362      	muls	r2, r4
10004c10:	041c      	lsls	r4, r3, #16
10004c12:	0c1b      	lsrs	r3, r3, #16
10004c14:	1900      	adds	r0, r0, r4
10004c16:	bc10      	pop	{r4}
10004c18:	4159      	adcs	r1, r3
10004c1a:	0413      	lsls	r3, r2, #16
10004c1c:	0c12      	lsrs	r2, r2, #16
10004c1e:	18c0      	adds	r0, r0, r3
10004c20:	4151      	adcs	r1, r2
10004c22:	4461      	add	r1, ip
10004c24:	4770      	bx	lr
	...

10004c28 <__wrap___aeabi_frsub>:
10004c28:	4048      	eors	r0, r1
10004c2a:	4041      	eors	r1, r0
10004c2c:	4048      	eors	r0, r1

10004c2e <__wrap___aeabi_fsub>:
10004c2e:	4b0e      	ldr	r3, [pc, #56]	; (10004c68 <__wrap___aeabi_fmul+0x6>)
10004c30:	685b      	ldr	r3, [r3, #4]
10004c32:	4718      	bx	r3

10004c34 <__wrap___aeabi_fadd>:
10004c34:	4b0c      	ldr	r3, [pc, #48]	; (10004c68 <__wrap___aeabi_fmul+0x6>)
10004c36:	681b      	ldr	r3, [r3, #0]
10004c38:	4718      	bx	r3

10004c3a <__wrap___aeabi_fdiv>:
10004c3a:	4a0c      	ldr	r2, [pc, #48]	; (10004c6c <__wrap___aeabi_fmul+0xa>)
10004c3c:	6f93      	ldr	r3, [r2, #120]	; 0x78
10004c3e:	089b      	lsrs	r3, r3, #2
10004c40:	d202      	bcs.n	10004c48 <fdiv_save_state>

10004c42 <fdiv_shim_call>:
10004c42:	4b09      	ldr	r3, [pc, #36]	; (10004c68 <__wrap___aeabi_fmul+0x6>)
10004c44:	68db      	ldr	r3, [r3, #12]
10004c46:	4718      	bx	r3

10004c48 <fdiv_save_state>:
10004c48:	b5f0      	push	{r4, r5, r6, r7, lr}
10004c4a:	6e14      	ldr	r4, [r2, #96]	; 0x60
10004c4c:	6e55      	ldr	r5, [r2, #100]	; 0x64
10004c4e:	6f57      	ldr	r7, [r2, #116]	; 0x74
10004c50:	6f16      	ldr	r6, [r2, #112]	; 0x70
10004c52:	f7ff fff6 	bl	10004c42 <fdiv_shim_call>
10004c56:	4a05      	ldr	r2, [pc, #20]	; (10004c6c <__wrap___aeabi_fmul+0xa>)
10004c58:	6614      	str	r4, [r2, #96]	; 0x60
10004c5a:	6655      	str	r5, [r2, #100]	; 0x64
10004c5c:	6757      	str	r7, [r2, #116]	; 0x74
10004c5e:	6716      	str	r6, [r2, #112]	; 0x70
10004c60:	bdf0      	pop	{r4, r5, r6, r7, pc}

10004c62 <__wrap___aeabi_fmul>:
10004c62:	4b01      	ldr	r3, [pc, #4]	; (10004c68 <__wrap___aeabi_fmul+0x6>)
10004c64:	689b      	ldr	r3, [r3, #8]
10004c66:	4718      	bx	r3
10004c68:	20000ef0 	.word	0x20000ef0
10004c6c:	d0000000 	.word	0xd0000000

10004c70 <__wrap___aeabi_ui2f>:
10004c70:	1a49      	subs	r1, r1, r1
10004c72:	2800      	cmp	r0, #0
10004c74:	d108      	bne.n	10004c88 <__aeabi_i2f_main>
10004c76:	4608      	mov	r0, r1
10004c78:	4770      	bx	lr
	...

10004c7c <__wrap___aeabi_i2f>:
10004c7c:	0fc1      	lsrs	r1, r0, #31
10004c7e:	07c9      	lsls	r1, r1, #31
10004c80:	d500      	bpl.n	10004c84 <__wrap___aeabi_i2f+0x8>
10004c82:	4240      	negs	r0, r0
10004c84:	2800      	cmp	r0, #0
10004c86:	d017      	beq.n	10004cb8 <__aeabi_i2f_main+0x30>

10004c88 <__aeabi_i2f_main>:
10004c88:	46f4      	mov	ip, lr
10004c8a:	b403      	push	{r0, r1}
10004c8c:	4b0b      	ldr	r3, [pc, #44]	; (10004cbc <__aeabi_i2f_main+0x34>)
10004c8e:	681b      	ldr	r3, [r3, #0]
10004c90:	4798      	blx	r3
10004c92:	bc06      	pop	{r1, r2}
10004c94:	4081      	lsls	r1, r0
10004c96:	389e      	subs	r0, #158	; 0x9e
10004c98:	4240      	negs	r0, r0
10004c9a:	3180      	adds	r1, #128	; 0x80
10004c9c:	d207      	bcs.n	10004cae <__aeabi_i2f_main+0x26>
10004c9e:	060b      	lsls	r3, r1, #24
10004ca0:	d007      	beq.n	10004cb2 <__aeabi_i2f_main+0x2a>
10004ca2:	0049      	lsls	r1, r1, #1
10004ca4:	0a49      	lsrs	r1, r1, #9
10004ca6:	05c0      	lsls	r0, r0, #23
10004ca8:	4310      	orrs	r0, r2
10004caa:	4308      	orrs	r0, r1
10004cac:	4760      	bx	ip
10004cae:	3001      	adds	r0, #1
10004cb0:	e7f8      	b.n	10004ca4 <__aeabi_i2f_main+0x1c>
10004cb2:	0a49      	lsrs	r1, r1, #9
10004cb4:	0289      	lsls	r1, r1, #10
10004cb6:	e7f5      	b.n	10004ca4 <__aeabi_i2f_main+0x1c>
10004cb8:	4770      	bx	lr
10004cba:	0000      	.short	0x0000
10004cbc:	20001a74 	.word	0x20001a74

10004cc0 <__wrap___aeabi_f2uiz>:
10004cc0:	4b01      	ldr	r3, [pc, #4]	; (10004cc8 <__wrap___aeabi_f2uiz+0x8>)
10004cc2:	6a5b      	ldr	r3, [r3, #36]	; 0x24
10004cc4:	4718      	bx	r3
10004cc6:	0000      	.short	0x0000
10004cc8:	20000ef0 	.word	0x20000ef0

10004ccc <__aeabi_float_init>:
10004ccc:	2313      	movs	r3, #19
10004cce:	b510      	push	{r4, lr}
10004cd0:	4812      	ldr	r0, [pc, #72]	; (10004d1c <__aeabi_float_init+0x50>)
10004cd2:	781c      	ldrb	r4, [r3, #0]
10004cd4:	f7ff f91c 	bl	10003f10 <rom_data_lookup>
10004cd8:	0001      	movs	r1, r0
10004cda:	2c01      	cmp	r4, #1
10004cdc:	d00a      	beq.n	10004cf4 <__aeabi_float_init+0x28>
10004cde:	dd03      	ble.n	10004ce8 <__aeabi_float_init+0x1c>
10004ce0:	2280      	movs	r2, #128	; 0x80
10004ce2:	480f      	ldr	r0, [pc, #60]	; (10004d20 <__aeabi_float_init+0x54>)
10004ce4:	f000 f85a 	bl	10004d9c <__wrap___aeabi_memcpy>
10004ce8:	480e      	ldr	r0, [pc, #56]	; (10004d24 <__aeabi_float_init+0x58>)
10004cea:	f7ff f909 	bl	10003f00 <rom_func_lookup>
10004cee:	4b0e      	ldr	r3, [pc, #56]	; (10004d28 <__aeabi_float_init+0x5c>)
10004cf0:	6018      	str	r0, [r3, #0]
10004cf2:	bd10      	pop	{r4, pc}
10004cf4:	4c0a      	ldr	r4, [pc, #40]	; (10004d20 <__aeabi_float_init+0x54>)
10004cf6:	2254      	movs	r2, #84	; 0x54
10004cf8:	0020      	movs	r0, r4
10004cfa:	f000 f84f 	bl	10004d9c <__wrap___aeabi_memcpy>
10004cfe:	4b0b      	ldr	r3, [pc, #44]	; (10004d2c <__aeabi_float_init+0x60>)
10004d00:	6563      	str	r3, [r4, #84]	; 0x54
10004d02:	65a3      	str	r3, [r4, #88]	; 0x58
10004d04:	65e3      	str	r3, [r4, #92]	; 0x5c
10004d06:	6623      	str	r3, [r4, #96]	; 0x60
10004d08:	6663      	str	r3, [r4, #100]	; 0x64
10004d0a:	66a3      	str	r3, [r4, #104]	; 0x68
10004d0c:	66e3      	str	r3, [r4, #108]	; 0x6c
10004d0e:	6723      	str	r3, [r4, #112]	; 0x70
10004d10:	6763      	str	r3, [r4, #116]	; 0x74
10004d12:	67a3      	str	r3, [r4, #120]	; 0x78
10004d14:	67e3      	str	r3, [r4, #124]	; 0x7c
10004d16:	6223      	str	r3, [r4, #32]
10004d18:	61e3      	str	r3, [r4, #28]
10004d1a:	e7e5      	b.n	10004ce8 <__aeabi_float_init+0x1c>
10004d1c:	00004653 	.word	0x00004653
10004d20:	20000ef0 	.word	0x20000ef0
10004d24:	0000334c 	.word	0x0000334c
10004d28:	20001a74 	.word	0x20001a74
10004d2c:	10004d31 	.word	0x10004d31

10004d30 <float_table_shim_on_use_helper>:
10004d30:	b507      	push	{r0, r1, r2, lr}
10004d32:	4660      	mov	r0, ip
10004d34:	8801      	ldrh	r1, [r0, #0]
10004d36:	0a0a      	lsrs	r2, r1, #8
10004d38:	3002      	adds	r0, #2
10004d3a:	2adf      	cmp	r2, #223	; 0xdf
10004d3c:	d1fa      	bne.n	10004d34 <float_table_shim_on_use_helper+0x4>
10004d3e:	b2c9      	uxtb	r1, r1
10004d40:	0882      	lsrs	r2, r0, #2
10004d42:	d304      	bcc.n	10004d4e <float_table_shim_on_use_helper+0x1e>
10004d44:	8802      	ldrh	r2, [r0, #0]
10004d46:	8840      	ldrh	r0, [r0, #2]
10004d48:	0400      	lsls	r0, r0, #16
10004d4a:	4310      	orrs	r0, r2
10004d4c:	e000      	b.n	10004d50 <float_table_shim_on_use_helper+0x20>
10004d4e:	6800      	ldr	r0, [r0, #0]
10004d50:	4a01      	ldr	r2, [pc, #4]	; (10004d58 <float_table_shim_on_use_helper+0x28>)
10004d52:	5050      	str	r0, [r2, r1]
10004d54:	9003      	str	r0, [sp, #12]
10004d56:	bd07      	pop	{r0, r1, r2, pc}
10004d58:	20000ef0 	.word	0x20000ef0

10004d5c <__wrap_malloc>:
10004d5c:	b510      	push	{r4, lr}
10004d5e:	0004      	movs	r4, r0
10004d60:	f002 ff44 	bl	10007bec <malloc>
10004d64:	2800      	cmp	r0, #0
10004d66:	d004      	beq.n	10004d72 <__wrap_malloc+0x16>
10004d68:	4b03      	ldr	r3, [pc, #12]	; (10004d78 <__wrap_malloc+0x1c>)
10004d6a:	1904      	adds	r4, r0, r4
10004d6c:	429c      	cmp	r4, r3
10004d6e:	d800      	bhi.n	10004d72 <__wrap_malloc+0x16>
10004d70:	bd10      	pop	{r4, pc}
10004d72:	4802      	ldr	r0, [pc, #8]	; (10004d7c <__wrap_malloc+0x20>)
10004d74:	f7fd fa36 	bl	100021e4 <panic>
10004d78:	20040000 	.word	0x20040000
10004d7c:	10008910 	.word	0x10008910

10004d80 <__aeabi_mem_init>:
10004d80:	4801      	ldr	r0, [pc, #4]	; (10004d88 <__aeabi_mem_init+0x8>)
10004d82:	2104      	movs	r1, #4
10004d84:	4b01      	ldr	r3, [pc, #4]	; (10004d8c <__aeabi_mem_init+0xc>)
10004d86:	4718      	bx	r3
10004d88:	20000400 	.word	0x20000400
10004d8c:	10003f21 	.word	0x10003f21

10004d90 <__wrap_memset>:
10004d90:	4b01      	ldr	r3, [pc, #4]	; (10004d98 <__wrap_memset+0x8>)
10004d92:	681b      	ldr	r3, [r3, #0]
10004d94:	4718      	bx	r3
10004d96:	0000      	.short	0x0000
10004d98:	20000400 	.word	0x20000400

10004d9c <__wrap___aeabi_memcpy>:
10004d9c:	4b01      	ldr	r3, [pc, #4]	; (10004da4 <__wrap___aeabi_memcpy+0x8>)
10004d9e:	685b      	ldr	r3, [r3, #4]
10004da0:	4718      	bx	r3
10004da2:	0000      	.short	0x0000
10004da4:	20000400 	.word	0x20000400

10004da8 <_Znaj>:
10004da8:	b510      	push	{r4, lr}
10004daa:	f7ff ffd7 	bl	10004d5c <__wrap_malloc>
10004dae:	bd10      	pop	{r4, pc}

10004db0 <stdio_out_chars_crlf>:
10004db0:	b5f0      	push	{r4, r5, r6, r7, lr}
10004db2:	46c6      	mov	lr, r8
10004db4:	b500      	push	{lr}
10004db6:	7c43      	ldrb	r3, [r0, #17]
10004db8:	0007      	movs	r7, r0
10004dba:	000d      	movs	r5, r1
10004dbc:	0016      	movs	r6, r2
10004dbe:	2b00      	cmp	r3, #0
10004dc0:	d038      	beq.n	10004e34 <stdio_out_chars_crlf+0x84>
10004dc2:	2a00      	cmp	r2, #0
10004dc4:	dd2e      	ble.n	10004e24 <stdio_out_chars_crlf+0x74>
10004dc6:	2100      	movs	r1, #0
10004dc8:	1e6a      	subs	r2, r5, #1
10004dca:	4690      	mov	r8, r2
10004dcc:	5c6a      	ldrb	r2, [r5, r1]
10004dce:	7c03      	ldrb	r3, [r0, #16]
10004dd0:	1c4c      	adds	r4, r1, #1
10004dd2:	2000      	movs	r0, #0
10004dd4:	2a0a      	cmp	r2, #10
10004dd6:	d00c      	beq.n	10004df2 <stdio_out_chars_crlf+0x42>
10004dd8:	42a6      	cmp	r6, r4
10004dda:	d016      	beq.n	10004e0a <stdio_out_chars_crlf+0x5a>
10004ddc:	4643      	mov	r3, r8
10004dde:	5d1b      	ldrb	r3, [r3, r4]
10004de0:	0021      	movs	r1, r4
10004de2:	3b0d      	subs	r3, #13
10004de4:	425a      	negs	r2, r3
10004de6:	4153      	adcs	r3, r2
10004de8:	5c6a      	ldrb	r2, [r5, r1]
10004dea:	b2db      	uxtb	r3, r3
10004dec:	1c4c      	adds	r4, r1, #1
10004dee:	2a0a      	cmp	r2, #10
10004df0:	d1f2      	bne.n	10004dd8 <stdio_out_chars_crlf+0x28>
10004df2:	2b00      	cmp	r3, #0
10004df4:	d1f0      	bne.n	10004dd8 <stdio_out_chars_crlf+0x28>
10004df6:	4281      	cmp	r1, r0
10004df8:	dc17      	bgt.n	10004e2a <stdio_out_chars_crlf+0x7a>
10004dfa:	2102      	movs	r1, #2
10004dfc:	4810      	ldr	r0, [pc, #64]	; (10004e40 <stdio_out_chars_crlf+0x90>)
10004dfe:	683b      	ldr	r3, [r7, #0]
10004e00:	4798      	blx	r3
10004e02:	42a6      	cmp	r6, r4
10004e04:	d007      	beq.n	10004e16 <stdio_out_chars_crlf+0x66>
10004e06:	0020      	movs	r0, r4
10004e08:	e7e8      	b.n	10004ddc <stdio_out_chars_crlf+0x2c>
10004e0a:	4286      	cmp	r6, r0
10004e0c:	dd03      	ble.n	10004e16 <stdio_out_chars_crlf+0x66>
10004e0e:	1a31      	subs	r1, r6, r0
10004e10:	683b      	ldr	r3, [r7, #0]
10004e12:	1828      	adds	r0, r5, r0
10004e14:	4798      	blx	r3
10004e16:	19ad      	adds	r5, r5, r6
10004e18:	3d01      	subs	r5, #1
10004e1a:	782b      	ldrb	r3, [r5, #0]
10004e1c:	3b0d      	subs	r3, #13
10004e1e:	425a      	negs	r2, r3
10004e20:	4153      	adcs	r3, r2
10004e22:	743b      	strb	r3, [r7, #16]
10004e24:	bc80      	pop	{r7}
10004e26:	46b8      	mov	r8, r7
10004e28:	bdf0      	pop	{r4, r5, r6, r7, pc}
10004e2a:	1a09      	subs	r1, r1, r0
10004e2c:	683b      	ldr	r3, [r7, #0]
10004e2e:	1828      	adds	r0, r5, r0
10004e30:	4798      	blx	r3
10004e32:	e7e2      	b.n	10004dfa <stdio_out_chars_crlf+0x4a>
10004e34:	6803      	ldr	r3, [r0, #0]
10004e36:	0011      	movs	r1, r2
10004e38:	0028      	movs	r0, r5
10004e3a:	4798      	blx	r3
10004e3c:	e7f2      	b.n	10004e24 <stdio_out_chars_crlf+0x74>
10004e3e:	46c0      	nop			; (mov r8, r8)
10004e40:	10008980 	.word	0x10008980

10004e44 <stdio_buffered_printer>:
10004e44:	b5f0      	push	{r4, r5, r6, r7, lr}
10004e46:	46c6      	mov	lr, r8
10004e48:	680b      	ldr	r3, [r1, #0]
10004e4a:	0006      	movs	r6, r0
10004e4c:	000c      	movs	r4, r1
10004e4e:	b500      	push	{lr}
10004e50:	2b80      	cmp	r3, #128	; 0x80
10004e52:	d006      	beq.n	10004e62 <stdio_buffered_printer+0x1e>
10004e54:	1c5a      	adds	r2, r3, #1
10004e56:	6022      	str	r2, [r4, #0]
10004e58:	18e4      	adds	r4, r4, r3
10004e5a:	7126      	strb	r6, [r4, #4]
10004e5c:	bc80      	pop	{r7}
10004e5e:	46b8      	mov	r8, r7
10004e60:	bdf0      	pop	{r4, r5, r6, r7, pc}
10004e62:	4b0f      	ldr	r3, [pc, #60]	; (10004ea0 <stdio_buffered_printer+0x5c>)
10004e64:	681d      	ldr	r5, [r3, #0]
10004e66:	2d00      	cmp	r5, #0
10004e68:	d016      	beq.n	10004e98 <stdio_buffered_printer+0x54>
10004e6a:	1d0b      	adds	r3, r1, #4
10004e6c:	4698      	mov	r8, r3
10004e6e:	4f0d      	ldr	r7, [pc, #52]	; (10004ea4 <stdio_buffered_printer+0x60>)
10004e70:	e002      	b.n	10004e78 <stdio_buffered_printer+0x34>
10004e72:	68ed      	ldr	r5, [r5, #12]
10004e74:	2d00      	cmp	r5, #0
10004e76:	d00f      	beq.n	10004e98 <stdio_buffered_printer+0x54>
10004e78:	682b      	ldr	r3, [r5, #0]
10004e7a:	2b00      	cmp	r3, #0
10004e7c:	d0f9      	beq.n	10004e72 <stdio_buffered_printer+0x2e>
10004e7e:	683b      	ldr	r3, [r7, #0]
10004e80:	2b00      	cmp	r3, #0
10004e82:	d001      	beq.n	10004e88 <stdio_buffered_printer+0x44>
10004e84:	42ab      	cmp	r3, r5
10004e86:	d1f4      	bne.n	10004e72 <stdio_buffered_printer+0x2e>
10004e88:	0028      	movs	r0, r5
10004e8a:	4641      	mov	r1, r8
10004e8c:	6822      	ldr	r2, [r4, #0]
10004e8e:	f7ff ff8f 	bl	10004db0 <stdio_out_chars_crlf>
10004e92:	68ed      	ldr	r5, [r5, #12]
10004e94:	2d00      	cmp	r5, #0
10004e96:	d1ef      	bne.n	10004e78 <stdio_buffered_printer+0x34>
10004e98:	2201      	movs	r2, #1
10004e9a:	2300      	movs	r3, #0
10004e9c:	e7db      	b.n	10004e56 <stdio_buffered_printer+0x12>
10004e9e:	46c0      	nop			; (mov r8, r8)
10004ea0:	20001618 	.word	0x20001618
10004ea4:	20001620 	.word	0x20001620

10004ea8 <__wrap_putchar>:
10004ea8:	b5f0      	push	{r4, r5, r6, r7, lr}
10004eaa:	46ce      	mov	lr, r9
10004eac:	4647      	mov	r7, r8
10004eae:	b580      	push	{r7, lr}
10004eb0:	b083      	sub	sp, #12
10004eb2:	466b      	mov	r3, sp
10004eb4:	1cde      	adds	r6, r3, #3
10004eb6:	23d0      	movs	r3, #208	; 0xd0
10004eb8:	7030      	strb	r0, [r6, #0]
10004eba:	061b      	lsls	r3, r3, #24
10004ebc:	681c      	ldr	r4, [r3, #0]
10004ebe:	4b20      	ldr	r3, [pc, #128]	; (10004f40 <__wrap_putchar+0x98>)
10004ec0:	4680      	mov	r8, r0
10004ec2:	a901      	add	r1, sp, #4
10004ec4:	0018      	movs	r0, r3
10004ec6:	4699      	mov	r9, r3
10004ec8:	f003 fb66 	bl	10008598 <__mutex_try_enter_veneer>
10004ecc:	1e07      	subs	r7, r0, #0
10004ece:	d020      	beq.n	10004f12 <__wrap_putchar+0x6a>
10004ed0:	4b1c      	ldr	r3, [pc, #112]	; (10004f44 <__wrap_putchar+0x9c>)
10004ed2:	681c      	ldr	r4, [r3, #0]
10004ed4:	2c00      	cmp	r4, #0
10004ed6:	d029      	beq.n	10004f2c <__wrap_putchar+0x84>
10004ed8:	4d1b      	ldr	r5, [pc, #108]	; (10004f48 <__wrap_putchar+0xa0>)
10004eda:	e002      	b.n	10004ee2 <__wrap_putchar+0x3a>
10004edc:	68e4      	ldr	r4, [r4, #12]
10004ede:	2c00      	cmp	r4, #0
10004ee0:	d00f      	beq.n	10004f02 <__wrap_putchar+0x5a>
10004ee2:	6823      	ldr	r3, [r4, #0]
10004ee4:	2b00      	cmp	r3, #0
10004ee6:	d0f9      	beq.n	10004edc <__wrap_putchar+0x34>
10004ee8:	682b      	ldr	r3, [r5, #0]
10004eea:	2b00      	cmp	r3, #0
10004eec:	d001      	beq.n	10004ef2 <__wrap_putchar+0x4a>
10004eee:	42a3      	cmp	r3, r4
10004ef0:	d1f4      	bne.n	10004edc <__wrap_putchar+0x34>
10004ef2:	0020      	movs	r0, r4
10004ef4:	2201      	movs	r2, #1
10004ef6:	0031      	movs	r1, r6
10004ef8:	f7ff ff5a 	bl	10004db0 <stdio_out_chars_crlf>
10004efc:	68e4      	ldr	r4, [r4, #12]
10004efe:	2c00      	cmp	r4, #0
10004f00:	d1ef      	bne.n	10004ee2 <__wrap_putchar+0x3a>
10004f02:	2f00      	cmp	r7, #0
10004f04:	d112      	bne.n	10004f2c <__wrap_putchar+0x84>
10004f06:	4640      	mov	r0, r8
10004f08:	b003      	add	sp, #12
10004f0a:	bcc0      	pop	{r6, r7}
10004f0c:	46b9      	mov	r9, r7
10004f0e:	46b0      	mov	r8, r6
10004f10:	bdf0      	pop	{r4, r5, r6, r7, pc}
10004f12:	9b01      	ldr	r3, [sp, #4]
10004f14:	b264      	sxtb	r4, r4
10004f16:	429c      	cmp	r4, r3
10004f18:	d00c      	beq.n	10004f34 <__wrap_putchar+0x8c>
10004f1a:	4648      	mov	r0, r9
10004f1c:	f003 fb4c 	bl	100085b8 <__mutex_enter_blocking_veneer>
10004f20:	4b08      	ldr	r3, [pc, #32]	; (10004f44 <__wrap_putchar+0x9c>)
10004f22:	681c      	ldr	r4, [r3, #0]
10004f24:	2c00      	cmp	r4, #0
10004f26:	d001      	beq.n	10004f2c <__wrap_putchar+0x84>
10004f28:	2701      	movs	r7, #1
10004f2a:	e7d5      	b.n	10004ed8 <__wrap_putchar+0x30>
10004f2c:	4648      	mov	r0, r9
10004f2e:	f003 fb1b 	bl	10008568 <__mutex_exit_veneer>
10004f32:	e7e8      	b.n	10004f06 <__wrap_putchar+0x5e>
10004f34:	4b03      	ldr	r3, [pc, #12]	; (10004f44 <__wrap_putchar+0x9c>)
10004f36:	681c      	ldr	r4, [r3, #0]
10004f38:	2c00      	cmp	r4, #0
10004f3a:	d1cd      	bne.n	10004ed8 <__wrap_putchar+0x30>
10004f3c:	e7e3      	b.n	10004f06 <__wrap_putchar+0x5e>
10004f3e:	46c0      	nop			; (mov r8, r8)
10004f40:	20000c94 	.word	0x20000c94
10004f44:	20001618 	.word	0x20001618
10004f48:	20001620 	.word	0x20001620

10004f4c <__wrap_puts>:
10004f4c:	b5f0      	push	{r4, r5, r6, r7, lr}
10004f4e:	46de      	mov	lr, fp
10004f50:	4645      	mov	r5, r8
10004f52:	464e      	mov	r6, r9
10004f54:	4657      	mov	r7, sl
10004f56:	b5e0      	push	{r5, r6, r7, lr}
10004f58:	b083      	sub	sp, #12
10004f5a:	0006      	movs	r6, r0
10004f5c:	f003 f92c 	bl	100081b8 <strlen>
10004f60:	23d0      	movs	r3, #208	; 0xd0
10004f62:	061b      	lsls	r3, r3, #24
10004f64:	681c      	ldr	r4, [r3, #0]
10004f66:	4b30      	ldr	r3, [pc, #192]	; (10005028 <__wrap_puts+0xdc>)
10004f68:	0005      	movs	r5, r0
10004f6a:	a901      	add	r1, sp, #4
10004f6c:	0018      	movs	r0, r3
10004f6e:	469b      	mov	fp, r3
10004f70:	f003 fb12 	bl	10008598 <__mutex_try_enter_veneer>
10004f74:	4680      	mov	r8, r0
10004f76:	2800      	cmp	r0, #0
10004f78:	d03d      	beq.n	10004ff6 <__wrap_puts+0xaa>
10004f7a:	4b2c      	ldr	r3, [pc, #176]	; (1000502c <__wrap_puts+0xe0>)
10004f7c:	681c      	ldr	r4, [r3, #0]
10004f7e:	469a      	mov	sl, r3
10004f80:	2c00      	cmp	r4, #0
10004f82:	d047      	beq.n	10005014 <__wrap_puts+0xc8>
10004f84:	230a      	movs	r3, #10
10004f86:	4f2a      	ldr	r7, [pc, #168]	; (10005030 <__wrap_puts+0xe4>)
10004f88:	4699      	mov	r9, r3
10004f8a:	e002      	b.n	10004f92 <__wrap_puts+0x46>
10004f8c:	68e4      	ldr	r4, [r4, #12]
10004f8e:	2c00      	cmp	r4, #0
10004f90:	d017      	beq.n	10004fc2 <__wrap_puts+0x76>
10004f92:	6823      	ldr	r3, [r4, #0]
10004f94:	2b00      	cmp	r3, #0
10004f96:	d0f9      	beq.n	10004f8c <__wrap_puts+0x40>
10004f98:	683b      	ldr	r3, [r7, #0]
10004f9a:	2b00      	cmp	r3, #0
10004f9c:	d001      	beq.n	10004fa2 <__wrap_puts+0x56>
10004f9e:	42a3      	cmp	r3, r4
10004fa0:	d1f4      	bne.n	10004f8c <__wrap_puts+0x40>
10004fa2:	0020      	movs	r0, r4
10004fa4:	002a      	movs	r2, r5
10004fa6:	0031      	movs	r1, r6
10004fa8:	f7ff ff02 	bl	10004db0 <stdio_out_chars_crlf>
10004fac:	466b      	mov	r3, sp
10004fae:	464a      	mov	r2, r9
10004fb0:	0020      	movs	r0, r4
10004fb2:	711a      	strb	r2, [r3, #4]
10004fb4:	a901      	add	r1, sp, #4
10004fb6:	2201      	movs	r2, #1
10004fb8:	f7ff fefa 	bl	10004db0 <stdio_out_chars_crlf>
10004fbc:	68e4      	ldr	r4, [r4, #12]
10004fbe:	2c00      	cmp	r4, #0
10004fc0:	d1e7      	bne.n	10004f92 <__wrap_puts+0x46>
10004fc2:	4643      	mov	r3, r8
10004fc4:	2b00      	cmp	r3, #0
10004fc6:	d125      	bne.n	10005014 <__wrap_puts+0xc8>
10004fc8:	4653      	mov	r3, sl
10004fca:	681c      	ldr	r4, [r3, #0]
10004fcc:	2c00      	cmp	r4, #0
10004fce:	d006      	beq.n	10004fde <__wrap_puts+0x92>
10004fd0:	6863      	ldr	r3, [r4, #4]
10004fd2:	2b00      	cmp	r3, #0
10004fd4:	d00b      	beq.n	10004fee <__wrap_puts+0xa2>
10004fd6:	4798      	blx	r3
10004fd8:	68e4      	ldr	r4, [r4, #12]
10004fda:	2c00      	cmp	r4, #0
10004fdc:	d1f8      	bne.n	10004fd0 <__wrap_puts+0x84>
10004fde:	0028      	movs	r0, r5
10004fe0:	b003      	add	sp, #12
10004fe2:	bcf0      	pop	{r4, r5, r6, r7}
10004fe4:	46bb      	mov	fp, r7
10004fe6:	46b2      	mov	sl, r6
10004fe8:	46a9      	mov	r9, r5
10004fea:	46a0      	mov	r8, r4
10004fec:	bdf0      	pop	{r4, r5, r6, r7, pc}
10004fee:	68e4      	ldr	r4, [r4, #12]
10004ff0:	2c00      	cmp	r4, #0
10004ff2:	d1ed      	bne.n	10004fd0 <__wrap_puts+0x84>
10004ff4:	e7f3      	b.n	10004fde <__wrap_puts+0x92>
10004ff6:	9b01      	ldr	r3, [sp, #4]
10004ff8:	b264      	sxtb	r4, r4
10004ffa:	429c      	cmp	r4, r3
10004ffc:	d00e      	beq.n	1000501c <__wrap_puts+0xd0>
10004ffe:	4658      	mov	r0, fp
10005000:	f003 fada 	bl	100085b8 <__mutex_enter_blocking_veneer>
10005004:	4b09      	ldr	r3, [pc, #36]	; (1000502c <__wrap_puts+0xe0>)
10005006:	681c      	ldr	r4, [r3, #0]
10005008:	469a      	mov	sl, r3
1000500a:	2c00      	cmp	r4, #0
1000500c:	d002      	beq.n	10005014 <__wrap_puts+0xc8>
1000500e:	2301      	movs	r3, #1
10005010:	4698      	mov	r8, r3
10005012:	e7b7      	b.n	10004f84 <__wrap_puts+0x38>
10005014:	4658      	mov	r0, fp
10005016:	f003 faa7 	bl	10008568 <__mutex_exit_veneer>
1000501a:	e7d5      	b.n	10004fc8 <__wrap_puts+0x7c>
1000501c:	4b03      	ldr	r3, [pc, #12]	; (1000502c <__wrap_puts+0xe0>)
1000501e:	681c      	ldr	r4, [r3, #0]
10005020:	469a      	mov	sl, r3
10005022:	2c00      	cmp	r4, #0
10005024:	d1ae      	bne.n	10004f84 <__wrap_puts+0x38>
10005026:	e7da      	b.n	10004fde <__wrap_puts+0x92>
10005028:	20000c94 	.word	0x20000c94
1000502c:	20001618 	.word	0x20001618
10005030:	20001620 	.word	0x20001620

10005034 <stdio_set_driver_enabled>:
10005034:	4a0a      	ldr	r2, [pc, #40]	; (10005060 <stdio_set_driver_enabled+0x2c>)
10005036:	6813      	ldr	r3, [r2, #0]
10005038:	2b00      	cmp	r3, #0
1000503a:	d105      	bne.n	10005048 <stdio_set_driver_enabled+0x14>
1000503c:	e00c      	b.n	10005058 <stdio_set_driver_enabled+0x24>
1000503e:	001a      	movs	r2, r3
10005040:	68db      	ldr	r3, [r3, #12]
10005042:	320c      	adds	r2, #12
10005044:	2b00      	cmp	r3, #0
10005046:	d007      	beq.n	10005058 <stdio_set_driver_enabled+0x24>
10005048:	4298      	cmp	r0, r3
1000504a:	d1f8      	bne.n	1000503e <stdio_set_driver_enabled+0xa>
1000504c:	2900      	cmp	r1, #0
1000504e:	d102      	bne.n	10005056 <stdio_set_driver_enabled+0x22>
10005050:	68c3      	ldr	r3, [r0, #12]
10005052:	6013      	str	r3, [r2, #0]
10005054:	60c1      	str	r1, [r0, #12]
10005056:	4770      	bx	lr
10005058:	2900      	cmp	r1, #0
1000505a:	d0fc      	beq.n	10005056 <stdio_set_driver_enabled+0x22>
1000505c:	6010      	str	r0, [r2, #0]
1000505e:	e7fa      	b.n	10005056 <stdio_set_driver_enabled+0x22>
10005060:	20001618 	.word	0x20001618

10005064 <__wrap_vprintf>:
10005064:	b5f0      	push	{r4, r5, r6, r7, lr}
10005066:	4647      	mov	r7, r8
10005068:	46ce      	mov	lr, r9
1000506a:	23d0      	movs	r3, #208	; 0xd0
1000506c:	b580      	push	{r7, lr}
1000506e:	061b      	lsls	r3, r3, #24
10005070:	681f      	ldr	r7, [r3, #0]
10005072:	4b2d      	ldr	r3, [pc, #180]	; (10005128 <__wrap_vprintf+0xc4>)
10005074:	b0a3      	sub	sp, #140	; 0x8c
10005076:	0004      	movs	r4, r0
10005078:	000d      	movs	r5, r1
1000507a:	0018      	movs	r0, r3
1000507c:	a901      	add	r1, sp, #4
1000507e:	4698      	mov	r8, r3
10005080:	f003 fa8a 	bl	10008598 <__mutex_try_enter_veneer>
10005084:	1e06      	subs	r6, r0, #0
10005086:	d106      	bne.n	10005096 <__wrap_vprintf+0x32>
10005088:	9b01      	ldr	r3, [sp, #4]
1000508a:	b27f      	sxtb	r7, r7
1000508c:	429f      	cmp	r7, r3
1000508e:	d003      	beq.n	10005098 <__wrap_vprintf+0x34>
10005090:	4640      	mov	r0, r8
10005092:	f003 fa91 	bl	100085b8 <__mutex_enter_blocking_veneer>
10005096:	2601      	movs	r6, #1
10005098:	2284      	movs	r2, #132	; 0x84
1000509a:	2100      	movs	r1, #0
1000509c:	a801      	add	r0, sp, #4
1000509e:	f7ff fe77 	bl	10004d90 <__wrap_memset>
100050a2:	002b      	movs	r3, r5
100050a4:	0022      	movs	r2, r4
100050a6:	4821      	ldr	r0, [pc, #132]	; (1000512c <__wrap_vprintf+0xc8>)
100050a8:	a901      	add	r1, sp, #4
100050aa:	f7fe fef9 	bl	10003ea0 <vfctprintf>
100050ae:	9b01      	ldr	r3, [sp, #4]
100050b0:	0007      	movs	r7, r0
100050b2:	2b00      	cmp	r3, #0
100050b4:	d114      	bne.n	100050e0 <__wrap_vprintf+0x7c>
100050b6:	4b1e      	ldr	r3, [pc, #120]	; (10005130 <__wrap_vprintf+0xcc>)
100050b8:	681c      	ldr	r4, [r3, #0]
100050ba:	2c00      	cmp	r4, #0
100050bc:	d006      	beq.n	100050cc <__wrap_vprintf+0x68>
100050be:	6863      	ldr	r3, [r4, #4]
100050c0:	2b00      	cmp	r3, #0
100050c2:	d00b      	beq.n	100050dc <__wrap_vprintf+0x78>
100050c4:	4798      	blx	r3
100050c6:	68e4      	ldr	r4, [r4, #12]
100050c8:	2c00      	cmp	r4, #0
100050ca:	d1f8      	bne.n	100050be <__wrap_vprintf+0x5a>
100050cc:	2e00      	cmp	r6, #0
100050ce:	d125      	bne.n	1000511c <__wrap_vprintf+0xb8>
100050d0:	0038      	movs	r0, r7
100050d2:	b023      	add	sp, #140	; 0x8c
100050d4:	bcc0      	pop	{r6, r7}
100050d6:	46b9      	mov	r9, r7
100050d8:	46b0      	mov	r8, r6
100050da:	bdf0      	pop	{r4, r5, r6, r7, pc}
100050dc:	68e4      	ldr	r4, [r4, #12]
100050de:	e7ec      	b.n	100050ba <__wrap_vprintf+0x56>
100050e0:	4b13      	ldr	r3, [pc, #76]	; (10005130 <__wrap_vprintf+0xcc>)
100050e2:	681d      	ldr	r5, [r3, #0]
100050e4:	4699      	mov	r9, r3
100050e6:	2d00      	cmp	r5, #0
100050e8:	d01c      	beq.n	10005124 <__wrap_vprintf+0xc0>
100050ea:	4c12      	ldr	r4, [pc, #72]	; (10005134 <__wrap_vprintf+0xd0>)
100050ec:	e002      	b.n	100050f4 <__wrap_vprintf+0x90>
100050ee:	68ed      	ldr	r5, [r5, #12]
100050f0:	2d00      	cmp	r5, #0
100050f2:	d00f      	beq.n	10005114 <__wrap_vprintf+0xb0>
100050f4:	682b      	ldr	r3, [r5, #0]
100050f6:	2b00      	cmp	r3, #0
100050f8:	d0f9      	beq.n	100050ee <__wrap_vprintf+0x8a>
100050fa:	6823      	ldr	r3, [r4, #0]
100050fc:	2b00      	cmp	r3, #0
100050fe:	d001      	beq.n	10005104 <__wrap_vprintf+0xa0>
10005100:	42ab      	cmp	r3, r5
10005102:	d1f4      	bne.n	100050ee <__wrap_vprintf+0x8a>
10005104:	0028      	movs	r0, r5
10005106:	9a01      	ldr	r2, [sp, #4]
10005108:	a902      	add	r1, sp, #8
1000510a:	f7ff fe51 	bl	10004db0 <stdio_out_chars_crlf>
1000510e:	68ed      	ldr	r5, [r5, #12]
10005110:	2d00      	cmp	r5, #0
10005112:	d1ef      	bne.n	100050f4 <__wrap_vprintf+0x90>
10005114:	464b      	mov	r3, r9
10005116:	9501      	str	r5, [sp, #4]
10005118:	681c      	ldr	r4, [r3, #0]
1000511a:	e7ce      	b.n	100050ba <__wrap_vprintf+0x56>
1000511c:	4640      	mov	r0, r8
1000511e:	f003 fa23 	bl	10008568 <__mutex_exit_veneer>
10005122:	e7d5      	b.n	100050d0 <__wrap_vprintf+0x6c>
10005124:	9501      	str	r5, [sp, #4]
10005126:	e7d1      	b.n	100050cc <__wrap_vprintf+0x68>
10005128:	20000c94 	.word	0x20000c94
1000512c:	10004e45 	.word	0x10004e45
10005130:	20001618 	.word	0x20001618
10005134:	20001620 	.word	0x20001620

10005138 <__wrap_printf>:
10005138:	b40f      	push	{r0, r1, r2, r3}
1000513a:	b500      	push	{lr}
1000513c:	b083      	sub	sp, #12
1000513e:	a904      	add	r1, sp, #16
10005140:	c901      	ldmia	r1!, {r0}
10005142:	9101      	str	r1, [sp, #4]
10005144:	f7ff ff8e 	bl	10005064 <__wrap_vprintf>
10005148:	b003      	add	sp, #12
1000514a:	bc08      	pop	{r3}
1000514c:	b004      	add	sp, #16
1000514e:	4718      	bx	r3

10005150 <stdio_init_all>:
10005150:	b510      	push	{r4, lr}
10005152:	f000 f93d 	bl	100053d0 <stdio_usb_init>
10005156:	bd10      	pop	{r4, pc}

10005158 <resetd_init>:
10005158:	4770      	bx	lr
1000515a:	46c0      	nop			; (mov r8, r8)

1000515c <resetd_reset>:
1000515c:	2200      	movs	r2, #0
1000515e:	4b01      	ldr	r3, [pc, #4]	; (10005164 <resetd_reset+0x8>)
10005160:	701a      	strb	r2, [r3, #0]
10005162:	4770      	bx	lr
10005164:	20001aba 	.word	0x20001aba

10005168 <resetd_open>:
10005168:	794b      	ldrb	r3, [r1, #5]
1000516a:	2000      	movs	r0, #0
1000516c:	2bff      	cmp	r3, #255	; 0xff
1000516e:	d10b      	bne.n	10005188 <resetd_open+0x20>
10005170:	798b      	ldrb	r3, [r1, #6]
10005172:	2b00      	cmp	r3, #0
10005174:	d108      	bne.n	10005188 <resetd_open+0x20>
10005176:	79cb      	ldrb	r3, [r1, #7]
10005178:	2b01      	cmp	r3, #1
1000517a:	d105      	bne.n	10005188 <resetd_open+0x20>
1000517c:	2a08      	cmp	r2, #8
1000517e:	d903      	bls.n	10005188 <resetd_open+0x20>
10005180:	4b02      	ldr	r3, [pc, #8]	; (1000518c <resetd_open+0x24>)
10005182:	788a      	ldrb	r2, [r1, #2]
10005184:	3009      	adds	r0, #9
10005186:	701a      	strb	r2, [r3, #0]
10005188:	4770      	bx	lr
1000518a:	46c0      	nop			; (mov r8, r8)
1000518c:	20001aba 	.word	0x20001aba

10005190 <resetd_xfer_cb>:
10005190:	2001      	movs	r0, #1
10005192:	4770      	bx	lr

10005194 <resetd_control_xfer_cb>:
10005194:	b570      	push	{r4, r5, r6, lr}
10005196:	2900      	cmp	r1, #0
10005198:	d113      	bne.n	100051c2 <resetd_control_xfer_cb+0x2e>
1000519a:	4914      	ldr	r1, [pc, #80]	; (100051ec <resetd_control_xfer_cb+0x58>)
1000519c:	7953      	ldrb	r3, [r2, #5]
1000519e:	7910      	ldrb	r0, [r2, #4]
100051a0:	7809      	ldrb	r1, [r1, #0]
100051a2:	021b      	lsls	r3, r3, #8
100051a4:	4303      	orrs	r3, r0
100051a6:	2000      	movs	r0, #0
100051a8:	4299      	cmp	r1, r3
100051aa:	d000      	beq.n	100051ae <resetd_control_xfer_cb+0x1a>
100051ac:	bd70      	pop	{r4, r5, r6, pc}
100051ae:	7853      	ldrb	r3, [r2, #1]
100051b0:	2b01      	cmp	r3, #1
100051b2:	d008      	beq.n	100051c6 <resetd_control_xfer_cb+0x32>
100051b4:	2b02      	cmp	r3, #2
100051b6:	d1f9      	bne.n	100051ac <resetd_control_xfer_cb+0x18>
100051b8:	2264      	movs	r2, #100	; 0x64
100051ba:	2100      	movs	r1, #0
100051bc:	2000      	movs	r0, #0
100051be:	f7fd fa8f 	bl	100026e0 <watchdog_reboot>
100051c2:	2001      	movs	r0, #1
100051c4:	e7f2      	b.n	100051ac <resetd_control_xfer_cb+0x18>
100051c6:	7894      	ldrb	r4, [r2, #2]
100051c8:	78d2      	ldrb	r2, [r2, #3]
100051ca:	0005      	movs	r5, r0
100051cc:	0212      	lsls	r2, r2, #8
100051ce:	4314      	orrs	r4, r2
100051d0:	05d2      	lsls	r2, r2, #23
100051d2:	d502      	bpl.n	100051da <resetd_control_xfer_cb+0x46>
100051d4:	0a62      	lsrs	r2, r4, #9
100051d6:	4093      	lsls	r3, r2
100051d8:	001d      	movs	r5, r3
100051da:	4805      	ldr	r0, [pc, #20]	; (100051f0 <resetd_control_xfer_cb+0x5c>)
100051dc:	f7fe fe90 	bl	10003f00 <rom_func_lookup>
100051e0:	217f      	movs	r1, #127	; 0x7f
100051e2:	0003      	movs	r3, r0
100051e4:	4021      	ands	r1, r4
100051e6:	0028      	movs	r0, r5
100051e8:	4798      	blx	r3
100051ea:	46c0      	nop			; (mov r8, r8)
100051ec:	20001aba 	.word	0x20001aba
100051f0:	00004255 	.word	0x00004255

100051f4 <usbd_app_driver_get_cb>:
100051f4:	2301      	movs	r3, #1
100051f6:	7003      	strb	r3, [r0, #0]
100051f8:	4800      	ldr	r0, [pc, #0]	; (100051fc <usbd_app_driver_get_cb+0x8>)
100051fa:	4770      	bx	lr
100051fc:	10008984 	.word	0x10008984

10005200 <tud_cdc_line_coding_cb>:
10005200:	784b      	ldrb	r3, [r1, #1]
10005202:	780a      	ldrb	r2, [r1, #0]
10005204:	021b      	lsls	r3, r3, #8
10005206:	4313      	orrs	r3, r2
10005208:	788a      	ldrb	r2, [r1, #2]
1000520a:	b510      	push	{r4, lr}
1000520c:	0412      	lsls	r2, r2, #16
1000520e:	431a      	orrs	r2, r3
10005210:	78cb      	ldrb	r3, [r1, #3]
10005212:	061b      	lsls	r3, r3, #24
10005214:	4313      	orrs	r3, r2
10005216:	2296      	movs	r2, #150	; 0x96
10005218:	00d2      	lsls	r2, r2, #3
1000521a:	4293      	cmp	r3, r2
1000521c:	d000      	beq.n	10005220 <tud_cdc_line_coding_cb+0x20>
1000521e:	bd10      	pop	{r4, pc}
10005220:	4803      	ldr	r0, [pc, #12]	; (10005230 <tud_cdc_line_coding_cb+0x30>)
10005222:	f7fe fe6d 	bl	10003f00 <rom_func_lookup>
10005226:	2100      	movs	r1, #0
10005228:	0003      	movs	r3, r0
1000522a:	0008      	movs	r0, r1
1000522c:	4798      	blx	r3
1000522e:	46c0      	nop			; (mov r8, r8)
10005230:	00004255 	.word	0x00004255

10005234 <stdio_usb_in_chars>:
10005234:	b570      	push	{r4, r5, r6, lr}
10005236:	4c18      	ldr	r4, [pc, #96]	; (10005298 <stdio_usb_in_chars+0x64>)
10005238:	b082      	sub	sp, #8
1000523a:	0006      	movs	r6, r0
1000523c:	000d      	movs	r5, r1
1000523e:	0020      	movs	r0, r4
10005240:	a901      	add	r1, sp, #4
10005242:	f003 f9a9 	bl	10008598 <__mutex_try_enter_veneer>
10005246:	2800      	cmp	r0, #0
10005248:	d108      	bne.n	1000525c <stdio_usb_in_chars+0x28>
1000524a:	23d0      	movs	r3, #208	; 0xd0
1000524c:	061b      	lsls	r3, r3, #24
1000524e:	9a01      	ldr	r2, [sp, #4]
10005250:	681b      	ldr	r3, [r3, #0]
10005252:	429a      	cmp	r2, r3
10005254:	d01c      	beq.n	10005290 <stdio_usb_in_chars+0x5c>
10005256:	0020      	movs	r0, r4
10005258:	f003 f9ae 	bl	100085b8 <__mutex_enter_blocking_veneer>
1000525c:	2000      	movs	r0, #0
1000525e:	f001 fda5 	bl	10006dac <tud_cdc_n_connected>
10005262:	2800      	cmp	r0, #0
10005264:	d107      	bne.n	10005276 <stdio_usb_in_chars+0x42>
10005266:	2503      	movs	r5, #3
10005268:	426d      	negs	r5, r5
1000526a:	0020      	movs	r0, r4
1000526c:	f003 f97c 	bl	10008568 <__mutex_exit_veneer>
10005270:	0028      	movs	r0, r5
10005272:	b002      	add	sp, #8
10005274:	bd70      	pop	{r4, r5, r6, pc}
10005276:	2000      	movs	r0, #0
10005278:	f001 fdb0 	bl	10006ddc <tud_cdc_n_available>
1000527c:	2800      	cmp	r0, #0
1000527e:	d0f2      	beq.n	10005266 <stdio_usb_in_chars+0x32>
10005280:	002a      	movs	r2, r5
10005282:	0031      	movs	r1, r6
10005284:	2000      	movs	r0, #0
10005286:	f001 fdb5 	bl	10006df4 <tud_cdc_n_read>
1000528a:	1e05      	subs	r5, r0, #0
1000528c:	d0eb      	beq.n	10005266 <stdio_usb_in_chars+0x32>
1000528e:	e7ec      	b.n	1000526a <stdio_usb_in_chars+0x36>
10005290:	2503      	movs	r5, #3
10005292:	426d      	negs	r5, r5
10005294:	e7ec      	b.n	10005270 <stdio_usb_in_chars+0x3c>
10005296:	46c0      	nop			; (mov r8, r8)
10005298:	20001a7c 	.word	0x20001a7c

1000529c <stdio_usb_out_chars>:
1000529c:	b5f0      	push	{r4, r5, r6, r7, lr}
1000529e:	46de      	mov	lr, fp
100052a0:	464e      	mov	r6, r9
100052a2:	4657      	mov	r7, sl
100052a4:	b5c0      	push	{r6, r7, lr}
100052a6:	4b34      	ldr	r3, [pc, #208]	; (10005378 <stdio_usb_out_chars+0xdc>)
100052a8:	b082      	sub	sp, #8
100052aa:	4681      	mov	r9, r0
100052ac:	000d      	movs	r5, r1
100052ae:	0018      	movs	r0, r3
100052b0:	a901      	add	r1, sp, #4
100052b2:	469b      	mov	fp, r3
100052b4:	f003 f970 	bl	10008598 <__mutex_try_enter_veneer>
100052b8:	2800      	cmp	r0, #0
100052ba:	d108      	bne.n	100052ce <stdio_usb_out_chars+0x32>
100052bc:	23d0      	movs	r3, #208	; 0xd0
100052be:	061b      	lsls	r3, r3, #24
100052c0:	9a01      	ldr	r2, [sp, #4]
100052c2:	681b      	ldr	r3, [r3, #0]
100052c4:	429a      	cmp	r2, r3
100052c6:	d050      	beq.n	1000536a <stdio_usb_out_chars+0xce>
100052c8:	4658      	mov	r0, fp
100052ca:	f003 f975 	bl	100085b8 <__mutex_enter_blocking_veneer>
100052ce:	2000      	movs	r0, #0
100052d0:	f001 fd6c 	bl	10006dac <tud_cdc_n_connected>
100052d4:	2800      	cmp	r0, #0
100052d6:	d040      	beq.n	1000535a <stdio_usb_out_chars+0xbe>
100052d8:	2400      	movs	r4, #0
100052da:	2d00      	cmp	r5, #0
100052dc:	dd42      	ble.n	10005364 <stdio_usb_out_chars+0xc8>
100052de:	4b27      	ldr	r3, [pc, #156]	; (1000537c <stdio_usb_out_chars+0xe0>)
100052e0:	469a      	mov	sl, r3
100052e2:	e012      	b.n	1000530a <stdio_usb_out_chars+0x6e>
100052e4:	464b      	mov	r3, r9
100052e6:	2000      	movs	r0, #0
100052e8:	1919      	adds	r1, r3, r4
100052ea:	f001 fdf7 	bl	10006edc <tud_cdc_n_write>
100052ee:	0006      	movs	r6, r0
100052f0:	f000 fdea 	bl	10005ec8 <tud_task>
100052f4:	2000      	movs	r0, #0
100052f6:	f001 fdb5 	bl	10006e64 <tud_cdc_n_write_flush>
100052fa:	f7fc fbd1 	bl	10001aa0 <time_us_64>
100052fe:	4653      	mov	r3, sl
10005300:	6018      	str	r0, [r3, #0]
10005302:	6059      	str	r1, [r3, #4]
10005304:	19a4      	adds	r4, r4, r6
10005306:	42ac      	cmp	r4, r5
10005308:	da2c      	bge.n	10005364 <stdio_usb_out_chars+0xc8>
1000530a:	2000      	movs	r0, #0
1000530c:	f001 fe00 	bl	10006f10 <tud_cdc_n_write_available>
10005310:	1b2e      	subs	r6, r5, r4
10005312:	0002      	movs	r2, r0
10005314:	42b0      	cmp	r0, r6
10005316:	dd00      	ble.n	1000531a <stdio_usb_out_chars+0x7e>
10005318:	0032      	movs	r2, r6
1000531a:	2a00      	cmp	r2, #0
1000531c:	d1e2      	bne.n	100052e4 <stdio_usb_out_chars+0x48>
1000531e:	f000 fdd3 	bl	10005ec8 <tud_task>
10005322:	2000      	movs	r0, #0
10005324:	f001 fd9e 	bl	10006e64 <tud_cdc_n_write_flush>
10005328:	2000      	movs	r0, #0
1000532a:	f001 fd3f 	bl	10006dac <tud_cdc_n_connected>
1000532e:	2800      	cmp	r0, #0
10005330:	d018      	beq.n	10005364 <stdio_usb_out_chars+0xc8>
10005332:	2000      	movs	r0, #0
10005334:	f001 fdec 	bl	10006f10 <tud_cdc_n_write_available>
10005338:	2800      	cmp	r0, #0
1000533a:	d1e4      	bne.n	10005306 <stdio_usb_out_chars+0x6a>
1000533c:	f7fc fbb0 	bl	10001aa0 <time_us_64>
10005340:	2700      	movs	r7, #0
10005342:	4653      	mov	r3, sl
10005344:	4e0e      	ldr	r6, [pc, #56]	; (10005380 <stdio_usb_out_chars+0xe4>)
10005346:	681a      	ldr	r2, [r3, #0]
10005348:	685b      	ldr	r3, [r3, #4]
1000534a:	1992      	adds	r2, r2, r6
1000534c:	417b      	adcs	r3, r7
1000534e:	4299      	cmp	r1, r3
10005350:	d808      	bhi.n	10005364 <stdio_usb_out_chars+0xc8>
10005352:	d1d8      	bne.n	10005306 <stdio_usb_out_chars+0x6a>
10005354:	4290      	cmp	r0, r2
10005356:	d9d6      	bls.n	10005306 <stdio_usb_out_chars+0x6a>
10005358:	e004      	b.n	10005364 <stdio_usb_out_chars+0xc8>
1000535a:	2000      	movs	r0, #0
1000535c:	2100      	movs	r1, #0
1000535e:	4b07      	ldr	r3, [pc, #28]	; (1000537c <stdio_usb_out_chars+0xe0>)
10005360:	6018      	str	r0, [r3, #0]
10005362:	6059      	str	r1, [r3, #4]
10005364:	4658      	mov	r0, fp
10005366:	f003 f8ff 	bl	10008568 <__mutex_exit_veneer>
1000536a:	b002      	add	sp, #8
1000536c:	bce0      	pop	{r5, r6, r7}
1000536e:	46bb      	mov	fp, r7
10005370:	46b2      	mov	sl, r6
10005372:	46a9      	mov	r9, r5
10005374:	bdf0      	pop	{r4, r5, r6, r7, pc}
10005376:	46c0      	nop			; (mov r8, r8)
10005378:	20001a7c 	.word	0x20001a7c
1000537c:	20000de8 	.word	0x20000de8
10005380:	0007a120 	.word	0x0007a120

10005384 <timer_task>:
10005384:	b510      	push	{r4, lr}
10005386:	4b04      	ldr	r3, [pc, #16]	; (10005398 <timer_task+0x14>)
10005388:	7818      	ldrb	r0, [r3, #0]
1000538a:	f7fb fc8b 	bl	10000ca4 <irq_set_pending>
1000538e:	20fa      	movs	r0, #250	; 0xfa
10005390:	2100      	movs	r1, #0
10005392:	0080      	lsls	r0, r0, #2
10005394:	bd10      	pop	{r4, pc}
10005396:	46c0      	nop			; (mov r8, r8)
10005398:	20001abb 	.word	0x20001abb

1000539c <usb_irq>:
1000539c:	b510      	push	{r4, lr}
1000539e:	4b02      	ldr	r3, [pc, #8]	; (100053a8 <usb_irq+0xc>)
100053a0:	7818      	ldrb	r0, [r3, #0]
100053a2:	f7fb fc7f 	bl	10000ca4 <irq_set_pending>
100053a6:	bd10      	pop	{r4, pc}
100053a8:	20001abb 	.word	0x20001abb

100053ac <low_priority_worker_irq>:
100053ac:	b510      	push	{r4, lr}
100053ae:	4c07      	ldr	r4, [pc, #28]	; (100053cc <low_priority_worker_irq+0x20>)
100053b0:	2100      	movs	r1, #0
100053b2:	0020      	movs	r0, r4
100053b4:	f003 f8f0 	bl	10008598 <__mutex_try_enter_veneer>
100053b8:	2800      	cmp	r0, #0
100053ba:	d100      	bne.n	100053be <low_priority_worker_irq+0x12>
100053bc:	bd10      	pop	{r4, pc}
100053be:	f000 fd83 	bl	10005ec8 <tud_task>
100053c2:	0020      	movs	r0, r4
100053c4:	f003 f8d0 	bl	10008568 <__mutex_exit_veneer>
100053c8:	e7f8      	b.n	100053bc <low_priority_worker_irq+0x10>
100053ca:	46c0      	nop			; (mov r8, r8)
100053cc:	20001a7c 	.word	0x20001a7c

100053d0 <stdio_usb_init>:
100053d0:	b5f0      	push	{r4, r5, r6, r7, lr}
100053d2:	4b24      	ldr	r3, [pc, #144]	; (10005464 <stdio_usb_init+0x94>)
100053d4:	b085      	sub	sp, #20
100053d6:	781b      	ldrb	r3, [r3, #0]
100053d8:	f001 ff7c 	bl	100072d4 <tusb_init>
100053dc:	4822      	ldr	r0, [pc, #136]	; (10005468 <stdio_usb_init+0x98>)
100053de:	f7fc fe45 	bl	1000206c <mutex_init>
100053e2:	2001      	movs	r0, #1
100053e4:	f7fb fef0 	bl	100011c8 <user_irq_claim_unused>
100053e8:	23ff      	movs	r3, #255	; 0xff
100053ea:	4c20      	ldr	r4, [pc, #128]	; (1000546c <stdio_usb_init+0x9c>)
100053ec:	4920      	ldr	r1, [pc, #128]	; (10005470 <stdio_usb_init+0xa0>)
100053ee:	7020      	strb	r0, [r4, #0]
100053f0:	4018      	ands	r0, r3
100053f2:	f7fb fc7d 	bl	10000cf0 <irq_set_exclusive_handler>
100053f6:	7820      	ldrb	r0, [r4, #0]
100053f8:	2101      	movs	r1, #1
100053fa:	f7fb fc41 	bl	10000c80 <irq_set_enabled>
100053fe:	2005      	movs	r0, #5
10005400:	f7fb fc58 	bl	10000cb4 <irq_has_shared_handler>
10005404:	1e04      	subs	r4, r0, #0
10005406:	d00c      	beq.n	10005422 <stdio_usb_init+0x52>
10005408:	2200      	movs	r2, #0
1000540a:	2005      	movs	r0, #5
1000540c:	4919      	ldr	r1, [pc, #100]	; (10005474 <stdio_usb_init+0xa4>)
1000540e:	f7fb fc99 	bl	10000d44 <irq_add_shared_handler>
10005412:	2101      	movs	r1, #1
10005414:	4818      	ldr	r0, [pc, #96]	; (10005478 <stdio_usb_init+0xa8>)
10005416:	f7ff fe0d 	bl	10005034 <stdio_set_driver_enabled>
1000541a:	2401      	movs	r4, #1
1000541c:	0020      	movs	r0, r4
1000541e:	b005      	add	sp, #20
10005420:	bdf0      	pop	{r4, r5, r6, r7, pc}
10005422:	f7fc f93d 	bl	100016a0 <alarm_pool_get_default>
10005426:	0005      	movs	r5, r0
10005428:	f7fc fb3a 	bl	10001aa0 <time_us_64>
1000542c:	22fa      	movs	r2, #250	; 0xfa
1000542e:	0006      	movs	r6, r0
10005430:	000f      	movs	r7, r1
10005432:	2300      	movs	r3, #0
10005434:	0092      	lsls	r2, r2, #2
10005436:	1992      	adds	r2, r2, r6
10005438:	417b      	adcs	r3, r7
1000543a:	4299      	cmp	r1, r3
1000543c:	d80e      	bhi.n	1000545c <stdio_usb_init+0x8c>
1000543e:	d00b      	beq.n	10005458 <stdio_usb_init+0x88>
10005440:	2101      	movs	r1, #1
10005442:	9102      	str	r1, [sp, #8]
10005444:	2100      	movs	r1, #0
10005446:	9101      	str	r1, [sp, #4]
10005448:	490c      	ldr	r1, [pc, #48]	; (1000547c <stdio_usb_init+0xac>)
1000544a:	0028      	movs	r0, r5
1000544c:	9100      	str	r1, [sp, #0]
1000544e:	f7fc f92b 	bl	100016a8 <alarm_pool_add_alarm_at>
10005452:	2800      	cmp	r0, #0
10005454:	d0e2      	beq.n	1000541c <stdio_usb_init+0x4c>
10005456:	e7dc      	b.n	10005412 <stdio_usb_init+0x42>
10005458:	4290      	cmp	r0, r2
1000545a:	d9f1      	bls.n	10005440 <stdio_usb_init+0x70>
1000545c:	2201      	movs	r2, #1
1000545e:	4252      	negs	r2, r2
10005460:	17d3      	asrs	r3, r2, #31
10005462:	e7ed      	b.n	10005440 <stdio_usb_init+0x70>
10005464:	10008bcc 	.word	0x10008bcc
10005468:	20001a7c 	.word	0x20001a7c
1000546c:	20001abb 	.word	0x20001abb
10005470:	100053ad 	.word	0x100053ad
10005474:	1000539d 	.word	0x1000539d
10005478:	20000410 	.word	0x20000410
1000547c:	10005385 	.word	0x10005385

10005480 <tud_descriptor_device_cb>:
10005480:	4800      	ldr	r0, [pc, #0]	; (10005484 <tud_descriptor_device_cb+0x4>)
10005482:	4770      	bx	lr
10005484:	10008a54 	.word	0x10008a54

10005488 <tud_descriptor_configuration_cb>:
10005488:	4800      	ldr	r0, [pc, #0]	; (1000548c <tud_descriptor_configuration_cb+0x4>)
1000548a:	4770      	bx	lr
1000548c:	10008a00 	.word	0x10008a00

10005490 <tud_descriptor_string_cb>:
10005490:	b510      	push	{r4, lr}
10005492:	0004      	movs	r4, r0
10005494:	4817      	ldr	r0, [pc, #92]	; (100054f4 <tud_descriptor_string_cb+0x64>)
10005496:	7803      	ldrb	r3, [r0, #0]
10005498:	2b00      	cmp	r3, #0
1000549a:	d020      	beq.n	100054de <tud_descriptor_string_cb+0x4e>
1000549c:	2c00      	cmp	r4, #0
1000549e:	d106      	bne.n	100054ae <tud_descriptor_string_cb+0x1e>
100054a0:	4b15      	ldr	r3, [pc, #84]	; (100054f8 <tud_descriptor_string_cb+0x68>)
100054a2:	4816      	ldr	r0, [pc, #88]	; (100054fc <tud_descriptor_string_cb+0x6c>)
100054a4:	8043      	strh	r3, [r0, #2]
100054a6:	3b06      	subs	r3, #6
100054a8:	3bff      	subs	r3, #255	; 0xff
100054aa:	8003      	strh	r3, [r0, #0]
100054ac:	bd10      	pop	{r4, pc}
100054ae:	2c05      	cmp	r4, #5
100054b0:	d819      	bhi.n	100054e6 <tud_descriptor_string_cb+0x56>
100054b2:	4b13      	ldr	r3, [pc, #76]	; (10005500 <tud_descriptor_string_cb+0x70>)
100054b4:	00a4      	lsls	r4, r4, #2
100054b6:	58e0      	ldr	r0, [r4, r3]
100054b8:	4912      	ldr	r1, [pc, #72]	; (10005504 <tud_descriptor_string_cb+0x74>)
100054ba:	2301      	movs	r3, #1
100054bc:	3801      	subs	r0, #1
100054be:	e004      	b.n	100054ca <tud_descriptor_string_cb+0x3a>
100054c0:	3301      	adds	r3, #1
100054c2:	800a      	strh	r2, [r1, #0]
100054c4:	3102      	adds	r1, #2
100054c6:	2b14      	cmp	r3, #20
100054c8:	d00f      	beq.n	100054ea <tud_descriptor_string_cb+0x5a>
100054ca:	5cc2      	ldrb	r2, [r0, r3]
100054cc:	2a00      	cmp	r2, #0
100054ce:	d1f7      	bne.n	100054c0 <tud_descriptor_string_cb+0x30>
100054d0:	22c0      	movs	r2, #192	; 0xc0
100054d2:	b2db      	uxtb	r3, r3
100054d4:	005b      	lsls	r3, r3, #1
100054d6:	0092      	lsls	r2, r2, #2
100054d8:	4808      	ldr	r0, [pc, #32]	; (100054fc <tud_descriptor_string_cb+0x6c>)
100054da:	4313      	orrs	r3, r2
100054dc:	e7e5      	b.n	100054aa <tud_descriptor_string_cb+0x1a>
100054de:	2111      	movs	r1, #17
100054e0:	f002 f990 	bl	10007804 <pico_get_unique_board_id_string>
100054e4:	e7da      	b.n	1000549c <tud_descriptor_string_cb+0xc>
100054e6:	2000      	movs	r0, #0
100054e8:	e7e0      	b.n	100054ac <tud_descriptor_string_cb+0x1c>
100054ea:	23ca      	movs	r3, #202	; 0xca
100054ec:	4803      	ldr	r0, [pc, #12]	; (100054fc <tud_descriptor_string_cb+0x6c>)
100054ee:	009b      	lsls	r3, r3, #2
100054f0:	e7db      	b.n	100054aa <tud_descriptor_string_cb+0x1a>
100054f2:	46c0      	nop			; (mov r8, r8)
100054f4:	20001a9c 	.word	0x20001a9c
100054f8:	00000409 	.word	0x00000409
100054fc:	200015f0 	.word	0x200015f0
10005500:	100089e8 	.word	0x100089e8
10005504:	200015f2 	.word	0x200015f2

10005508 <dcd_rp2040_irq>:
10005508:	b5f0      	push	{r4, r5, r6, r7, lr}
1000550a:	2398      	movs	r3, #152	; 0x98
1000550c:	4657      	mov	r7, sl
1000550e:	4645      	mov	r5, r8
10005510:	46de      	mov	lr, fp
10005512:	464e      	mov	r6, r9
10005514:	4a67      	ldr	r2, [pc, #412]	; (100056b4 <dcd_rp2040_irq+0x1ac>)
10005516:	b5e0      	push	{r5, r6, r7, lr}
10005518:	58d7      	ldr	r7, [r2, r3]
1000551a:	2580      	movs	r5, #128	; 0x80
1000551c:	003c      	movs	r4, r7
1000551e:	026d      	lsls	r5, r5, #9
10005520:	b085      	sub	sp, #20
10005522:	402c      	ands	r4, r5
10005524:	3b88      	subs	r3, #136	; 0x88
10005526:	422f      	tst	r7, r5
10005528:	d00e      	beq.n	10005548 <dcd_rp2040_irq+0x40>
1000552a:	2201      	movs	r2, #1
1000552c:	2123      	movs	r1, #35	; 0x23
1000552e:	4b62      	ldr	r3, [pc, #392]	; (100056b8 <dcd_rp2040_irq+0x1b0>)
10005530:	2000      	movs	r0, #0
10005532:	545a      	strb	r2, [r3, r1]
10005534:	4961      	ldr	r1, [pc, #388]	; (100056bc <dcd_rp2040_irq+0x1b4>)
10005536:	70da      	strb	r2, [r3, #3]
10005538:	f001 f9fc 	bl	10006934 <dcd_event_setup_received>
1000553c:	2280      	movs	r2, #128	; 0x80
1000553e:	002c      	movs	r4, r5
10005540:	4b5f      	ldr	r3, [pc, #380]	; (100056c0 <dcd_rp2040_irq+0x1b8>)
10005542:	0292      	lsls	r2, r2, #10
10005544:	651a      	str	r2, [r3, #80]	; 0x50
10005546:	4b5f      	ldr	r3, [pc, #380]	; (100056c4 <dcd_rp2040_irq+0x1bc>)
10005548:	06fa      	lsls	r2, r7, #27
1000554a:	d417      	bmi.n	1000557c <dcd_rp2040_irq+0x74>
1000554c:	2380      	movs	r3, #128	; 0x80
1000554e:	015b      	lsls	r3, r3, #5
10005550:	421f      	tst	r7, r3
10005552:	d14b      	bne.n	100055ec <dcd_rp2040_irq+0xe4>
10005554:	2380      	movs	r3, #128	; 0x80
10005556:	01db      	lsls	r3, r3, #7
10005558:	421f      	tst	r7, r3
1000555a:	d000      	beq.n	1000555e <dcd_rp2040_irq+0x56>
1000555c:	e080      	b.n	10005660 <dcd_rp2040_irq+0x158>
1000555e:	2380      	movs	r3, #128	; 0x80
10005560:	021b      	lsls	r3, r3, #8
10005562:	421f      	tst	r7, r3
10005564:	d000      	beq.n	10005568 <dcd_rp2040_irq+0x60>
10005566:	e089      	b.n	1000567c <dcd_rp2040_irq+0x174>
10005568:	42bc      	cmp	r4, r7
1000556a:	d000      	beq.n	1000556e <dcd_rp2040_irq+0x66>
1000556c:	e09d      	b.n	100056aa <dcd_rp2040_irq+0x1a2>
1000556e:	b005      	add	sp, #20
10005570:	bcf0      	pop	{r4, r5, r6, r7}
10005572:	46bb      	mov	fp, r7
10005574:	46b2      	mov	sl, r6
10005576:	46a9      	mov	r9, r5
10005578:	46a0      	mov	r8, r4
1000557a:	bdf0      	pop	{r4, r5, r6, r7, pc}
1000557c:	4a4d      	ldr	r2, [pc, #308]	; (100056b4 <dcd_rp2040_irq+0x1ac>)
1000557e:	6d92      	ldr	r2, [r2, #88]	; 0x58
10005580:	4690      	mov	r8, r2
10005582:	2a00      	cmp	r2, #0
10005584:	d02d      	beq.n	100055e2 <dcd_rp2040_irq+0xda>
10005586:	4a4e      	ldr	r2, [pc, #312]	; (100056c0 <dcd_rp2040_irq+0x1b8>)
10005588:	2400      	movs	r4, #0
1000558a:	4693      	mov	fp, r2
1000558c:	2201      	movs	r2, #1
1000558e:	4691      	mov	r9, r2
10005590:	4a49      	ldr	r2, [pc, #292]	; (100056b8 <dcd_rp2040_irq+0x1b0>)
10005592:	2601      	movs	r6, #1
10005594:	4692      	mov	sl, r2
10005596:	4642      	mov	r2, r8
10005598:	4651      	mov	r1, sl
1000559a:	46b8      	mov	r8, r7
1000559c:	469a      	mov	sl, r3
1000559e:	0017      	movs	r7, r2
100055a0:	9103      	str	r1, [sp, #12]
100055a2:	e004      	b.n	100055ae <dcd_rp2040_irq+0xa6>
100055a4:	3401      	adds	r4, #1
100055a6:	0076      	lsls	r6, r6, #1
100055a8:	b2e4      	uxtb	r4, r4
100055aa:	2c20      	cmp	r4, #32
100055ac:	d017      	beq.n	100055de <dcd_rp2040_irq+0xd6>
100055ae:	4237      	tst	r7, r6
100055b0:	d0f8      	beq.n	100055a4 <dcd_rp2040_irq+0x9c>
100055b2:	465b      	mov	r3, fp
100055b4:	659e      	str	r6, [r3, #88]	; 0x58
100055b6:	464b      	mov	r3, r9
100055b8:	0865      	lsrs	r5, r4, #1
100055ba:	43a3      	bics	r3, r4
100055bc:	006d      	lsls	r5, r5, #1
100055be:	18ed      	adds	r5, r5, r3
100055c0:	9b03      	ldr	r3, [sp, #12]
100055c2:	016d      	lsls	r5, r5, #5
100055c4:	469c      	mov	ip, r3
100055c6:	4465      	add	r5, ip
100055c8:	0028      	movs	r0, r5
100055ca:	f000 fb0b 	bl	10005be4 <hw_endpoint_xfer_continue>
100055ce:	2800      	cmp	r0, #0
100055d0:	d15f      	bne.n	10005692 <dcd_rp2040_irq+0x18a>
100055d2:	3401      	adds	r4, #1
100055d4:	43b7      	bics	r7, r6
100055d6:	b2e4      	uxtb	r4, r4
100055d8:	0076      	lsls	r6, r6, #1
100055da:	2f00      	cmp	r7, #0
100055dc:	d1e5      	bne.n	100055aa <dcd_rp2040_irq+0xa2>
100055de:	4647      	mov	r7, r8
100055e0:	4653      	mov	r3, sl
100055e2:	001c      	movs	r4, r3
100055e4:	2380      	movs	r3, #128	; 0x80
100055e6:	015b      	lsls	r3, r3, #5
100055e8:	421f      	tst	r7, r3
100055ea:	d0b3      	beq.n	10005554 <dcd_rp2040_irq+0x4c>
100055ec:	431c      	orrs	r4, r3
100055ee:	2300      	movs	r3, #0
100055f0:	4a30      	ldr	r2, [pc, #192]	; (100056b4 <dcd_rp2040_irq+0x1ac>)
100055f2:	2100      	movs	r1, #0
100055f4:	6013      	str	r3, [r2, #0]
100055f6:	4a31      	ldr	r2, [pc, #196]	; (100056bc <dcd_rp2040_irq+0x1b4>)
100055f8:	4833      	ldr	r0, [pc, #204]	; (100056c8 <dcd_rp2040_irq+0x1c0>)
100055fa:	6093      	str	r3, [r2, #8]
100055fc:	60d3      	str	r3, [r2, #12]
100055fe:	6113      	str	r3, [r2, #16]
10005600:	6153      	str	r3, [r2, #20]
10005602:	6193      	str	r3, [r2, #24]
10005604:	61d3      	str	r3, [r2, #28]
10005606:	6213      	str	r3, [r2, #32]
10005608:	6253      	str	r3, [r2, #36]	; 0x24
1000560a:	6293      	str	r3, [r2, #40]	; 0x28
1000560c:	62d3      	str	r3, [r2, #44]	; 0x2c
1000560e:	6313      	str	r3, [r2, #48]	; 0x30
10005610:	6353      	str	r3, [r2, #52]	; 0x34
10005612:	6393      	str	r3, [r2, #56]	; 0x38
10005614:	63d3      	str	r3, [r2, #60]	; 0x3c
10005616:	6413      	str	r3, [r2, #64]	; 0x40
10005618:	6453      	str	r3, [r2, #68]	; 0x44
1000561a:	6493      	str	r3, [r2, #72]	; 0x48
1000561c:	64d3      	str	r3, [r2, #76]	; 0x4c
1000561e:	6513      	str	r3, [r2, #80]	; 0x50
10005620:	6553      	str	r3, [r2, #84]	; 0x54
10005622:	6593      	str	r3, [r2, #88]	; 0x58
10005624:	65d3      	str	r3, [r2, #92]	; 0x5c
10005626:	6613      	str	r3, [r2, #96]	; 0x60
10005628:	6653      	str	r3, [r2, #100]	; 0x64
1000562a:	6693      	str	r3, [r2, #104]	; 0x68
1000562c:	66d3      	str	r3, [r2, #108]	; 0x6c
1000562e:	6713      	str	r3, [r2, #112]	; 0x70
10005630:	6753      	str	r3, [r2, #116]	; 0x74
10005632:	6793      	str	r3, [r2, #120]	; 0x78
10005634:	67d3      	str	r3, [r2, #124]	; 0x7c
10005636:	22f0      	movs	r2, #240	; 0xf0
10005638:	0092      	lsls	r2, r2, #2
1000563a:	f7ff fba9 	bl	10004d90 <__wrap_memset>
1000563e:	4b23      	ldr	r3, [pc, #140]	; (100056cc <dcd_rp2040_irq+0x1c4>)
10005640:	4a23      	ldr	r2, [pc, #140]	; (100056d0 <dcd_rp2040_irq+0x1c8>)
10005642:	2100      	movs	r1, #0
10005644:	601a      	str	r2, [r3, #0]
10005646:	2000      	movs	r0, #0
10005648:	2201      	movs	r2, #1
1000564a:	f001 f947 	bl	100068dc <dcd_event_bus_reset>
1000564e:	2280      	movs	r2, #128	; 0x80
10005650:	4b1b      	ldr	r3, [pc, #108]	; (100056c0 <dcd_rp2040_irq+0x1b8>)
10005652:	0312      	lsls	r2, r2, #12
10005654:	651a      	str	r2, [r3, #80]	; 0x50
10005656:	2380      	movs	r3, #128	; 0x80
10005658:	01db      	lsls	r3, r3, #7
1000565a:	421f      	tst	r7, r3
1000565c:	d100      	bne.n	10005660 <dcd_rp2040_irq+0x158>
1000565e:	e77e      	b.n	1000555e <dcd_rp2040_irq+0x56>
10005660:	2201      	movs	r2, #1
10005662:	2104      	movs	r1, #4
10005664:	2000      	movs	r0, #0
10005666:	431c      	orrs	r4, r3
10005668:	f001 f8a6 	bl	100067b8 <dcd_event_bus_signal>
1000566c:	2210      	movs	r2, #16
1000566e:	4b14      	ldr	r3, [pc, #80]	; (100056c0 <dcd_rp2040_irq+0x1b8>)
10005670:	651a      	str	r2, [r3, #80]	; 0x50
10005672:	2380      	movs	r3, #128	; 0x80
10005674:	021b      	lsls	r3, r3, #8
10005676:	421f      	tst	r7, r3
10005678:	d100      	bne.n	1000567c <dcd_rp2040_irq+0x174>
1000567a:	e775      	b.n	10005568 <dcd_rp2040_irq+0x60>
1000567c:	2201      	movs	r2, #1
1000567e:	2105      	movs	r1, #5
10005680:	2000      	movs	r0, #0
10005682:	431c      	orrs	r4, r3
10005684:	f001 f898 	bl	100067b8 <dcd_event_bus_signal>
10005688:	2280      	movs	r2, #128	; 0x80
1000568a:	4b0d      	ldr	r3, [pc, #52]	; (100056c0 <dcd_rp2040_irq+0x1b8>)
1000568c:	0112      	lsls	r2, r2, #4
1000568e:	651a      	str	r2, [r3, #80]	; 0x50
10005690:	e76a      	b.n	10005568 <dcd_rp2040_irq+0x60>
10005692:	464b      	mov	r3, r9
10005694:	8aaa      	ldrh	r2, [r5, #20]
10005696:	78a9      	ldrb	r1, [r5, #2]
10005698:	2000      	movs	r0, #0
1000569a:	9300      	str	r3, [sp, #0]
1000569c:	2300      	movs	r3, #0
1000569e:	f001 f971 	bl	10006984 <dcd_event_xfer_complete>
100056a2:	0028      	movs	r0, r5
100056a4:	f000 f9da 	bl	10005a5c <hw_endpoint_reset_transfer>
100056a8:	e793      	b.n	100055d2 <dcd_rp2040_irq+0xca>
100056aa:	0021      	movs	r1, r4
100056ac:	4809      	ldr	r0, [pc, #36]	; (100056d4 <dcd_rp2040_irq+0x1cc>)
100056ae:	4079      	eors	r1, r7
100056b0:	f7fc fd98 	bl	100021e4 <panic>
100056b4:	50110000 	.word	0x50110000
100056b8:	20001628 	.word	0x20001628
100056bc:	50100000 	.word	0x50100000
100056c0:	50113000 	.word	0x50113000
100056c4:	00010010 	.word	0x00010010
100056c8:	20001668 	.word	0x20001668
100056cc:	20001a30 	.word	0x20001a30
100056d0:	50100180 	.word	0x50100180
100056d4:	10008a68 	.word	0x10008a68

100056d8 <dcd_int_enable>:
100056d8:	b510      	push	{r4, lr}
100056da:	2101      	movs	r1, #1
100056dc:	2005      	movs	r0, #5
100056de:	f7fb facf 	bl	10000c80 <irq_set_enabled>
100056e2:	bd10      	pop	{r4, pc}

100056e4 <dcd_set_address>:
100056e4:	b510      	push	{r4, lr}
100056e6:	2200      	movs	r2, #0
100056e8:	2100      	movs	r1, #0
100056ea:	4802      	ldr	r0, [pc, #8]	; (100056f4 <dcd_set_address+0x10>)
100056ec:	f000 f9de 	bl	10005aac <hw_endpoint_xfer_start>
100056f0:	bd10      	pop	{r4, pc}
100056f2:	46c0      	nop			; (mov r8, r8)
100056f4:	20001648 	.word	0x20001648

100056f8 <dcd_connect>:
100056f8:	2280      	movs	r2, #128	; 0x80
100056fa:	4b02      	ldr	r3, [pc, #8]	; (10005704 <dcd_connect+0xc>)
100056fc:	0252      	lsls	r2, r2, #9
100056fe:	64da      	str	r2, [r3, #76]	; 0x4c
10005700:	4770      	bx	lr
10005702:	46c0      	nop			; (mov r8, r8)
10005704:	50112000 	.word	0x50112000

10005708 <dcd_init>:
10005708:	b5f0      	push	{r4, r5, r6, r7, lr}
1000570a:	46c6      	mov	lr, r8
1000570c:	b500      	push	{lr}
1000570e:	0006      	movs	r6, r0
10005710:	f000 f97e 	bl	10005a10 <rp2040_usb_init>
10005714:	230c      	movs	r3, #12
10005716:	4d2e      	ldr	r5, [pc, #184]	; (100057d0 <dcd_init+0xc8>)
10005718:	2005      	movs	r0, #5
1000571a:	67ab      	str	r3, [r5, #120]	; 0x78
1000571c:	492d      	ldr	r1, [pc, #180]	; (100057d4 <dcd_init+0xcc>)
1000571e:	f7fb fae7 	bl	10000cf0 <irq_set_exclusive_handler>
10005722:	2340      	movs	r3, #64	; 0x40
10005724:	4698      	mov	r8, r3
10005726:	4c2c      	ldr	r4, [pc, #176]	; (100057d8 <dcd_init+0xd0>)
10005728:	2240      	movs	r2, #64	; 0x40
1000572a:	2100      	movs	r1, #0
1000572c:	0020      	movs	r0, r4
1000572e:	f7ff fb2f 	bl	10004d90 <__wrap_memset>
10005732:	4643      	mov	r3, r8
10005734:	2701      	movs	r7, #1
10005736:	83a3      	strh	r3, [r4, #28]
10005738:	2121      	movs	r1, #33	; 0x21
1000573a:	2300      	movs	r3, #0
1000573c:	4a27      	ldr	r2, [pc, #156]	; (100057dc <dcd_init+0xd4>)
1000573e:	7067      	strb	r7, [r4, #1]
10005740:	60a2      	str	r2, [r4, #8]
10005742:	6013      	str	r3, [r2, #0]
10005744:	5463      	strb	r3, [r4, r1]
10005746:	315f      	adds	r1, #95	; 0x5f
10005748:	8461      	strh	r1, [r4, #34]	; 0x22
1000574a:	4641      	mov	r1, r8
1000574c:	87a1      	strh	r1, [r4, #60]	; 0x3c
1000574e:	3902      	subs	r1, #2
10005750:	5463      	strb	r3, [r4, r1]
10005752:	4a23      	ldr	r2, [pc, #140]	; (100057e0 <dcd_init+0xd8>)
10005754:	4923      	ldr	r1, [pc, #140]	; (100057e4 <dcd_init+0xdc>)
10005756:	6063      	str	r3, [r4, #4]
10005758:	60e2      	str	r2, [r4, #12]
1000575a:	62a1      	str	r1, [r4, #40]	; 0x28
1000575c:	600b      	str	r3, [r1, #0]
1000575e:	62e2      	str	r2, [r4, #44]	; 0x2c
10005760:	4a21      	ldr	r2, [pc, #132]	; (100057e8 <dcd_init+0xe0>)
10005762:	6263      	str	r3, [r4, #36]	; 0x24
10005764:	0020      	movs	r0, r4
10005766:	6093      	str	r3, [r2, #8]
10005768:	60d3      	str	r3, [r2, #12]
1000576a:	6113      	str	r3, [r2, #16]
1000576c:	6153      	str	r3, [r2, #20]
1000576e:	6193      	str	r3, [r2, #24]
10005770:	61d3      	str	r3, [r2, #28]
10005772:	6213      	str	r3, [r2, #32]
10005774:	6253      	str	r3, [r2, #36]	; 0x24
10005776:	6293      	str	r3, [r2, #40]	; 0x28
10005778:	62d3      	str	r3, [r2, #44]	; 0x2c
1000577a:	6313      	str	r3, [r2, #48]	; 0x30
1000577c:	6353      	str	r3, [r2, #52]	; 0x34
1000577e:	6393      	str	r3, [r2, #56]	; 0x38
10005780:	63d3      	str	r3, [r2, #60]	; 0x3c
10005782:	6413      	str	r3, [r2, #64]	; 0x40
10005784:	6453      	str	r3, [r2, #68]	; 0x44
10005786:	6493      	str	r3, [r2, #72]	; 0x48
10005788:	64d3      	str	r3, [r2, #76]	; 0x4c
1000578a:	6513      	str	r3, [r2, #80]	; 0x50
1000578c:	6553      	str	r3, [r2, #84]	; 0x54
1000578e:	6593      	str	r3, [r2, #88]	; 0x58
10005790:	65d3      	str	r3, [r2, #92]	; 0x5c
10005792:	6613      	str	r3, [r2, #96]	; 0x60
10005794:	6653      	str	r3, [r2, #100]	; 0x64
10005796:	6693      	str	r3, [r2, #104]	; 0x68
10005798:	66d3      	str	r3, [r2, #108]	; 0x6c
1000579a:	6713      	str	r3, [r2, #112]	; 0x70
1000579c:	6753      	str	r3, [r2, #116]	; 0x74
1000579e:	6793      	str	r3, [r2, #120]	; 0x78
100057a0:	67d3      	str	r3, [r2, #124]	; 0x7c
100057a2:	22f0      	movs	r2, #240	; 0xf0
100057a4:	2100      	movs	r1, #0
100057a6:	0092      	lsls	r2, r2, #2
100057a8:	3040      	adds	r0, #64	; 0x40
100057aa:	f7ff faf1 	bl	10004d90 <__wrap_memset>
100057ae:	4b0f      	ldr	r3, [pc, #60]	; (100057ec <dcd_init+0xe4>)
100057b0:	4a0f      	ldr	r2, [pc, #60]	; (100057f0 <dcd_init+0xe8>)
100057b2:	0030      	movs	r0, r6
100057b4:	601a      	str	r2, [r3, #0]
100057b6:	2380      	movs	r3, #128	; 0x80
100057b8:	059b      	lsls	r3, r3, #22
100057ba:	642f      	str	r7, [r5, #64]	; 0x40
100057bc:	64eb      	str	r3, [r5, #76]	; 0x4c
100057be:	2390      	movs	r3, #144	; 0x90
100057c0:	4a0c      	ldr	r2, [pc, #48]	; (100057f4 <dcd_init+0xec>)
100057c2:	50ea      	str	r2, [r5, r3]
100057c4:	f7ff ff98 	bl	100056f8 <dcd_connect>
100057c8:	bc80      	pop	{r7}
100057ca:	46b8      	mov	r8, r7
100057cc:	bdf0      	pop	{r4, r5, r6, r7, pc}
100057ce:	46c0      	nop			; (mov r8, r8)
100057d0:	50110000 	.word	0x50110000
100057d4:	10005509 	.word	0x10005509
100057d8:	20001628 	.word	0x20001628
100057dc:	50100084 	.word	0x50100084
100057e0:	50100100 	.word	0x50100100
100057e4:	50100080 	.word	0x50100080
100057e8:	50100000 	.word	0x50100000
100057ec:	20001a30 	.word	0x20001a30
100057f0:	50100180 	.word	0x50100180
100057f4:	0001d010 	.word	0x0001d010

100057f8 <dcd_edpt0_status_complete>:
100057f8:	780b      	ldrb	r3, [r1, #0]
100057fa:	065b      	lsls	r3, r3, #25
100057fc:	d102      	bne.n	10005804 <dcd_edpt0_status_complete+0xc>
100057fe:	784b      	ldrb	r3, [r1, #1]
10005800:	2b05      	cmp	r3, #5
10005802:	d000      	beq.n	10005806 <dcd_edpt0_status_complete+0xe>
10005804:	4770      	bx	lr
10005806:	788a      	ldrb	r2, [r1, #2]
10005808:	4b01      	ldr	r3, [pc, #4]	; (10005810 <dcd_edpt0_status_complete+0x18>)
1000580a:	601a      	str	r2, [r3, #0]
1000580c:	e7fa      	b.n	10005804 <dcd_edpt0_status_complete+0xc>
1000580e:	46c0      	nop			; (mov r8, r8)
10005810:	50110000 	.word	0x50110000

10005814 <dcd_edpt_open>:
10005814:	b5f0      	push	{r4, r5, r6, r7, lr}
10005816:	46ce      	mov	lr, r9
10005818:	4647      	mov	r7, r8
1000581a:	2307      	movs	r3, #7
1000581c:	b580      	push	{r7, lr}
1000581e:	7948      	ldrb	r0, [r1, #5]
10005820:	788e      	ldrb	r6, [r1, #2]
10005822:	790a      	ldrb	r2, [r1, #4]
10005824:	4003      	ands	r3, r0
10005826:	78c8      	ldrb	r0, [r1, #3]
10005828:	217f      	movs	r1, #127	; 0x7f
1000582a:	0780      	lsls	r0, r0, #30
1000582c:	4031      	ands	r1, r6
1000582e:	021b      	lsls	r3, r3, #8
10005830:	09f4      	lsrs	r4, r6, #7
10005832:	4313      	orrs	r3, r2
10005834:	004f      	lsls	r7, r1, #1
10005836:	0f82      	lsrs	r2, r0, #30
10005838:	4694      	mov	ip, r2
1000583a:	4691      	mov	r9, r2
1000583c:	4d2a      	ldr	r5, [pc, #168]	; (100058e8 <dcd_edpt_open+0xd4>)
1000583e:	193a      	adds	r2, r7, r4
10005840:	0152      	lsls	r2, r2, #5
10005842:	18aa      	adds	r2, r5, r2
10005844:	7096      	strb	r6, [r2, #2]
10005846:	2601      	movs	r6, #1
10005848:	4066      	eors	r6, r4
1000584a:	7056      	strb	r6, [r2, #1]
1000584c:	4660      	mov	r0, ip
1000584e:	2600      	movs	r6, #0
10005850:	8393      	strh	r3, [r2, #28]
10005852:	70d6      	strb	r6, [r2, #3]
10005854:	7790      	strb	r0, [r2, #30]
10005856:	00ca      	lsls	r2, r1, #3
10005858:	2c01      	cmp	r4, #1
1000585a:	d029      	beq.n	100058b0 <dcd_edpt_open+0x9c>
1000585c:	4823      	ldr	r0, [pc, #140]	; (100058ec <dcd_edpt_open+0xd8>)
1000585e:	4684      	mov	ip, r0
10005860:	0188      	lsls	r0, r1, #6
10005862:	4462      	add	r2, ip
10005864:	4684      	mov	ip, r0
10005866:	44ac      	add	ip, r5
10005868:	4660      	mov	r0, ip
1000586a:	6082      	str	r2, [r0, #8]
1000586c:	6016      	str	r6, [r2, #0]
1000586e:	2900      	cmp	r1, #0
10005870:	d029      	beq.n	100058c6 <dcd_edpt_open+0xb2>
10005872:	4a1f      	ldr	r2, [pc, #124]	; (100058f0 <dcd_edpt_open+0xdc>)
10005874:	00c9      	lsls	r1, r1, #3
10005876:	4690      	mov	r8, r2
10005878:	4441      	add	r1, r8
1000587a:	6041      	str	r1, [r0, #4]
1000587c:	223f      	movs	r2, #63	; 0x3f
1000587e:	333f      	adds	r3, #63	; 0x3f
10005880:	4393      	bics	r3, r2
10005882:	464a      	mov	r2, r9
10005884:	2a02      	cmp	r2, #2
10005886:	d100      	bne.n	1000588a <dcd_edpt_open+0x76>
10005888:	005b      	lsls	r3, r3, #1
1000588a:	491a      	ldr	r1, [pc, #104]	; (100058f4 <dcd_edpt_open+0xe0>)
1000588c:	193f      	adds	r7, r7, r4
1000588e:	680a      	ldr	r2, [r1, #0]
10005890:	017f      	lsls	r7, r7, #5
10005892:	18d3      	adds	r3, r2, r3
10005894:	600b      	str	r3, [r1, #0]
10005896:	4b18      	ldr	r3, [pc, #96]	; (100058f8 <dcd_edpt_open+0xe4>)
10005898:	19ed      	adds	r5, r5, r7
1000589a:	4053      	eors	r3, r2
1000589c:	60ea      	str	r2, [r5, #12]
1000589e:	464a      	mov	r2, r9
100058a0:	0690      	lsls	r0, r2, #26
100058a2:	4318      	orrs	r0, r3
100058a4:	2380      	movs	r3, #128	; 0x80
100058a6:	686a      	ldr	r2, [r5, #4]
100058a8:	061b      	lsls	r3, r3, #24
100058aa:	4303      	orrs	r3, r0
100058ac:	6013      	str	r3, [r2, #0]
100058ae:	e010      	b.n	100058d2 <dcd_edpt_open+0xbe>
100058b0:	4812      	ldr	r0, [pc, #72]	; (100058fc <dcd_edpt_open+0xe8>)
100058b2:	4684      	mov	ip, r0
100058b4:	0188      	lsls	r0, r1, #6
100058b6:	4462      	add	r2, ip
100058b8:	4684      	mov	ip, r0
100058ba:	44ac      	add	ip, r5
100058bc:	4660      	mov	r0, ip
100058be:	6282      	str	r2, [r0, #40]	; 0x28
100058c0:	6016      	str	r6, [r2, #0]
100058c2:	2900      	cmp	r1, #0
100058c4:	d10a      	bne.n	100058dc <dcd_edpt_open+0xc8>
100058c6:	2300      	movs	r3, #0
100058c8:	0164      	lsls	r4, r4, #5
100058ca:	192c      	adds	r4, r5, r4
100058cc:	6063      	str	r3, [r4, #4]
100058ce:	4b0c      	ldr	r3, [pc, #48]	; (10005900 <dcd_edpt_open+0xec>)
100058d0:	60e3      	str	r3, [r4, #12]
100058d2:	2001      	movs	r0, #1
100058d4:	bcc0      	pop	{r6, r7}
100058d6:	46b9      	mov	r9, r7
100058d8:	46b0      	mov	r8, r6
100058da:	bdf0      	pop	{r4, r5, r6, r7, pc}
100058dc:	4a06      	ldr	r2, [pc, #24]	; (100058f8 <dcd_edpt_open+0xe4>)
100058de:	00c9      	lsls	r1, r1, #3
100058e0:	4690      	mov	r8, r2
100058e2:	4441      	add	r1, r8
100058e4:	6241      	str	r1, [r0, #36]	; 0x24
100058e6:	e7c9      	b.n	1000587c <dcd_edpt_open+0x68>
100058e8:	20001628 	.word	0x20001628
100058ec:	50100084 	.word	0x50100084
100058f0:	50100004 	.word	0x50100004
100058f4:	20001a30 	.word	0x20001a30
100058f8:	50100000 	.word	0x50100000
100058fc:	50100080 	.word	0x50100080
10005900:	50100100 	.word	0x50100100

10005904 <dcd_edpt_close_all>:
10005904:	2200      	movs	r2, #0
10005906:	4b15      	ldr	r3, [pc, #84]	; (1000595c <dcd_edpt_close_all+0x58>)
10005908:	b510      	push	{r4, lr}
1000590a:	609a      	str	r2, [r3, #8]
1000590c:	60da      	str	r2, [r3, #12]
1000590e:	611a      	str	r2, [r3, #16]
10005910:	615a      	str	r2, [r3, #20]
10005912:	619a      	str	r2, [r3, #24]
10005914:	61da      	str	r2, [r3, #28]
10005916:	621a      	str	r2, [r3, #32]
10005918:	625a      	str	r2, [r3, #36]	; 0x24
1000591a:	629a      	str	r2, [r3, #40]	; 0x28
1000591c:	62da      	str	r2, [r3, #44]	; 0x2c
1000591e:	631a      	str	r2, [r3, #48]	; 0x30
10005920:	635a      	str	r2, [r3, #52]	; 0x34
10005922:	639a      	str	r2, [r3, #56]	; 0x38
10005924:	63da      	str	r2, [r3, #60]	; 0x3c
10005926:	641a      	str	r2, [r3, #64]	; 0x40
10005928:	645a      	str	r2, [r3, #68]	; 0x44
1000592a:	649a      	str	r2, [r3, #72]	; 0x48
1000592c:	64da      	str	r2, [r3, #76]	; 0x4c
1000592e:	651a      	str	r2, [r3, #80]	; 0x50
10005930:	655a      	str	r2, [r3, #84]	; 0x54
10005932:	659a      	str	r2, [r3, #88]	; 0x58
10005934:	65da      	str	r2, [r3, #92]	; 0x5c
10005936:	661a      	str	r2, [r3, #96]	; 0x60
10005938:	665a      	str	r2, [r3, #100]	; 0x64
1000593a:	669a      	str	r2, [r3, #104]	; 0x68
1000593c:	66da      	str	r2, [r3, #108]	; 0x6c
1000593e:	671a      	str	r2, [r3, #112]	; 0x70
10005940:	675a      	str	r2, [r3, #116]	; 0x74
10005942:	679a      	str	r2, [r3, #120]	; 0x78
10005944:	67da      	str	r2, [r3, #124]	; 0x7c
10005946:	32f0      	adds	r2, #240	; 0xf0
10005948:	0092      	lsls	r2, r2, #2
1000594a:	2100      	movs	r1, #0
1000594c:	4804      	ldr	r0, [pc, #16]	; (10005960 <dcd_edpt_close_all+0x5c>)
1000594e:	f7ff fa1f 	bl	10004d90 <__wrap_memset>
10005952:	4b04      	ldr	r3, [pc, #16]	; (10005964 <dcd_edpt_close_all+0x60>)
10005954:	4a04      	ldr	r2, [pc, #16]	; (10005968 <dcd_edpt_close_all+0x64>)
10005956:	601a      	str	r2, [r3, #0]
10005958:	bd10      	pop	{r4, pc}
1000595a:	46c0      	nop			; (mov r8, r8)
1000595c:	50100000 	.word	0x50100000
10005960:	20001668 	.word	0x20001668
10005964:	20001a30 	.word	0x20001a30
10005968:	50100180 	.word	0x50100180

1000596c <dcd_edpt_xfer>:
1000596c:	b510      	push	{r4, lr}
1000596e:	207f      	movs	r0, #127	; 0x7f
10005970:	000c      	movs	r4, r1
10005972:	4020      	ands	r0, r4
10005974:	0040      	lsls	r0, r0, #1
10005976:	09e4      	lsrs	r4, r4, #7
10005978:	0011      	movs	r1, r2
1000597a:	1900      	adds	r0, r0, r4
1000597c:	001a      	movs	r2, r3
1000597e:	4b03      	ldr	r3, [pc, #12]	; (1000598c <dcd_edpt_xfer+0x20>)
10005980:	0140      	lsls	r0, r0, #5
10005982:	18c0      	adds	r0, r0, r3
10005984:	f000 f892 	bl	10005aac <hw_endpoint_xfer_start>
10005988:	2001      	movs	r0, #1
1000598a:	bd10      	pop	{r4, pc}
1000598c:	20001628 	.word	0x20001628

10005990 <dcd_edpt_stall>:
10005990:	237f      	movs	r3, #127	; 0x7f
10005992:	0018      	movs	r0, r3
10005994:	b510      	push	{r4, lr}
10005996:	4008      	ands	r0, r1
10005998:	09ca      	lsrs	r2, r1, #7
1000599a:	420b      	tst	r3, r1
1000599c:	d103      	bne.n	100059a6 <dcd_edpt_stall+0x16>
1000599e:	4907      	ldr	r1, [pc, #28]	; (100059bc <dcd_edpt_stall+0x2c>)
100059a0:	3b7d      	subs	r3, #125	; 0x7d
100059a2:	1a9b      	subs	r3, r3, r2
100059a4:	668b      	str	r3, [r1, #104]	; 0x68
100059a6:	0040      	lsls	r0, r0, #1
100059a8:	1880      	adds	r0, r0, r2
100059aa:	2280      	movs	r2, #128	; 0x80
100059ac:	4b04      	ldr	r3, [pc, #16]	; (100059c0 <dcd_edpt_stall+0x30>)
100059ae:	0140      	lsls	r0, r0, #5
100059b0:	2100      	movs	r1, #0
100059b2:	18c0      	adds	r0, r0, r3
100059b4:	0112      	lsls	r2, r2, #4
100059b6:	f000 f857 	bl	10005a68 <_hw_endpoint_buffer_control_update32>
100059ba:	bd10      	pop	{r4, pc}
100059bc:	50112000 	.word	0x50112000
100059c0:	20001628 	.word	0x20001628

100059c4 <dcd_edpt_clear_stall>:
100059c4:	227f      	movs	r2, #127	; 0x7f
100059c6:	0013      	movs	r3, r2
100059c8:	b510      	push	{r4, lr}
100059ca:	400b      	ands	r3, r1
100059cc:	420a      	tst	r2, r1
100059ce:	d100      	bne.n	100059d2 <dcd_edpt_clear_stall+0xe>
100059d0:	bd10      	pop	{r4, pc}
100059d2:	09c9      	lsrs	r1, r1, #7
100059d4:	005b      	lsls	r3, r3, #1
100059d6:	185b      	adds	r3, r3, r1
100059d8:	4804      	ldr	r0, [pc, #16]	; (100059ec <dcd_edpt_clear_stall+0x28>)
100059da:	015b      	lsls	r3, r3, #5
100059dc:	18c0      	adds	r0, r0, r3
100059de:	2300      	movs	r3, #0
100059e0:	2200      	movs	r2, #0
100059e2:	4903      	ldr	r1, [pc, #12]	; (100059f0 <dcd_edpt_clear_stall+0x2c>)
100059e4:	70c3      	strb	r3, [r0, #3]
100059e6:	f000 f83f 	bl	10005a68 <_hw_endpoint_buffer_control_update32>
100059ea:	e7f1      	b.n	100059d0 <dcd_edpt_clear_stall+0xc>
100059ec:	20001628 	.word	0x20001628
100059f0:	fffff7ff 	.word	0xfffff7ff

100059f4 <_hw_endpoint_buffer_control_update32.part.0.isra.0>:
100059f4:	217f      	movs	r1, #127	; 0x7f
100059f6:	09c2      	lsrs	r2, r0, #7
100059f8:	4b03      	ldr	r3, [pc, #12]	; (10005a08 <_hw_endpoint_buffer_control_update32.part.0.isra.0+0x14>)
100059fa:	0092      	lsls	r2, r2, #2
100059fc:	4001      	ands	r1, r0
100059fe:	b510      	push	{r4, lr}
10005a00:	58d2      	ldr	r2, [r2, r3]
10005a02:	4802      	ldr	r0, [pc, #8]	; (10005a0c <_hw_endpoint_buffer_control_update32.part.0.isra.0+0x18>)
10005a04:	f7fc fbee 	bl	100021e4 <panic>
10005a08:	20000424 	.word	0x20000424
10005a0c:	10008a7c 	.word	0x10008a7c

10005a10 <rp2040_usb_init>:
10005a10:	2280      	movs	r2, #128	; 0x80
10005a12:	4b0d      	ldr	r3, [pc, #52]	; (10005a48 <rp2040_usb_init+0x38>)
10005a14:	0452      	lsls	r2, r2, #17
10005a16:	b510      	push	{r4, lr}
10005a18:	601a      	str	r2, [r3, #0]
10005a1a:	4b0c      	ldr	r3, [pc, #48]	; (10005a4c <rp2040_usb_init+0x3c>)
10005a1c:	490c      	ldr	r1, [pc, #48]	; (10005a50 <rp2040_usb_init+0x40>)
10005a1e:	601a      	str	r2, [r3, #0]
10005a20:	0010      	movs	r0, r2
10005a22:	688b      	ldr	r3, [r1, #8]
10005a24:	4398      	bics	r0, r3
10005a26:	d1fb      	bne.n	10005a20 <rp2040_usb_init+0x10>
10005a28:	4c0a      	ldr	r4, [pc, #40]	; (10005a54 <rp2040_usb_init+0x44>)
10005a2a:	229c      	movs	r2, #156	; 0x9c
10005a2c:	2100      	movs	r1, #0
10005a2e:	0020      	movs	r0, r4
10005a30:	f7ff f9ae 	bl	10004d90 <__wrap_memset>
10005a34:	2280      	movs	r2, #128	; 0x80
10005a36:	2100      	movs	r1, #0
10005a38:	0152      	lsls	r2, r2, #5
10005a3a:	4807      	ldr	r0, [pc, #28]	; (10005a58 <rp2040_usb_init+0x48>)
10005a3c:	f7ff f9a8 	bl	10004d90 <__wrap_memset>
10005a40:	2309      	movs	r3, #9
10005a42:	6763      	str	r3, [r4, #116]	; 0x74
10005a44:	bd10      	pop	{r4, pc}
10005a46:	46c0      	nop			; (mov r8, r8)
10005a48:	4000e000 	.word	0x4000e000
10005a4c:	4000f000 	.word	0x4000f000
10005a50:	4000c000 	.word	0x4000c000
10005a54:	50110000 	.word	0x50110000
10005a58:	50100000 	.word	0x50100000

10005a5c <hw_endpoint_reset_transfer>:
10005a5c:	2300      	movs	r3, #0
10005a5e:	7403      	strb	r3, [r0, #16]
10005a60:	8243      	strh	r3, [r0, #18]
10005a62:	8283      	strh	r3, [r0, #20]
10005a64:	6183      	str	r3, [r0, #24]
10005a66:	4770      	bx	lr

10005a68 <_hw_endpoint_buffer_control_update32>:
10005a68:	b510      	push	{r4, lr}
10005a6a:	6883      	ldr	r3, [r0, #8]
10005a6c:	2900      	cmp	r1, #0
10005a6e:	d001      	beq.n	10005a74 <_hw_endpoint_buffer_control_update32+0xc>
10005a70:	681c      	ldr	r4, [r3, #0]
10005a72:	4021      	ands	r1, r4
10005a74:	2a00      	cmp	r2, #0
10005a76:	d011      	beq.n	10005a9c <_hw_endpoint_buffer_control_update32+0x34>
10005a78:	2480      	movs	r4, #128	; 0x80
10005a7a:	00e4      	lsls	r4, r4, #3
10005a7c:	4311      	orrs	r1, r2
10005a7e:	4222      	tst	r2, r4
10005a80:	d00c      	beq.n	10005a9c <_hw_endpoint_buffer_control_update32+0x34>
10005a82:	681a      	ldr	r2, [r3, #0]
10005a84:	4222      	tst	r2, r4
10005a86:	d10b      	bne.n	10005aa0 <_hw_endpoint_buffer_control_update32+0x38>
10005a88:	4a07      	ldr	r2, [pc, #28]	; (10005aa8 <_hw_endpoint_buffer_control_update32+0x40>)
10005a8a:	400a      	ands	r2, r1
10005a8c:	601a      	str	r2, [r3, #0]
10005a8e:	e7ff      	b.n	10005a90 <_hw_endpoint_buffer_control_update32+0x28>
10005a90:	e7ff      	b.n	10005a92 <_hw_endpoint_buffer_control_update32+0x2a>
10005a92:	e7ff      	b.n	10005a94 <_hw_endpoint_buffer_control_update32+0x2c>
10005a94:	e7ff      	b.n	10005a96 <_hw_endpoint_buffer_control_update32+0x2e>
10005a96:	e7ff      	b.n	10005a98 <_hw_endpoint_buffer_control_update32+0x30>
10005a98:	e7ff      	b.n	10005a9a <_hw_endpoint_buffer_control_update32+0x32>
10005a9a:	6883      	ldr	r3, [r0, #8]
10005a9c:	6019      	str	r1, [r3, #0]
10005a9e:	bd10      	pop	{r4, pc}
10005aa0:	7880      	ldrb	r0, [r0, #2]
10005aa2:	f7ff ffa7 	bl	100059f4 <_hw_endpoint_buffer_control_update32.part.0.isra.0>
10005aa6:	46c0      	nop			; (mov r8, r8)
10005aa8:	fffffbff 	.word	0xfffffbff

10005aac <hw_endpoint_xfer_start>:
10005aac:	b5f0      	push	{r4, r5, r6, r7, lr}
10005aae:	46c6      	mov	lr, r8
10005ab0:	2300      	movs	r3, #0
10005ab2:	b500      	push	{lr}
10005ab4:	8283      	strh	r3, [r0, #20]
10005ab6:	3301      	adds	r3, #1
10005ab8:	7403      	strb	r3, [r0, #16]
10005aba:	6843      	ldr	r3, [r0, #4]
10005abc:	0004      	movs	r4, r0
10005abe:	681f      	ldr	r7, [r3, #0]
10005ac0:	8b83      	ldrh	r3, [r0, #28]
10005ac2:	6181      	str	r1, [r0, #24]
10005ac4:	1c1e      	adds	r6, r3, #0
10005ac6:	4293      	cmp	r3, r2
10005ac8:	d900      	bls.n	10005acc <hw_endpoint_xfer_start+0x20>
10005aca:	1c16      	adds	r6, r2, #0
10005acc:	2080      	movs	r0, #128	; 0x80
10005ace:	b2b6      	uxth	r6, r6
10005ad0:	1b92      	subs	r2, r2, r6
10005ad2:	b293      	uxth	r3, r2
10005ad4:	78e2      	ldrb	r2, [r4, #3]
10005ad6:	00c0      	lsls	r0, r0, #3
10005ad8:	4330      	orrs	r0, r6
10005ada:	0015      	movs	r5, r2
10005adc:	4684      	mov	ip, r0
10005ade:	1e68      	subs	r0, r5, #1
10005ae0:	4185      	sbcs	r5, r0
10005ae2:	4660      	mov	r0, ip
10005ae4:	036d      	lsls	r5, r5, #13
10005ae6:	4305      	orrs	r5, r0
10005ae8:	2001      	movs	r0, #1
10005aea:	4042      	eors	r2, r0
10005aec:	70e2      	strb	r2, [r4, #3]
10005aee:	7862      	ldrb	r2, [r4, #1]
10005af0:	8263      	strh	r3, [r4, #18]
10005af2:	2a00      	cmp	r2, #0
10005af4:	d050      	beq.n	10005b98 <hw_endpoint_xfer_start+0xec>
10005af6:	2b00      	cmp	r3, #0
10005af8:	d02c      	beq.n	10005b54 <hw_endpoint_xfer_start+0xa8>
10005afa:	2280      	movs	r2, #128	; 0x80
10005afc:	0152      	lsls	r2, r2, #5
10005afe:	4315      	orrs	r5, r2
10005b00:	4a34      	ldr	r2, [pc, #208]	; (10005bd4 <hw_endpoint_xfer_start+0x128>)
10005b02:	6c12      	ldr	r2, [r2, #64]	; 0x40
10005b04:	0792      	lsls	r2, r2, #30
10005b06:	d543      	bpl.n	10005b90 <hw_endpoint_xfer_start+0xe4>
10005b08:	8ba2      	ldrh	r2, [r4, #28]
10005b0a:	1c11      	adds	r1, r2, #0
10005b0c:	429a      	cmp	r2, r3
10005b0e:	d900      	bls.n	10005b12 <hw_endpoint_xfer_start+0x66>
10005b10:	1c19      	adds	r1, r3, #0
10005b12:	b28a      	uxth	r2, r1
10005b14:	2180      	movs	r1, #128	; 0x80
10005b16:	00c9      	lsls	r1, r1, #3
10005b18:	4311      	orrs	r1, r2
10005b1a:	1a9b      	subs	r3, r3, r2
10005b1c:	4690      	mov	r8, r2
10005b1e:	78e2      	ldrb	r2, [r4, #3]
10005b20:	b29b      	uxth	r3, r3
10005b22:	0016      	movs	r6, r2
10005b24:	1e70      	subs	r0, r6, #1
10005b26:	4186      	sbcs	r6, r0
10005b28:	0376      	lsls	r6, r6, #13
10005b2a:	430e      	orrs	r6, r1
10005b2c:	2101      	movs	r1, #1
10005b2e:	404a      	eors	r2, r1
10005b30:	70e2      	strb	r2, [r4, #3]
10005b32:	7862      	ldrb	r2, [r4, #1]
10005b34:	8263      	strh	r3, [r4, #18]
10005b36:	2a00      	cmp	r2, #0
10005b38:	d03a      	beq.n	10005bb0 <hw_endpoint_xfer_start+0x104>
10005b3a:	2b00      	cmp	r3, #0
10005b3c:	d102      	bne.n	10005b44 <hw_endpoint_xfer_start+0x98>
10005b3e:	2380      	movs	r3, #128	; 0x80
10005b40:	01db      	lsls	r3, r3, #7
10005b42:	431e      	orrs	r6, r3
10005b44:	23a0      	movs	r3, #160	; 0xa0
10005b46:	4a24      	ldr	r2, [pc, #144]	; (10005bd8 <hw_endpoint_xfer_start+0x12c>)
10005b48:	0436      	lsls	r6, r6, #16
10005b4a:	403a      	ands	r2, r7
10005b4c:	05db      	lsls	r3, r3, #23
10005b4e:	4335      	orrs	r5, r6
10005b50:	4313      	orrs	r3, r2
10005b52:	e009      	b.n	10005b68 <hw_endpoint_xfer_start+0xbc>
10005b54:	23a0      	movs	r3, #160	; 0xa0
10005b56:	01db      	lsls	r3, r3, #7
10005b58:	431d      	orrs	r5, r3
10005b5a:	4b1e      	ldr	r3, [pc, #120]	; (10005bd4 <hw_endpoint_xfer_start+0x128>)
10005b5c:	6c1b      	ldr	r3, [r3, #64]	; 0x40
10005b5e:	2380      	movs	r3, #128	; 0x80
10005b60:	4a1e      	ldr	r2, [pc, #120]	; (10005bdc <hw_endpoint_xfer_start+0x130>)
10005b62:	059b      	lsls	r3, r3, #22
10005b64:	403a      	ands	r2, r7
10005b66:	4313      	orrs	r3, r2
10005b68:	6862      	ldr	r2, [r4, #4]
10005b6a:	6013      	str	r3, [r2, #0]
10005b6c:	68a2      	ldr	r2, [r4, #8]
10005b6e:	6813      	ldr	r3, [r2, #0]
10005b70:	055b      	lsls	r3, r3, #21
10005b72:	d42b      	bmi.n	10005bcc <hw_endpoint_xfer_start+0x120>
10005b74:	4b1a      	ldr	r3, [pc, #104]	; (10005be0 <hw_endpoint_xfer_start+0x134>)
10005b76:	402b      	ands	r3, r5
10005b78:	6013      	str	r3, [r2, #0]
10005b7a:	e7ff      	b.n	10005b7c <hw_endpoint_xfer_start+0xd0>
10005b7c:	e7ff      	b.n	10005b7e <hw_endpoint_xfer_start+0xd2>
10005b7e:	e7ff      	b.n	10005b80 <hw_endpoint_xfer_start+0xd4>
10005b80:	e7ff      	b.n	10005b82 <hw_endpoint_xfer_start+0xd6>
10005b82:	e7ff      	b.n	10005b84 <hw_endpoint_xfer_start+0xd8>
10005b84:	e7ff      	b.n	10005b86 <hw_endpoint_xfer_start+0xda>
10005b86:	68a3      	ldr	r3, [r4, #8]
10005b88:	601d      	str	r5, [r3, #0]
10005b8a:	bc80      	pop	{r7}
10005b8c:	46b8      	mov	r8, r7
10005b8e:	bdf0      	pop	{r4, r5, r6, r7, pc}
10005b90:	78a2      	ldrb	r2, [r4, #2]
10005b92:	09d2      	lsrs	r2, r2, #7
10005b94:	d1b8      	bne.n	10005b08 <hw_endpoint_xfer_start+0x5c>
10005b96:	e7e2      	b.n	10005b5e <hw_endpoint_xfer_start+0xb2>
10005b98:	0032      	movs	r2, r6
10005b9a:	68e0      	ldr	r0, [r4, #12]
10005b9c:	f7ff f8fe 	bl	10004d9c <__wrap___aeabi_memcpy>
10005ba0:	69a3      	ldr	r3, [r4, #24]
10005ba2:	199b      	adds	r3, r3, r6
10005ba4:	61a3      	str	r3, [r4, #24]
10005ba6:	2380      	movs	r3, #128	; 0x80
10005ba8:	021b      	lsls	r3, r3, #8
10005baa:	431d      	orrs	r5, r3
10005bac:	8a63      	ldrh	r3, [r4, #18]
10005bae:	e7a2      	b.n	10005af6 <hw_endpoint_xfer_start+0x4a>
10005bb0:	68e0      	ldr	r0, [r4, #12]
10005bb2:	4642      	mov	r2, r8
10005bb4:	69a1      	ldr	r1, [r4, #24]
10005bb6:	3040      	adds	r0, #64	; 0x40
10005bb8:	f7ff f8f0 	bl	10004d9c <__wrap___aeabi_memcpy>
10005bbc:	69a3      	ldr	r3, [r4, #24]
10005bbe:	4443      	add	r3, r8
10005bc0:	61a3      	str	r3, [r4, #24]
10005bc2:	2380      	movs	r3, #128	; 0x80
10005bc4:	021b      	lsls	r3, r3, #8
10005bc6:	431e      	orrs	r6, r3
10005bc8:	8a63      	ldrh	r3, [r4, #18]
10005bca:	e7b6      	b.n	10005b3a <hw_endpoint_xfer_start+0x8e>
10005bcc:	78a0      	ldrb	r0, [r4, #2]
10005bce:	f7ff ff11 	bl	100059f4 <_hw_endpoint_buffer_control_update32.part.0.isra.0>
10005bd2:	46c0      	nop			; (mov r8, r8)
10005bd4:	50110000 	.word	0x50110000
10005bd8:	dfffffff 	.word	0xdfffffff
10005bdc:	afffffff 	.word	0xafffffff
10005be0:	fffffbff 	.word	0xfffffbff

10005be4 <hw_endpoint_xfer_continue>:
10005be4:	b5f0      	push	{r4, r5, r6, r7, lr}
10005be6:	46c6      	mov	lr, r8
10005be8:	b500      	push	{lr}
10005bea:	7c06      	ldrb	r6, [r0, #16]
10005bec:	0004      	movs	r4, r0
10005bee:	2e00      	cmp	r6, #0
10005bf0:	d100      	bne.n	10005bf4 <hw_endpoint_xfer_continue+0x10>
10005bf2:	e0cd      	b.n	10005d90 <hw_endpoint_xfer_continue+0x1ac>
10005bf4:	6883      	ldr	r3, [r0, #8]
10005bf6:	681a      	ldr	r2, [r3, #0]
10005bf8:	681d      	ldr	r5, [r3, #0]
10005bfa:	7843      	ldrb	r3, [r0, #1]
10005bfc:	05ad      	lsls	r5, r5, #22
10005bfe:	0dad      	lsrs	r5, r5, #22
10005c00:	2b00      	cmp	r3, #0
10005c02:	d000      	beq.n	10005c06 <hw_endpoint_xfer_continue+0x22>
10005c04:	e06f      	b.n	10005ce6 <hw_endpoint_xfer_continue+0x102>
10005c06:	8a83      	ldrh	r3, [r0, #20]
10005c08:	18eb      	adds	r3, r5, r3
10005c0a:	b29b      	uxth	r3, r3
10005c0c:	8283      	strh	r3, [r0, #20]
10005c0e:	8ba1      	ldrh	r1, [r4, #28]
10005c10:	6862      	ldr	r2, [r4, #4]
10005c12:	428d      	cmp	r5, r1
10005c14:	d206      	bcs.n	10005c24 <hw_endpoint_xfer_continue+0x40>
10005c16:	2300      	movs	r3, #0
10005c18:	8263      	strh	r3, [r4, #18]
10005c1a:	6813      	ldr	r3, [r2, #0]
10005c1c:	0030      	movs	r0, r6
10005c1e:	bc80      	pop	{r7}
10005c20:	46b8      	mov	r8, r7
10005c22:	bdf0      	pop	{r4, r5, r6, r7, pc}
10005c24:	6812      	ldr	r2, [r2, #0]
10005c26:	0052      	lsls	r2, r2, #1
10005c28:	d510      	bpl.n	10005c4c <hw_endpoint_xfer_continue+0x68>
10005c2a:	428d      	cmp	r5, r1
10005c2c:	d10e      	bne.n	10005c4c <hw_endpoint_xfer_continue+0x68>
10005c2e:	68a2      	ldr	r2, [r4, #8]
10005c30:	6815      	ldr	r5, [r2, #0]
10005c32:	7862      	ldrb	r2, [r4, #1]
10005c34:	01ad      	lsls	r5, r5, #6
10005c36:	0dad      	lsrs	r5, r5, #22
10005c38:	2a00      	cmp	r2, #0
10005c3a:	d000      	beq.n	10005c3e <hw_endpoint_xfer_continue+0x5a>
10005c3c:	e08c      	b.n	10005d58 <hw_endpoint_xfer_continue+0x174>
10005c3e:	18eb      	adds	r3, r5, r3
10005c40:	82a3      	strh	r3, [r4, #20]
10005c42:	428d      	cmp	r5, r1
10005c44:	d202      	bcs.n	10005c4c <hw_endpoint_xfer_continue+0x68>
10005c46:	2300      	movs	r3, #0
10005c48:	8263      	strh	r3, [r4, #18]
10005c4a:	e7e7      	b.n	10005c1c <hw_endpoint_xfer_continue+0x38>
10005c4c:	8a63      	ldrh	r3, [r4, #18]
10005c4e:	2b00      	cmp	r3, #0
10005c50:	d0e4      	beq.n	10005c1c <hw_endpoint_xfer_continue+0x38>
10005c52:	6862      	ldr	r2, [r4, #4]
10005c54:	1c1e      	adds	r6, r3, #0
10005c56:	6817      	ldr	r7, [r2, #0]
10005c58:	428b      	cmp	r3, r1
10005c5a:	d900      	bls.n	10005c5e <hw_endpoint_xfer_continue+0x7a>
10005c5c:	1c0e      	adds	r6, r1, #0
10005c5e:	78e1      	ldrb	r1, [r4, #3]
10005c60:	2280      	movs	r2, #128	; 0x80
10005c62:	000d      	movs	r5, r1
10005c64:	1e68      	subs	r0, r5, #1
10005c66:	4185      	sbcs	r5, r0
10005c68:	b2b6      	uxth	r6, r6
10005c6a:	00d2      	lsls	r2, r2, #3
10005c6c:	4332      	orrs	r2, r6
10005c6e:	036d      	lsls	r5, r5, #13
10005c70:	4315      	orrs	r5, r2
10005c72:	2201      	movs	r2, #1
10005c74:	1b9b      	subs	r3, r3, r6
10005c76:	4051      	eors	r1, r2
10005c78:	7862      	ldrb	r2, [r4, #1]
10005c7a:	b29b      	uxth	r3, r3
10005c7c:	8263      	strh	r3, [r4, #18]
10005c7e:	70e1      	strb	r1, [r4, #3]
10005c80:	2a00      	cmp	r2, #0
10005c82:	d05a      	beq.n	10005d3a <hw_endpoint_xfer_continue+0x156>
10005c84:	2b00      	cmp	r3, #0
10005c86:	d03b      	beq.n	10005d00 <hw_endpoint_xfer_continue+0x11c>
10005c88:	2280      	movs	r2, #128	; 0x80
10005c8a:	0152      	lsls	r2, r2, #5
10005c8c:	4315      	orrs	r5, r2
10005c8e:	4a45      	ldr	r2, [pc, #276]	; (10005da4 <hw_endpoint_xfer_continue+0x1c0>)
10005c90:	6c12      	ldr	r2, [r2, #64]	; 0x40
10005c92:	0792      	lsls	r2, r2, #30
10005c94:	d402      	bmi.n	10005c9c <hw_endpoint_xfer_continue+0xb8>
10005c96:	78a2      	ldrb	r2, [r4, #2]
10005c98:	09d2      	lsrs	r2, r2, #7
10005c9a:	d036      	beq.n	10005d0a <hw_endpoint_xfer_continue+0x126>
10005c9c:	8ba2      	ldrh	r2, [r4, #28]
10005c9e:	1c11      	adds	r1, r2, #0
10005ca0:	429a      	cmp	r2, r3
10005ca2:	d857      	bhi.n	10005d54 <hw_endpoint_xfer_continue+0x170>
10005ca4:	b28a      	uxth	r2, r1
10005ca6:	2180      	movs	r1, #128	; 0x80
10005ca8:	00c9      	lsls	r1, r1, #3
10005caa:	4311      	orrs	r1, r2
10005cac:	1a9b      	subs	r3, r3, r2
10005cae:	4690      	mov	r8, r2
10005cb0:	78e2      	ldrb	r2, [r4, #3]
10005cb2:	b29b      	uxth	r3, r3
10005cb4:	0016      	movs	r6, r2
10005cb6:	1e70      	subs	r0, r6, #1
10005cb8:	4186      	sbcs	r6, r0
10005cba:	0376      	lsls	r6, r6, #13
10005cbc:	430e      	orrs	r6, r1
10005cbe:	2101      	movs	r1, #1
10005cc0:	404a      	eors	r2, r1
10005cc2:	70e2      	strb	r2, [r4, #3]
10005cc4:	7862      	ldrb	r2, [r4, #1]
10005cc6:	8263      	strh	r3, [r4, #18]
10005cc8:	2a00      	cmp	r2, #0
10005cca:	d053      	beq.n	10005d74 <hw_endpoint_xfer_continue+0x190>
10005ccc:	2b00      	cmp	r3, #0
10005cce:	d102      	bne.n	10005cd6 <hw_endpoint_xfer_continue+0xf2>
10005cd0:	2380      	movs	r3, #128	; 0x80
10005cd2:	01db      	lsls	r3, r3, #7
10005cd4:	431e      	orrs	r6, r3
10005cd6:	23a0      	movs	r3, #160	; 0xa0
10005cd8:	4a33      	ldr	r2, [pc, #204]	; (10005da8 <hw_endpoint_xfer_continue+0x1c4>)
10005cda:	0436      	lsls	r6, r6, #16
10005cdc:	403a      	ands	r2, r7
10005cde:	05db      	lsls	r3, r3, #23
10005ce0:	4335      	orrs	r5, r6
10005ce2:	4313      	orrs	r3, r2
10005ce4:	e016      	b.n	10005d14 <hw_endpoint_xfer_continue+0x130>
10005ce6:	002a      	movs	r2, r5
10005ce8:	6980      	ldr	r0, [r0, #24]
10005cea:	68e1      	ldr	r1, [r4, #12]
10005cec:	f7ff f856 	bl	10004d9c <__wrap___aeabi_memcpy>
10005cf0:	8aa3      	ldrh	r3, [r4, #20]
10005cf2:	69a2      	ldr	r2, [r4, #24]
10005cf4:	18eb      	adds	r3, r5, r3
10005cf6:	b29b      	uxth	r3, r3
10005cf8:	1952      	adds	r2, r2, r5
10005cfa:	82a3      	strh	r3, [r4, #20]
10005cfc:	61a2      	str	r2, [r4, #24]
10005cfe:	e786      	b.n	10005c0e <hw_endpoint_xfer_continue+0x2a>
10005d00:	23a0      	movs	r3, #160	; 0xa0
10005d02:	01db      	lsls	r3, r3, #7
10005d04:	431d      	orrs	r5, r3
10005d06:	4b27      	ldr	r3, [pc, #156]	; (10005da4 <hw_endpoint_xfer_continue+0x1c0>)
10005d08:	6c1b      	ldr	r3, [r3, #64]	; 0x40
10005d0a:	2380      	movs	r3, #128	; 0x80
10005d0c:	4a27      	ldr	r2, [pc, #156]	; (10005dac <hw_endpoint_xfer_continue+0x1c8>)
10005d0e:	059b      	lsls	r3, r3, #22
10005d10:	403a      	ands	r2, r7
10005d12:	4313      	orrs	r3, r2
10005d14:	6862      	ldr	r2, [r4, #4]
10005d16:	6013      	str	r3, [r2, #0]
10005d18:	68a2      	ldr	r2, [r4, #8]
10005d1a:	6813      	ldr	r3, [r2, #0]
10005d1c:	055b      	lsls	r3, r3, #21
10005d1e:	d43e      	bmi.n	10005d9e <hw_endpoint_xfer_continue+0x1ba>
10005d20:	4b23      	ldr	r3, [pc, #140]	; (10005db0 <hw_endpoint_xfer_continue+0x1cc>)
10005d22:	402b      	ands	r3, r5
10005d24:	6013      	str	r3, [r2, #0]
10005d26:	e7ff      	b.n	10005d28 <hw_endpoint_xfer_continue+0x144>
10005d28:	e7ff      	b.n	10005d2a <hw_endpoint_xfer_continue+0x146>
10005d2a:	e7ff      	b.n	10005d2c <hw_endpoint_xfer_continue+0x148>
10005d2c:	e7ff      	b.n	10005d2e <hw_endpoint_xfer_continue+0x14a>
10005d2e:	e7ff      	b.n	10005d30 <hw_endpoint_xfer_continue+0x14c>
10005d30:	e7ff      	b.n	10005d32 <hw_endpoint_xfer_continue+0x14e>
10005d32:	68a3      	ldr	r3, [r4, #8]
10005d34:	2600      	movs	r6, #0
10005d36:	601d      	str	r5, [r3, #0]
10005d38:	e770      	b.n	10005c1c <hw_endpoint_xfer_continue+0x38>
10005d3a:	0032      	movs	r2, r6
10005d3c:	68e0      	ldr	r0, [r4, #12]
10005d3e:	69a1      	ldr	r1, [r4, #24]
10005d40:	f7ff f82c 	bl	10004d9c <__wrap___aeabi_memcpy>
10005d44:	69a3      	ldr	r3, [r4, #24]
10005d46:	199b      	adds	r3, r3, r6
10005d48:	61a3      	str	r3, [r4, #24]
10005d4a:	2380      	movs	r3, #128	; 0x80
10005d4c:	021b      	lsls	r3, r3, #8
10005d4e:	431d      	orrs	r5, r3
10005d50:	8a63      	ldrh	r3, [r4, #18]
10005d52:	e797      	b.n	10005c84 <hw_endpoint_xfer_continue+0xa0>
10005d54:	1c19      	adds	r1, r3, #0
10005d56:	e7a5      	b.n	10005ca4 <hw_endpoint_xfer_continue+0xc0>
10005d58:	68e1      	ldr	r1, [r4, #12]
10005d5a:	002a      	movs	r2, r5
10005d5c:	3140      	adds	r1, #64	; 0x40
10005d5e:	69a0      	ldr	r0, [r4, #24]
10005d60:	f7ff f81c 	bl	10004d9c <__wrap___aeabi_memcpy>
10005d64:	8aa3      	ldrh	r3, [r4, #20]
10005d66:	8ba1      	ldrh	r1, [r4, #28]
10005d68:	18eb      	adds	r3, r5, r3
10005d6a:	82a3      	strh	r3, [r4, #20]
10005d6c:	69a3      	ldr	r3, [r4, #24]
10005d6e:	195b      	adds	r3, r3, r5
10005d70:	61a3      	str	r3, [r4, #24]
10005d72:	e766      	b.n	10005c42 <hw_endpoint_xfer_continue+0x5e>
10005d74:	68e0      	ldr	r0, [r4, #12]
10005d76:	4642      	mov	r2, r8
10005d78:	69a1      	ldr	r1, [r4, #24]
10005d7a:	3040      	adds	r0, #64	; 0x40
10005d7c:	f7ff f80e 	bl	10004d9c <__wrap___aeabi_memcpy>
10005d80:	69a3      	ldr	r3, [r4, #24]
10005d82:	4443      	add	r3, r8
10005d84:	61a3      	str	r3, [r4, #24]
10005d86:	2380      	movs	r3, #128	; 0x80
10005d88:	021b      	lsls	r3, r3, #8
10005d8a:	431e      	orrs	r6, r3
10005d8c:	8a63      	ldrh	r3, [r4, #18]
10005d8e:	e79d      	b.n	10005ccc <hw_endpoint_xfer_continue+0xe8>
10005d90:	237f      	movs	r3, #127	; 0x7f
10005d92:	7881      	ldrb	r1, [r0, #2]
10005d94:	4a07      	ldr	r2, [pc, #28]	; (10005db4 <hw_endpoint_xfer_continue+0x1d0>)
10005d96:	4808      	ldr	r0, [pc, #32]	; (10005db8 <hw_endpoint_xfer_continue+0x1d4>)
10005d98:	4019      	ands	r1, r3
10005d9a:	f7fc fa23 	bl	100021e4 <panic>
10005d9e:	78a0      	ldrb	r0, [r4, #2]
10005da0:	f7ff fe28 	bl	100059f4 <_hw_endpoint_buffer_control_update32.part.0.isra.0>
10005da4:	50110000 	.word	0x50110000
10005da8:	dfffffff 	.word	0xdfffffff
10005dac:	afffffff 	.word	0xafffffff
10005db0:	fffffbff 	.word	0xfffffbff
10005db4:	20000424 	.word	0x20000424
10005db8:	10008a9c 	.word	0x10008a9c

10005dbc <tud_mounted>:
10005dbc:	4b02      	ldr	r3, [pc, #8]	; (10005dc8 <tud_mounted+0xc>)
10005dbe:	7858      	ldrb	r0, [r3, #1]
10005dc0:	1e43      	subs	r3, r0, #1
10005dc2:	4198      	sbcs	r0, r3
10005dc4:	b2c0      	uxtb	r0, r0
10005dc6:	4770      	bx	lr
10005dc8:	2000136c 	.word	0x2000136c

10005dcc <tud_suspended>:
10005dcc:	4b02      	ldr	r3, [pc, #8]	; (10005dd8 <tud_suspended+0xc>)
10005dce:	7818      	ldrb	r0, [r3, #0]
10005dd0:	0740      	lsls	r0, r0, #29
10005dd2:	0fc0      	lsrs	r0, r0, #31
10005dd4:	4770      	bx	lr
10005dd6:	46c0      	nop			; (mov r8, r8)
10005dd8:	2000136c 	.word	0x2000136c

10005ddc <tud_inited>:
10005ddc:	4b01      	ldr	r3, [pc, #4]	; (10005de4 <tud_inited+0x8>)
10005dde:	7818      	ldrb	r0, [r3, #0]
10005de0:	4770      	bx	lr
10005de2:	46c0      	nop			; (mov r8, r8)
10005de4:	20001ab5 	.word	0x20001ab5

10005de8 <tud_init>:
10005de8:	b5f0      	push	{r4, r5, r6, r7, lr}
10005dea:	46c6      	mov	lr, r8
10005dec:	4f2d      	ldr	r7, [pc, #180]	; (10005ea4 <tud_init+0xbc>)
10005dee:	0005      	movs	r5, r0
10005df0:	783b      	ldrb	r3, [r7, #0]
10005df2:	b500      	push	{lr}
10005df4:	2b00      	cmp	r3, #0
10005df6:	d003      	beq.n	10005e00 <tud_init+0x18>
10005df8:	2001      	movs	r0, #1
10005dfa:	bc80      	pop	{r7}
10005dfc:	46b8      	mov	r8, r7
10005dfe:	bdf0      	pop	{r4, r5, r6, r7, pc}
10005e00:	2253      	movs	r2, #83	; 0x53
10005e02:	2100      	movs	r1, #0
10005e04:	4828      	ldr	r0, [pc, #160]	; (10005ea8 <tud_init+0xc0>)
10005e06:	f7fe ffc3 	bl	10004d90 <__wrap_memset>
10005e0a:	4c28      	ldr	r4, [pc, #160]	; (10005eac <tud_init+0xc4>)
10005e0c:	0020      	movs	r0, r4
10005e0e:	f7fc f92d 	bl	1000206c <mutex_init>
10005e12:	4b27      	ldr	r3, [pc, #156]	; (10005eb0 <tud_init+0xc8>)
10005e14:	601c      	str	r4, [r3, #0]
10005e16:	4c27      	ldr	r4, [pc, #156]	; (10005eb4 <tud_init+0xcc>)
10005e18:	0020      	movs	r0, r4
10005e1a:	3c1c      	subs	r4, #28
10005e1c:	f7fc f942 	bl	100020a4 <critical_section_init>
10005e20:	0020      	movs	r0, r4
10005e22:	f001 fca3 	bl	1000776c <tu_fifo_clear>
10005e26:	4b24      	ldr	r3, [pc, #144]	; (10005eb8 <tud_init+0xd0>)
10005e28:	4e24      	ldr	r6, [pc, #144]	; (10005ebc <tud_init+0xd4>)
10005e2a:	601c      	str	r4, [r3, #0]
10005e2c:	4b24      	ldr	r3, [pc, #144]	; (10005ec0 <tud_init+0xd8>)
10005e2e:	4698      	mov	r8, r3
10005e30:	2b00      	cmp	r3, #0
10005e32:	d02a      	beq.n	10005e8a <tud_init+0xa2>
10005e34:	0030      	movs	r0, r6
10005e36:	f7ff f9dd 	bl	100051f4 <usbd_app_driver_get_cb>
10005e3a:	4642      	mov	r2, r8
10005e3c:	4b21      	ldr	r3, [pc, #132]	; (10005ec4 <tud_init+0xdc>)
10005e3e:	2400      	movs	r4, #0
10005e40:	6018      	str	r0, [r3, #0]
10005e42:	7833      	ldrb	r3, [r6, #0]
10005e44:	2a00      	cmp	r2, #0
10005e46:	d025      	beq.n	10005e94 <tud_init+0xac>
10005e48:	4a1e      	ldr	r2, [pc, #120]	; (10005ec4 <tud_init+0xdc>)
10005e4a:	4690      	mov	r8, r2
10005e4c:	429c      	cmp	r4, r3
10005e4e:	d30f      	bcc.n	10005e70 <tud_init+0x88>
10005e50:	f001 f86a 	bl	10006f28 <cdcd_init>
10005e54:	3401      	adds	r4, #1
10005e56:	7833      	ldrb	r3, [r6, #0]
10005e58:	b2e4      	uxtb	r4, r4
10005e5a:	42a3      	cmp	r3, r4
10005e5c:	d2f6      	bcs.n	10005e4c <tud_init+0x64>
10005e5e:	0028      	movs	r0, r5
10005e60:	f7ff fc52 	bl	10005708 <dcd_init>
10005e64:	0028      	movs	r0, r5
10005e66:	f7ff fc37 	bl	100056d8 <dcd_int_enable>
10005e6a:	2301      	movs	r3, #1
10005e6c:	703b      	strb	r3, [r7, #0]
10005e6e:	e7c3      	b.n	10005df8 <tud_init+0x10>
10005e70:	4643      	mov	r3, r8
10005e72:	681a      	ldr	r2, [r3, #0]
10005e74:	0063      	lsls	r3, r4, #1
10005e76:	191b      	adds	r3, r3, r4
10005e78:	00db      	lsls	r3, r3, #3
10005e7a:	589b      	ldr	r3, [r3, r2]
10005e7c:	4798      	blx	r3
10005e7e:	3401      	adds	r4, #1
10005e80:	7833      	ldrb	r3, [r6, #0]
10005e82:	b2e4      	uxtb	r4, r4
10005e84:	429c      	cmp	r4, r3
10005e86:	d9e1      	bls.n	10005e4c <tud_init+0x64>
10005e88:	e7e9      	b.n	10005e5e <tud_init+0x76>
10005e8a:	4642      	mov	r2, r8
10005e8c:	2400      	movs	r4, #0
10005e8e:	7833      	ldrb	r3, [r6, #0]
10005e90:	2a00      	cmp	r2, #0
10005e92:	d1d9      	bne.n	10005e48 <tud_init+0x60>
10005e94:	f001 f848 	bl	10006f28 <cdcd_init>
10005e98:	7833      	ldrb	r3, [r6, #0]
10005e9a:	2b00      	cmp	r3, #0
10005e9c:	d0df      	beq.n	10005e5e <tud_init+0x76>
10005e9e:	4643      	mov	r3, r8
10005ea0:	681b      	ldr	r3, [r3, #0]
10005ea2:	deff      	udf	#255	; 0xff
10005ea4:	20001ab5 	.word	0x20001ab5
10005ea8:	2000136c 	.word	0x2000136c
10005eac:	20001324 	.word	0x20001324
10005eb0:	200013c0 	.word	0x200013c0
10005eb4:	20000448 	.word	0x20000448
10005eb8:	200013c4 	.word	0x200013c4
10005ebc:	20001ab4 	.word	0x20001ab4
10005ec0:	100051f5 	.word	0x100051f5
10005ec4:	20001034 	.word	0x20001034

10005ec8 <tud_task>:
10005ec8:	b5f0      	push	{r4, r5, r6, r7, lr}
10005eca:	46de      	mov	lr, fp
10005ecc:	4657      	mov	r7, sl
10005ece:	464e      	mov	r6, r9
10005ed0:	4645      	mov	r5, r8
10005ed2:	b5e0      	push	{r5, r6, r7, lr}
10005ed4:	b091      	sub	sp, #68	; 0x44
10005ed6:	f001 fa03 	bl	100072e0 <tusb_inited>
10005eda:	2800      	cmp	r0, #0
10005edc:	d100      	bne.n	10005ee0 <tud_task+0x18>
10005ede:	e144      	b.n	1000616a <tud_task+0x2a2>
10005ee0:	4bc2      	ldr	r3, [pc, #776]	; (100061ec <tud_task+0x324>)
10005ee2:	4ec3      	ldr	r6, [pc, #780]	; (100061f0 <tud_task+0x328>)
10005ee4:	9301      	str	r3, [sp, #4]
10005ee6:	4bc3      	ldr	r3, [pc, #780]	; (100061f4 <tud_task+0x32c>)
10005ee8:	ac0d      	add	r4, sp, #52	; 0x34
10005eea:	9302      	str	r3, [sp, #8]
10005eec:	4bc2      	ldr	r3, [pc, #776]	; (100061f8 <tud_task+0x330>)
10005eee:	9600      	str	r6, [sp, #0]
10005ef0:	469b      	mov	fp, r3
10005ef2:	9b00      	ldr	r3, [sp, #0]
10005ef4:	681d      	ldr	r5, [r3, #0]
10005ef6:	69ea      	ldr	r2, [r5, #28]
10005ef8:	f3ef 8110 	mrs	r1, PRIMASK
10005efc:	b672      	cpsid	i
10005efe:	6813      	ldr	r3, [r2, #0]
10005f00:	2b00      	cmp	r3, #0
10005f02:	d0fc      	beq.n	10005efe <tud_task+0x36>
10005f04:	f3bf 8f5f 	dmb	sy
10005f08:	6229      	str	r1, [r5, #32]
10005f0a:	0028      	movs	r0, r5
10005f0c:	0021      	movs	r1, r4
10005f0e:	f001 faa1 	bl	10007454 <tu_fifo_read>
10005f12:	69ea      	ldr	r2, [r5, #28]
10005f14:	6a2b      	ldr	r3, [r5, #32]
10005f16:	f3bf 8f5f 	dmb	sy
10005f1a:	2100      	movs	r1, #0
10005f1c:	6011      	str	r1, [r2, #0]
10005f1e:	f383 8810 	msr	PRIMASK, r3
10005f22:	2800      	cmp	r0, #0
10005f24:	d100      	bne.n	10005f28 <tud_task+0x60>
10005f26:	e120      	b.n	1000616a <tud_task+0x2a2>
10005f28:	7863      	ldrb	r3, [r4, #1]
10005f2a:	2b08      	cmp	r3, #8
10005f2c:	d8e1      	bhi.n	10005ef2 <tud_task+0x2a>
10005f2e:	9a01      	ldr	r2, [sp, #4]
10005f30:	009b      	lsls	r3, r3, #2
10005f32:	58d3      	ldr	r3, [r2, r3]
10005f34:	469f      	mov	pc, r3
10005f36:	6863      	ldr	r3, [r4, #4]
10005f38:	2b00      	cmp	r3, #0
10005f3a:	d0da      	beq.n	10005ef2 <tud_task+0x2a>
10005f3c:	68a0      	ldr	r0, [r4, #8]
10005f3e:	4798      	blx	r3
10005f40:	e7d7      	b.n	10005ef2 <tud_task+0x2a>
10005f42:	227f      	movs	r2, #127	; 0x7f
10005f44:	7921      	ldrb	r1, [r4, #4]
10005f46:	4bab      	ldr	r3, [pc, #684]	; (100061f4 <tud_task+0x32c>)
10005f48:	400a      	ands	r2, r1
10005f4a:	0055      	lsls	r5, r2, #1
10005f4c:	09c8      	lsrs	r0, r1, #7
10005f4e:	195b      	adds	r3, r3, r5
10005f50:	181b      	adds	r3, r3, r0
10005f52:	0018      	movs	r0, r3
10005f54:	2701      	movs	r7, #1
10005f56:	3030      	adds	r0, #48	; 0x30
10005f58:	78c5      	ldrb	r5, [r0, #3]
10005f5a:	43bd      	bics	r5, r7
10005f5c:	70c5      	strb	r5, [r0, #3]
10005f5e:	78c5      	ldrb	r5, [r0, #3]
10005f60:	3703      	adds	r7, #3
10005f62:	43bd      	bics	r5, r7
10005f64:	70c5      	strb	r5, [r0, #3]
10005f66:	2a00      	cmp	r2, #0
10005f68:	d100      	bne.n	10005f6c <tud_task+0xa4>
10005f6a:	e105      	b.n	10006178 <tud_task+0x2b0>
10005f6c:	4aa3      	ldr	r2, [pc, #652]	; (100061fc <tud_task+0x334>)
10005f6e:	7cdb      	ldrb	r3, [r3, #19]
10005f70:	2a00      	cmp	r2, #0
10005f72:	d006      	beq.n	10005f82 <tud_task+0xba>
10005f74:	4aa2      	ldr	r2, [pc, #648]	; (10006200 <tud_task+0x338>)
10005f76:	7812      	ldrb	r2, [r2, #0]
10005f78:	4293      	cmp	r3, r2
10005f7a:	d200      	bcs.n	10005f7e <tud_task+0xb6>
10005f7c:	e187      	b.n	1000628e <tud_task+0x3c6>
10005f7e:	1a9b      	subs	r3, r3, r2
10005f80:	b2db      	uxtb	r3, r3
10005f82:	2b00      	cmp	r3, #0
10005f84:	d000      	beq.n	10005f88 <tud_task+0xc0>
10005f86:	e0f0      	b.n	1000616a <tud_task+0x2a2>
10005f88:	4d9e      	ldr	r5, [pc, #632]	; (10006204 <tud_task+0x33c>)
10005f8a:	68a3      	ldr	r3, [r4, #8]
10005f8c:	7962      	ldrb	r2, [r4, #5]
10005f8e:	7820      	ldrb	r0, [r4, #0]
10005f90:	47a8      	blx	r5
10005f92:	e7ae      	b.n	10005ef2 <tud_task+0x2a>
10005f94:	2201      	movs	r2, #1
10005f96:	4f97      	ldr	r7, [pc, #604]	; (100061f4 <tud_task+0x32c>)
10005f98:	2101      	movs	r1, #1
10005f9a:	783b      	ldrb	r3, [r7, #0]
10005f9c:	2004      	movs	r0, #4
10005f9e:	4313      	orrs	r3, r2
10005fa0:	703b      	strb	r3, [r7, #0]
10005fa2:	2333      	movs	r3, #51	; 0x33
10005fa4:	5cfa      	ldrb	r2, [r7, r3]
10005fa6:	438a      	bics	r2, r1
10005fa8:	54fa      	strb	r2, [r7, r3]
10005faa:	5cfa      	ldrb	r2, [r7, r3]
10005fac:	4382      	bics	r2, r0
10005fae:	54fa      	strb	r2, [r7, r3]
10005fb0:	3301      	adds	r3, #1
10005fb2:	5cfa      	ldrb	r2, [r7, r3]
10005fb4:	438a      	bics	r2, r1
10005fb6:	54fa      	strb	r2, [r7, r3]
10005fb8:	5cfa      	ldrb	r2, [r7, r3]
10005fba:	4382      	bics	r2, r0
10005fbc:	54fa      	strb	r2, [r7, r3]
10005fbe:	7823      	ldrb	r3, [r4, #0]
10005fc0:	2000      	movs	r0, #0
10005fc2:	469a      	mov	sl, r3
10005fc4:	f000 fe64 	bl	10006c90 <usbd_control_set_complete_callback>
10005fc8:	2260      	movs	r2, #96	; 0x60
10005fca:	7923      	ldrb	r3, [r4, #4]
10005fcc:	401a      	ands	r2, r3
10005fce:	2a60      	cmp	r2, #96	; 0x60
10005fd0:	d00d      	beq.n	10005fee <tud_task+0x126>
10005fd2:	2a40      	cmp	r2, #64	; 0x40
10005fd4:	d100      	bne.n	10005fd8 <tud_task+0x110>
10005fd6:	e0eb      	b.n	100061b0 <tud_task+0x2e8>
10005fd8:	06db      	lsls	r3, r3, #27
10005fda:	0edb      	lsrs	r3, r3, #27
10005fdc:	2b01      	cmp	r3, #1
10005fde:	d100      	bne.n	10005fe2 <tud_task+0x11a>
10005fe0:	e160      	b.n	100062a4 <tud_task+0x3dc>
10005fe2:	2b02      	cmp	r3, #2
10005fe4:	d100      	bne.n	10005fe8 <tud_task+0x120>
10005fe6:	e11b      	b.n	10006220 <tud_task+0x358>
10005fe8:	2b00      	cmp	r3, #0
10005fea:	d100      	bne.n	10005fee <tud_task+0x126>
10005fec:	e0ef      	b.n	100061ce <tud_task+0x306>
10005fee:	7820      	ldrb	r0, [r4, #0]
10005ff0:	2100      	movs	r1, #0
10005ff2:	f7ff fccd 	bl	10005990 <dcd_edpt_stall>
10005ff6:	2180      	movs	r1, #128	; 0x80
10005ff8:	7820      	ldrb	r0, [r4, #0]
10005ffa:	f7ff fcc9 	bl	10005990 <dcd_edpt_stall>
10005ffe:	e778      	b.n	10005ef2 <tud_task+0x2a>
10006000:	9b02      	ldr	r3, [sp, #8]
10006002:	781b      	ldrb	r3, [r3, #0]
10006004:	07db      	lsls	r3, r3, #31
10006006:	d400      	bmi.n	1000600a <tud_task+0x142>
10006008:	e773      	b.n	10005ef2 <tud_task+0x2a>
1000600a:	4b7f      	ldr	r3, [pc, #508]	; (10006208 <tud_task+0x340>)
1000600c:	2b00      	cmp	r3, #0
1000600e:	d100      	bne.n	10006012 <tud_task+0x14a>
10006010:	e76f      	b.n	10005ef2 <tud_task+0x2a>
10006012:	e000      	b.n	10006016 <tud_task+0x14e>
10006014:	bf00      	nop
10006016:	e76c      	b.n	10005ef2 <tud_task+0x2a>
10006018:	4a76      	ldr	r2, [pc, #472]	; (100061f4 <tud_task+0x32c>)
1000601a:	7813      	ldrb	r3, [r2, #0]
1000601c:	07db      	lsls	r3, r3, #31
1000601e:	d400      	bmi.n	10006022 <tud_task+0x15a>
10006020:	e767      	b.n	10005ef2 <tud_task+0x2a>
10006022:	4b7a      	ldr	r3, [pc, #488]	; (1000620c <tud_task+0x344>)
10006024:	2b00      	cmp	r3, #0
10006026:	d100      	bne.n	1000602a <tud_task+0x162>
10006028:	e763      	b.n	10005ef2 <tud_task+0x2a>
1000602a:	7810      	ldrb	r0, [r2, #0]
1000602c:	0700      	lsls	r0, r0, #28
1000602e:	0fc0      	lsrs	r0, r0, #31
10006030:	e000      	b.n	10006034 <tud_task+0x16c>
10006032:	bf00      	nop
10006034:	e75d      	b.n	10005ef2 <tud_task+0x2a>
10006036:	4d72      	ldr	r5, [pc, #456]	; (10006200 <tud_task+0x338>)
10006038:	4a70      	ldr	r2, [pc, #448]	; (100061fc <tud_task+0x334>)
1000603a:	2700      	movs	r7, #0
1000603c:	782b      	ldrb	r3, [r5, #0]
1000603e:	2a00      	cmp	r2, #0
10006040:	d100      	bne.n	10006044 <tud_task+0x17c>
10006042:	e0b0      	b.n	100061a6 <tud_task+0x2de>
10006044:	4a6c      	ldr	r2, [pc, #432]	; (100061f8 <tud_task+0x330>)
10006046:	0016      	movs	r6, r2
10006048:	429f      	cmp	r7, r3
1000604a:	d305      	bcc.n	10006058 <tud_task+0x190>
1000604c:	3701      	adds	r7, #1
1000604e:	b2ff      	uxtb	r7, r7
10006050:	429f      	cmp	r7, r3
10006052:	d900      	bls.n	10006056 <tud_task+0x18e>
10006054:	e74d      	b.n	10005ef2 <tud_task+0x2a>
10006056:	d2f9      	bcs.n	1000604c <tud_task+0x184>
10006058:	007a      	lsls	r2, r7, #1
1000605a:	6831      	ldr	r1, [r6, #0]
1000605c:	19d2      	adds	r2, r2, r7
1000605e:	00d2      	lsls	r2, r2, #3
10006060:	188a      	adds	r2, r1, r2
10006062:	6952      	ldr	r2, [r2, #20]
10006064:	2a00      	cmp	r2, #0
10006066:	d0f1      	beq.n	1000604c <tud_task+0x184>
10006068:	7820      	ldrb	r0, [r4, #0]
1000606a:	4790      	blx	r2
1000606c:	3701      	adds	r7, #1
1000606e:	782b      	ldrb	r3, [r5, #0]
10006070:	b2ff      	uxtb	r7, r7
10006072:	42bb      	cmp	r3, r7
10006074:	d2e8      	bcs.n	10006048 <tud_task+0x180>
10006076:	e73c      	b.n	10005ef2 <tud_task+0x2a>
10006078:	7823      	ldrb	r3, [r4, #0]
1000607a:	4d61      	ldr	r5, [pc, #388]	; (10006200 <tud_task+0x338>)
1000607c:	4698      	mov	r8, r3
1000607e:	4a5f      	ldr	r2, [pc, #380]	; (100061fc <tud_task+0x334>)
10006080:	2700      	movs	r7, #0
10006082:	4691      	mov	r9, r2
10006084:	4646      	mov	r6, r8
10006086:	782b      	ldrb	r3, [r5, #0]
10006088:	2a00      	cmp	r2, #0
1000608a:	d100      	bne.n	1000608e <tud_task+0x1c6>
1000608c:	e083      	b.n	10006196 <tud_task+0x2ce>
1000608e:	42bb      	cmp	r3, r7
10006090:	d85c      	bhi.n	1000614c <tud_task+0x284>
10006092:	0030      	movs	r0, r6
10006094:	f000 ff86 	bl	10006fa4 <cdcd_reset>
10006098:	3701      	adds	r7, #1
1000609a:	782b      	ldrb	r3, [r5, #0]
1000609c:	b2ff      	uxtb	r7, r7
1000609e:	42bb      	cmp	r3, r7
100060a0:	d2f5      	bcs.n	1000608e <tud_task+0x1c6>
100060a2:	9d02      	ldr	r5, [sp, #8]
100060a4:	2253      	movs	r2, #83	; 0x53
100060a6:	2100      	movs	r1, #0
100060a8:	0028      	movs	r0, r5
100060aa:	f7fe fe71 	bl	10004d90 <__wrap_memset>
100060ae:	2210      	movs	r2, #16
100060b0:	21ff      	movs	r1, #255	; 0xff
100060b2:	4857      	ldr	r0, [pc, #348]	; (10006210 <tud_task+0x348>)
100060b4:	f7fe fe6c 	bl	10004d90 <__wrap_memset>
100060b8:	0028      	movs	r0, r5
100060ba:	2220      	movs	r2, #32
100060bc:	21ff      	movs	r1, #255	; 0xff
100060be:	3013      	adds	r0, #19
100060c0:	f7fe fe66 	bl	10004d90 <__wrap_memset>
100060c4:	f000 fdda 	bl	10006c7c <usbd_control_reset>
100060c8:	4b52      	ldr	r3, [pc, #328]	; (10006214 <tud_task+0x34c>)
100060ca:	2b00      	cmp	r3, #0
100060cc:	d100      	bne.n	100060d0 <tud_task+0x208>
100060ce:	e710      	b.n	10005ef2 <tud_task+0x2a>
100060d0:	e000      	b.n	100060d4 <tud_task+0x20c>
100060d2:	bf00      	nop
100060d4:	e70d      	b.n	10005ef2 <tud_task+0x2a>
100060d6:	7823      	ldrb	r3, [r4, #0]
100060d8:	4d49      	ldr	r5, [pc, #292]	; (10006200 <tud_task+0x338>)
100060da:	4a48      	ldr	r2, [pc, #288]	; (100061fc <tud_task+0x334>)
100060dc:	4698      	mov	r8, r3
100060de:	4691      	mov	r9, r2
100060e0:	2700      	movs	r7, #0
100060e2:	782b      	ldrb	r3, [r5, #0]
100060e4:	2a00      	cmp	r2, #0
100060e6:	d04d      	beq.n	10006184 <tud_task+0x2bc>
100060e8:	4a43      	ldr	r2, [pc, #268]	; (100061f8 <tud_task+0x330>)
100060ea:	4646      	mov	r6, r8
100060ec:	4691      	mov	r9, r2
100060ee:	42bb      	cmp	r3, r7
100060f0:	d81d      	bhi.n	1000612e <tud_task+0x266>
100060f2:	0030      	movs	r0, r6
100060f4:	f000 ff56 	bl	10006fa4 <cdcd_reset>
100060f8:	3701      	adds	r7, #1
100060fa:	782b      	ldrb	r3, [r5, #0]
100060fc:	b2ff      	uxtb	r7, r7
100060fe:	42bb      	cmp	r3, r7
10006100:	d2f5      	bcs.n	100060ee <tud_task+0x226>
10006102:	4d3c      	ldr	r5, [pc, #240]	; (100061f4 <tud_task+0x32c>)
10006104:	2253      	movs	r2, #83	; 0x53
10006106:	2100      	movs	r1, #0
10006108:	0028      	movs	r0, r5
1000610a:	f7fe fe41 	bl	10004d90 <__wrap_memset>
1000610e:	2210      	movs	r2, #16
10006110:	21ff      	movs	r1, #255	; 0xff
10006112:	1ce8      	adds	r0, r5, #3
10006114:	f7fe fe3c 	bl	10004d90 <__wrap_memset>
10006118:	0028      	movs	r0, r5
1000611a:	2220      	movs	r2, #32
1000611c:	21ff      	movs	r1, #255	; 0xff
1000611e:	3013      	adds	r0, #19
10006120:	f7fe fe36 	bl	10004d90 <__wrap_memset>
10006124:	f000 fdaa 	bl	10006c7c <usbd_control_reset>
10006128:	7923      	ldrb	r3, [r4, #4]
1000612a:	70ab      	strb	r3, [r5, #2]
1000612c:	e6e1      	b.n	10005ef2 <tud_task+0x2a>
1000612e:	464b      	mov	r3, r9
10006130:	681a      	ldr	r2, [r3, #0]
10006132:	007b      	lsls	r3, r7, #1
10006134:	19db      	adds	r3, r3, r7
10006136:	00db      	lsls	r3, r3, #3
10006138:	18d3      	adds	r3, r2, r3
1000613a:	685b      	ldr	r3, [r3, #4]
1000613c:	0030      	movs	r0, r6
1000613e:	4798      	blx	r3
10006140:	3701      	adds	r7, #1
10006142:	782b      	ldrb	r3, [r5, #0]
10006144:	b2ff      	uxtb	r7, r7
10006146:	429f      	cmp	r7, r3
10006148:	d9d1      	bls.n	100060ee <tud_task+0x226>
1000614a:	e7da      	b.n	10006102 <tud_task+0x23a>
1000614c:	465b      	mov	r3, fp
1000614e:	681a      	ldr	r2, [r3, #0]
10006150:	007b      	lsls	r3, r7, #1
10006152:	19db      	adds	r3, r3, r7
10006154:	00db      	lsls	r3, r3, #3
10006156:	18d3      	adds	r3, r2, r3
10006158:	685b      	ldr	r3, [r3, #4]
1000615a:	0030      	movs	r0, r6
1000615c:	4798      	blx	r3
1000615e:	3701      	adds	r7, #1
10006160:	782b      	ldrb	r3, [r5, #0]
10006162:	b2ff      	uxtb	r7, r7
10006164:	42bb      	cmp	r3, r7
10006166:	d292      	bcs.n	1000608e <tud_task+0x1c6>
10006168:	e79b      	b.n	100060a2 <tud_task+0x1da>
1000616a:	b011      	add	sp, #68	; 0x44
1000616c:	bcf0      	pop	{r4, r5, r6, r7}
1000616e:	46bb      	mov	fp, r7
10006170:	46b2      	mov	sl, r6
10006172:	46a9      	mov	r9, r5
10006174:	46a0      	mov	r8, r4
10006176:	bdf0      	pop	{r4, r5, r6, r7, pc}
10006178:	68a3      	ldr	r3, [r4, #8]
1000617a:	7962      	ldrb	r2, [r4, #5]
1000617c:	7820      	ldrb	r0, [r4, #0]
1000617e:	f000 fd9b 	bl	10006cb8 <usbd_control_xfer_cb>
10006182:	e6b6      	b.n	10005ef2 <tud_task+0x2a>
10006184:	4640      	mov	r0, r8
10006186:	f000 ff0d 	bl	10006fa4 <cdcd_reset>
1000618a:	782b      	ldrb	r3, [r5, #0]
1000618c:	2b00      	cmp	r3, #0
1000618e:	d0b8      	beq.n	10006102 <tud_task+0x23a>
10006190:	464b      	mov	r3, r9
10006192:	685b      	ldr	r3, [r3, #4]
10006194:	deff      	udf	#255	; 0xff
10006196:	4640      	mov	r0, r8
10006198:	f000 ff04 	bl	10006fa4 <cdcd_reset>
1000619c:	782b      	ldrb	r3, [r5, #0]
1000619e:	2b00      	cmp	r3, #0
100061a0:	d100      	bne.n	100061a4 <tud_task+0x2dc>
100061a2:	e77e      	b.n	100060a2 <tud_task+0x1da>
100061a4:	e7f4      	b.n	10006190 <tud_task+0x2c8>
100061a6:	2b00      	cmp	r3, #0
100061a8:	d100      	bne.n	100061ac <tud_task+0x2e4>
100061aa:	e6a2      	b.n	10005ef2 <tud_task+0x2a>
100061ac:	6953      	ldr	r3, [r2, #20]
100061ae:	deff      	udf	#255	; 0xff
100061b0:	4819      	ldr	r0, [pc, #100]	; (10006218 <tud_task+0x350>)
100061b2:	2800      	cmp	r0, #0
100061b4:	d100      	bne.n	100061b8 <tud_task+0x2f0>
100061b6:	e71a      	b.n	10005fee <tud_task+0x126>
100061b8:	f000 fd6a 	bl	10006c90 <usbd_control_set_complete_callback>
100061bc:	2100      	movs	r1, #0
100061be:	4650      	mov	r0, sl
100061c0:	aa0e      	add	r2, sp, #56	; 0x38
100061c2:	e000      	b.n	100061c6 <tud_task+0x2fe>
100061c4:	bf00      	nop
100061c6:	2800      	cmp	r0, #0
100061c8:	d000      	beq.n	100061cc <tud_task+0x304>
100061ca:	e692      	b.n	10005ef2 <tud_task+0x2a>
100061cc:	e70f      	b.n	10005fee <tud_task+0x126>
100061ce:	2a20      	cmp	r2, #32
100061d0:	d100      	bne.n	100061d4 <tud_task+0x30c>
100061d2:	e09c      	b.n	1000630e <tud_task+0x446>
100061d4:	2a00      	cmp	r2, #0
100061d6:	d000      	beq.n	100061da <tud_task+0x312>
100061d8:	e709      	b.n	10005fee <tud_task+0x126>
100061da:	7963      	ldrb	r3, [r4, #5]
100061dc:	2b09      	cmp	r3, #9
100061de:	d900      	bls.n	100061e2 <tud_task+0x31a>
100061e0:	e705      	b.n	10005fee <tud_task+0x126>
100061e2:	4a0e      	ldr	r2, [pc, #56]	; (1000621c <tud_task+0x354>)
100061e4:	009b      	lsls	r3, r3, #2
100061e6:	58d3      	ldr	r3, [r2, r3]
100061e8:	469f      	mov	pc, r3
100061ea:	46c0      	nop			; (mov r8, r8)
100061ec:	10008ad0 	.word	0x10008ad0
100061f0:	200013c4 	.word	0x200013c4
100061f4:	2000136c 	.word	0x2000136c
100061f8:	20001034 	.word	0x20001034
100061fc:	100051f5 	.word	0x100051f5
10006200:	20001ab4 	.word	0x20001ab4
10006204:	10007199 	.word	0x10007199
	...
10006210:	2000136f 	.word	0x2000136f
	...
1000621c:	10008af4 	.word	0x10008af4
10006220:	2370      	movs	r3, #112	; 0x70
10006222:	7a21      	ldrb	r1, [r4, #8]
10006224:	420b      	tst	r3, r1
10006226:	d000      	beq.n	1000622a <tud_task+0x362>
10006228:	e6e1      	b.n	10005fee <tud_task+0x126>
1000622a:	330f      	adds	r3, #15
1000622c:	400b      	ands	r3, r1
1000622e:	005b      	lsls	r3, r3, #1
10006230:	09cd      	lsrs	r5, r1, #7
10006232:	18f8      	adds	r0, r7, r3
10006234:	1940      	adds	r0, r0, r5
10006236:	7cc6      	ldrb	r6, [r0, #19]
10006238:	48b9      	ldr	r0, [pc, #740]	; (10006520 <tud_task+0x658>)
1000623a:	2800      	cmp	r0, #0
1000623c:	d006      	beq.n	1000624c <tud_task+0x384>
1000623e:	48b9      	ldr	r0, [pc, #740]	; (10006524 <tud_task+0x65c>)
10006240:	7800      	ldrb	r0, [r0, #0]
10006242:	4286      	cmp	r6, r0
10006244:	d200      	bcs.n	10006248 <tud_task+0x380>
10006246:	e083      	b.n	10006350 <tud_task+0x488>
10006248:	1a30      	subs	r0, r6, r0
1000624a:	b2c6      	uxtb	r6, r0
1000624c:	2e00      	cmp	r6, #0
1000624e:	d17b      	bne.n	10006348 <tud_task+0x480>
10006250:	2a00      	cmp	r2, #0
10006252:	d000      	beq.n	10006256 <tud_task+0x38e>
10006254:	e110      	b.n	10006478 <tud_task+0x5b0>
10006256:	4ab4      	ldr	r2, [pc, #720]	; (10006528 <tud_task+0x660>)
10006258:	4691      	mov	r9, r2
1000625a:	2602      	movs	r6, #2
1000625c:	7962      	ldrb	r2, [r4, #5]
1000625e:	4690      	mov	r8, r2
10006260:	43b2      	bics	r2, r6
10006262:	2a01      	cmp	r2, #1
10006264:	d100      	bne.n	10006268 <tud_task+0x3a0>
10006266:	e10b      	b.n	10006480 <tud_task+0x5b8>
10006268:	4642      	mov	r2, r8
1000626a:	2a00      	cmp	r2, #0
1000626c:	d000      	beq.n	10006270 <tud_task+0x3a8>
1000626e:	e6be      	b.n	10005fee <tud_task+0x126>
10006270:	18fb      	adds	r3, r7, r3
10006272:	195b      	adds	r3, r3, r5
10006274:	3330      	adds	r3, #48	; 0x30
10006276:	78db      	ldrb	r3, [r3, #3]
10006278:	aa0c      	add	r2, sp, #48	; 0x30
1000627a:	079b      	lsls	r3, r3, #30
1000627c:	0fdb      	lsrs	r3, r3, #31
1000627e:	3202      	adds	r2, #2
10006280:	8013      	strh	r3, [r2, #0]
10006282:	4650      	mov	r0, sl
10006284:	2302      	movs	r3, #2
10006286:	a90e      	add	r1, sp, #56	; 0x38
10006288:	f000 fca2 	bl	10006bd0 <tud_control_xfer>
1000628c:	e631      	b.n	10005ef2 <tud_task+0x2a>
1000628e:	4aa7      	ldr	r2, [pc, #668]	; (1000652c <tud_task+0x664>)
10006290:	0058      	lsls	r0, r3, #1
10006292:	6812      	ldr	r2, [r2, #0]
10006294:	18c3      	adds	r3, r0, r3
10006296:	00db      	lsls	r3, r3, #3
10006298:	18d3      	adds	r3, r2, r3
1000629a:	2b00      	cmp	r3, #0
1000629c:	d100      	bne.n	100062a0 <tud_task+0x3d8>
1000629e:	e764      	b.n	1000616a <tud_task+0x2a2>
100062a0:	691d      	ldr	r5, [r3, #16]
100062a2:	e672      	b.n	10005f8a <tud_task+0xc2>
100062a4:	7a23      	ldrb	r3, [r4, #8]
100062a6:	2b0f      	cmp	r3, #15
100062a8:	d900      	bls.n	100062ac <tud_task+0x3e4>
100062aa:	e6a0      	b.n	10005fee <tud_task+0x126>
100062ac:	4a9c      	ldr	r2, [pc, #624]	; (10006520 <tud_task+0x658>)
100062ae:	18fb      	adds	r3, r7, r3
100062b0:	78db      	ldrb	r3, [r3, #3]
100062b2:	2a00      	cmp	r2, #0
100062b4:	d005      	beq.n	100062c2 <tud_task+0x3fa>
100062b6:	4a9b      	ldr	r2, [pc, #620]	; (10006524 <tud_task+0x65c>)
100062b8:	7812      	ldrb	r2, [r2, #0]
100062ba:	4293      	cmp	r3, r2
100062bc:	d363      	bcc.n	10006386 <tud_task+0x4be>
100062be:	1a9b      	subs	r3, r3, r2
100062c0:	b2db      	uxtb	r3, r3
100062c2:	2b00      	cmp	r3, #0
100062c4:	d000      	beq.n	100062c8 <tud_task+0x400>
100062c6:	e692      	b.n	10005fee <tud_task+0x126>
100062c8:	4899      	ldr	r0, [pc, #612]	; (10006530 <tud_task+0x668>)
100062ca:	4d97      	ldr	r5, [pc, #604]	; (10006528 <tud_task+0x660>)
100062cc:	f000 fce0 	bl	10006c90 <usbd_control_set_complete_callback>
100062d0:	2100      	movs	r1, #0
100062d2:	4650      	mov	r0, sl
100062d4:	68eb      	ldr	r3, [r5, #12]
100062d6:	aa0e      	add	r2, sp, #56	; 0x38
100062d8:	4798      	blx	r3
100062da:	2800      	cmp	r0, #0
100062dc:	d000      	beq.n	100062e0 <tud_task+0x418>
100062de:	e608      	b.n	10005ef2 <tud_task+0x2a>
100062e0:	2260      	movs	r2, #96	; 0x60
100062e2:	0015      	movs	r5, r2
100062e4:	7923      	ldrb	r3, [r4, #4]
100062e6:	401d      	ands	r5, r3
100062e8:	421a      	tst	r2, r3
100062ea:	d000      	beq.n	100062ee <tud_task+0x426>
100062ec:	e67f      	b.n	10005fee <tud_task+0x126>
100062ee:	7963      	ldrb	r3, [r4, #5]
100062f0:	3b0a      	subs	r3, #10
100062f2:	2b01      	cmp	r3, #1
100062f4:	d900      	bls.n	100062f8 <tud_task+0x430>
100062f6:	e67a      	b.n	10005fee <tud_task+0x126>
100062f8:	f000 fcca 	bl	10006c90 <usbd_control_set_complete_callback>
100062fc:	7963      	ldrb	r3, [r4, #5]
100062fe:	2b0a      	cmp	r3, #10
10006300:	d100      	bne.n	10006304 <tud_task+0x43c>
10006302:	e0ea      	b.n	100064da <tud_task+0x612>
10006304:	4650      	mov	r0, sl
10006306:	a90e      	add	r1, sp, #56	; 0x38
10006308:	f000 fc4c 	bl	10006ba4 <tud_control_status>
1000630c:	e5f1      	b.n	10005ef2 <tud_task+0x2a>
1000630e:	7a23      	ldrb	r3, [r4, #8]
10006310:	2b0f      	cmp	r3, #15
10006312:	d900      	bls.n	10006316 <tud_task+0x44e>
10006314:	e66b      	b.n	10005fee <tud_task+0x126>
10006316:	4a82      	ldr	r2, [pc, #520]	; (10006520 <tud_task+0x658>)
10006318:	18fb      	adds	r3, r7, r3
1000631a:	78db      	ldrb	r3, [r3, #3]
1000631c:	2a00      	cmp	r2, #0
1000631e:	d006      	beq.n	1000632e <tud_task+0x466>
10006320:	4a80      	ldr	r2, [pc, #512]	; (10006524 <tud_task+0x65c>)
10006322:	7812      	ldrb	r2, [r2, #0]
10006324:	4293      	cmp	r3, r2
10006326:	d200      	bcs.n	1000632a <tud_task+0x462>
10006328:	e0cc      	b.n	100064c4 <tud_task+0x5fc>
1000632a:	1a9b      	subs	r3, r3, r2
1000632c:	b2db      	uxtb	r3, r3
1000632e:	2b00      	cmp	r3, #0
10006330:	d000      	beq.n	10006334 <tud_task+0x46c>
10006332:	e65c      	b.n	10005fee <tud_task+0x126>
10006334:	487e      	ldr	r0, [pc, #504]	; (10006530 <tud_task+0x668>)
10006336:	4d7c      	ldr	r5, [pc, #496]	; (10006528 <tud_task+0x660>)
10006338:	f000 fcaa 	bl	10006c90 <usbd_control_set_complete_callback>
1000633c:	2100      	movs	r1, #0
1000633e:	4650      	mov	r0, sl
10006340:	68eb      	ldr	r3, [r5, #12]
10006342:	aa0e      	add	r2, sp, #56	; 0x38
10006344:	4798      	blx	r3
10006346:	e73e      	b.n	100061c6 <tud_task+0x2fe>
10006348:	4691      	mov	r9, r2
1000634a:	2a00      	cmp	r2, #0
1000634c:	d085      	beq.n	1000625a <tud_task+0x392>
1000634e:	e64e      	b.n	10005fee <tud_task+0x126>
10006350:	4876      	ldr	r0, [pc, #472]	; (1000652c <tud_task+0x664>)
10006352:	9003      	str	r0, [sp, #12]
10006354:	0070      	lsls	r0, r6, #1
10006356:	4684      	mov	ip, r0
10006358:	9803      	ldr	r0, [sp, #12]
1000635a:	4466      	add	r6, ip
1000635c:	6800      	ldr	r0, [r0, #0]
1000635e:	00f6      	lsls	r6, r6, #3
10006360:	4681      	mov	r9, r0
10006362:	44b1      	add	r9, r6
10006364:	2a00      	cmp	r2, #0
10006366:	d100      	bne.n	1000636a <tud_task+0x4a2>
10006368:	e777      	b.n	1000625a <tud_task+0x392>
1000636a:	464b      	mov	r3, r9
1000636c:	2b00      	cmp	r3, #0
1000636e:	d100      	bne.n	10006372 <tud_task+0x4aa>
10006370:	e63d      	b.n	10005fee <tud_task+0x126>
10006372:	68d8      	ldr	r0, [r3, #12]
10006374:	f000 fc8c 	bl	10006c90 <usbd_control_set_complete_callback>
10006378:	464b      	mov	r3, r9
1000637a:	2100      	movs	r1, #0
1000637c:	4650      	mov	r0, sl
1000637e:	68db      	ldr	r3, [r3, #12]
10006380:	aa0e      	add	r2, sp, #56	; 0x38
10006382:	4798      	blx	r3
10006384:	e71f      	b.n	100061c6 <tud_task+0x2fe>
10006386:	4a69      	ldr	r2, [pc, #420]	; (1000652c <tud_task+0x664>)
10006388:	0059      	lsls	r1, r3, #1
1000638a:	6815      	ldr	r5, [r2, #0]
1000638c:	18cb      	adds	r3, r1, r3
1000638e:	00db      	lsls	r3, r3, #3
10006390:	18ed      	adds	r5, r5, r3
10006392:	2d00      	cmp	r5, #0
10006394:	d100      	bne.n	10006398 <tud_task+0x4d0>
10006396:	e62a      	b.n	10005fee <tud_task+0x126>
10006398:	68e8      	ldr	r0, [r5, #12]
1000639a:	e797      	b.n	100062cc <tud_task+0x404>
1000639c:	88e3      	ldrh	r3, [r4, #6]
1000639e:	2b01      	cmp	r3, #1
100063a0:	d000      	beq.n	100063a4 <tud_task+0x4dc>
100063a2:	e624      	b.n	10005fee <tud_task+0x126>
100063a4:	2208      	movs	r2, #8
100063a6:	783b      	ldrb	r3, [r7, #0]
100063a8:	4650      	mov	r0, sl
100063aa:	4393      	bics	r3, r2
100063ac:	a90e      	add	r1, sp, #56	; 0x38
100063ae:	703b      	strb	r3, [r7, #0]
100063b0:	f000 fbf8 	bl	10006ba4 <tud_control_status>
100063b4:	e59d      	b.n	10005ef2 <tud_task+0x2a>
100063b6:	2002      	movs	r0, #2
100063b8:	7839      	ldrb	r1, [r7, #0]
100063ba:	ab0c      	add	r3, sp, #48	; 0x30
100063bc:	1c9a      	adds	r2, r3, #2
100063be:	068b      	lsls	r3, r1, #26
100063c0:	0889      	lsrs	r1, r1, #2
100063c2:	0fdb      	lsrs	r3, r3, #31
100063c4:	4001      	ands	r1, r0
100063c6:	430b      	orrs	r3, r1
100063c8:	e75a      	b.n	10006280 <tud_task+0x3b8>
100063ca:	79a3      	ldrb	r3, [r4, #6]
100063cc:	4698      	mov	r8, r3
100063ce:	787b      	ldrb	r3, [r7, #1]
100063d0:	4598      	cmp	r8, r3
100063d2:	d007      	beq.n	100063e4 <tud_task+0x51c>
100063d4:	787b      	ldrb	r3, [r7, #1]
100063d6:	2b00      	cmp	r3, #0
100063d8:	d000      	beq.n	100063dc <tud_task+0x514>
100063da:	e11a      	b.n	10006612 <tud_task+0x74a>
100063dc:	4643      	mov	r3, r8
100063de:	2b00      	cmp	r3, #0
100063e0:	d000      	beq.n	100063e4 <tud_task+0x51c>
100063e2:	e0ab      	b.n	1000653c <tud_task+0x674>
100063e4:	4643      	mov	r3, r8
100063e6:	4650      	mov	r0, sl
100063e8:	a90e      	add	r1, sp, #56	; 0x38
100063ea:	707b      	strb	r3, [r7, #1]
100063ec:	f000 fbda 	bl	10006ba4 <tud_control_status>
100063f0:	e57f      	b.n	10005ef2 <tud_task+0x2a>
100063f2:	787b      	ldrb	r3, [r7, #1]
100063f4:	aa0c      	add	r2, sp, #48	; 0x30
100063f6:	3202      	adds	r2, #2
100063f8:	7013      	strb	r3, [r2, #0]
100063fa:	4650      	mov	r0, sl
100063fc:	2301      	movs	r3, #1
100063fe:	a90e      	add	r1, sp, #56	; 0x38
10006400:	f000 fbe6 	bl	10006bd0 <tud_control_xfer>
10006404:	e575      	b.n	10005ef2 <tud_task+0x2a>
10006406:	88e3      	ldrh	r3, [r4, #6]
10006408:	0a1a      	lsrs	r2, r3, #8
1000640a:	b2d8      	uxtb	r0, r3
1000640c:	2a0f      	cmp	r2, #15
1000640e:	d900      	bls.n	10006412 <tud_task+0x54a>
10006410:	e5ed      	b.n	10005fee <tud_task+0x126>
10006412:	4948      	ldr	r1, [pc, #288]	; (10006534 <tud_task+0x66c>)
10006414:	0093      	lsls	r3, r2, #2
10006416:	58cb      	ldr	r3, [r1, r3]
10006418:	469f      	mov	pc, r3
1000641a:	a80e      	add	r0, sp, #56	; 0x38
1000641c:	f000 fc3e 	bl	10006c9c <usbd_control_set_request>
10006420:	4650      	mov	r0, sl
10006422:	79a1      	ldrb	r1, [r4, #6]
10006424:	f7ff f95e 	bl	100056e4 <dcd_set_address>
10006428:	2202      	movs	r2, #2
1000642a:	783b      	ldrb	r3, [r7, #0]
1000642c:	4313      	orrs	r3, r2
1000642e:	703b      	strb	r3, [r7, #0]
10006430:	e55f      	b.n	10005ef2 <tud_task+0x2a>
10006432:	88e3      	ldrh	r3, [r4, #6]
10006434:	2b01      	cmp	r3, #1
10006436:	d000      	beq.n	1000643a <tud_task+0x572>
10006438:	e5d9      	b.n	10005fee <tud_task+0x126>
1000643a:	2208      	movs	r2, #8
1000643c:	783b      	ldrb	r3, [r7, #0]
1000643e:	4650      	mov	r0, sl
10006440:	4313      	orrs	r3, r2
10006442:	a90e      	add	r1, sp, #56	; 0x38
10006444:	703b      	strb	r3, [r7, #0]
10006446:	f000 fbad 	bl	10006ba4 <tud_control_status>
1000644a:	e552      	b.n	10005ef2 <tud_task+0x2a>
1000644c:	2a02      	cmp	r2, #2
1000644e:	d100      	bne.n	10006452 <tud_task+0x58a>
10006450:	e19b      	b.n	1000678a <tud_task+0x8c2>
10006452:	4b39      	ldr	r3, [pc, #228]	; (10006538 <tud_task+0x670>)
10006454:	2b00      	cmp	r3, #0
10006456:	d100      	bne.n	1000645a <tud_task+0x592>
10006458:	e5c9      	b.n	10005fee <tud_task+0x126>
1000645a:	e000      	b.n	1000645e <tud_task+0x596>
1000645c:	bf00      	nop
1000645e:	0002      	movs	r2, r0
10006460:	2a00      	cmp	r2, #0
10006462:	d100      	bne.n	10006466 <tud_task+0x59e>
10006464:	e5c3      	b.n	10005fee <tud_task+0x126>
10006466:	78d3      	ldrb	r3, [r2, #3]
10006468:	7891      	ldrb	r1, [r2, #2]
1000646a:	021b      	lsls	r3, r3, #8
1000646c:	430b      	orrs	r3, r1
1000646e:	4650      	mov	r0, sl
10006470:	a90e      	add	r1, sp, #56	; 0x38
10006472:	f000 fbad 	bl	10006bd0 <tud_control_xfer>
10006476:	e6a6      	b.n	100061c6 <tud_task+0x2fe>
10006478:	4b2b      	ldr	r3, [pc, #172]	; (10006528 <tud_task+0x660>)
1000647a:	482d      	ldr	r0, [pc, #180]	; (10006530 <tud_task+0x668>)
1000647c:	4699      	mov	r9, r3
1000647e:	e779      	b.n	10006374 <tud_task+0x4ac>
10006480:	88e2      	ldrh	r2, [r4, #6]
10006482:	2a00      	cmp	r2, #0
10006484:	d108      	bne.n	10006498 <tud_task+0x5d0>
10006486:	4642      	mov	r2, r8
10006488:	18fb      	adds	r3, r7, r3
1000648a:	195d      	adds	r5, r3, r5
1000648c:	3530      	adds	r5, #48	; 0x30
1000648e:	78eb      	ldrb	r3, [r5, #3]
10006490:	2a01      	cmp	r2, #1
10006492:	d037      	beq.n	10006504 <tud_task+0x63c>
10006494:	079b      	lsls	r3, r3, #30
10006496:	d529      	bpl.n	100064ec <tud_task+0x624>
10006498:	464b      	mov	r3, r9
1000649a:	2b00      	cmp	r3, #0
1000649c:	d100      	bne.n	100064a0 <tud_task+0x5d8>
1000649e:	e528      	b.n	10005ef2 <tud_task+0x2a>
100064a0:	68d8      	ldr	r0, [r3, #12]
100064a2:	f000 fbf5 	bl	10006c90 <usbd_control_set_complete_callback>
100064a6:	464b      	mov	r3, r9
100064a8:	2100      	movs	r1, #0
100064aa:	68db      	ldr	r3, [r3, #12]
100064ac:	aa0e      	add	r2, sp, #56	; 0x38
100064ae:	4650      	mov	r0, sl
100064b0:	4798      	blx	r3
100064b2:	2000      	movs	r0, #0
100064b4:	f000 fbec 	bl	10006c90 <usbd_control_set_complete_callback>
100064b8:	2334      	movs	r3, #52	; 0x34
100064ba:	5cfb      	ldrb	r3, [r7, r3]
100064bc:	07db      	lsls	r3, r3, #31
100064be:	d500      	bpl.n	100064c2 <tud_task+0x5fa>
100064c0:	e517      	b.n	10005ef2 <tud_task+0x2a>
100064c2:	e71f      	b.n	10006304 <tud_task+0x43c>
100064c4:	4a19      	ldr	r2, [pc, #100]	; (1000652c <tud_task+0x664>)
100064c6:	0059      	lsls	r1, r3, #1
100064c8:	6815      	ldr	r5, [r2, #0]
100064ca:	18cb      	adds	r3, r1, r3
100064cc:	00db      	lsls	r3, r3, #3
100064ce:	18ed      	adds	r5, r5, r3
100064d0:	2d00      	cmp	r5, #0
100064d2:	d100      	bne.n	100064d6 <tud_task+0x60e>
100064d4:	e58b      	b.n	10005fee <tud_task+0x126>
100064d6:	68e8      	ldr	r0, [r5, #12]
100064d8:	e72e      	b.n	10006338 <tud_task+0x470>
100064da:	ab0c      	add	r3, sp, #48	; 0x30
100064dc:	1c9a      	adds	r2, r3, #2
100064de:	4650      	mov	r0, sl
100064e0:	2301      	movs	r3, #1
100064e2:	a90e      	add	r1, sp, #56	; 0x38
100064e4:	7015      	strb	r5, [r2, #0]
100064e6:	f000 fb73 	bl	10006bd0 <tud_control_xfer>
100064ea:	e502      	b.n	10005ef2 <tud_task+0x2a>
100064ec:	4650      	mov	r0, sl
100064ee:	f7ff fa4f 	bl	10005990 <dcd_edpt_stall>
100064f2:	2202      	movs	r2, #2
100064f4:	78eb      	ldrb	r3, [r5, #3]
100064f6:	4313      	orrs	r3, r2
100064f8:	2201      	movs	r2, #1
100064fa:	70eb      	strb	r3, [r5, #3]
100064fc:	78eb      	ldrb	r3, [r5, #3]
100064fe:	4313      	orrs	r3, r2
10006500:	70eb      	strb	r3, [r5, #3]
10006502:	e7c9      	b.n	10006498 <tud_task+0x5d0>
10006504:	079b      	lsls	r3, r3, #30
10006506:	d5c7      	bpl.n	10006498 <tud_task+0x5d0>
10006508:	4650      	mov	r0, sl
1000650a:	f7ff fa5b 	bl	100059c4 <dcd_edpt_clear_stall>
1000650e:	4642      	mov	r2, r8
10006510:	78eb      	ldrb	r3, [r5, #3]
10006512:	43b3      	bics	r3, r6
10006514:	70eb      	strb	r3, [r5, #3]
10006516:	78eb      	ldrb	r3, [r5, #3]
10006518:	4393      	bics	r3, r2
1000651a:	70eb      	strb	r3, [r5, #3]
1000651c:	e7bc      	b.n	10006498 <tud_task+0x5d0>
1000651e:	46c0      	nop			; (mov r8, r8)
10006520:	100051f5 	.word	0x100051f5
10006524:	20001ab4 	.word	0x20001ab4
10006528:	10008b5c 	.word	0x10008b5c
1000652c:	20001034 	.word	0x20001034
10006530:	100070b5 	.word	0x100070b5
10006534:	10008b1c 	.word	0x10008b1c
10006538:	00000000 	.word	0x00000000
1000653c:	1e58      	subs	r0, r3, #1
1000653e:	b2c0      	uxtb	r0, r0
10006540:	f7fe ffa2 	bl	10005488 <tud_descriptor_configuration_cb>
10006544:	2800      	cmp	r0, #0
10006546:	d100      	bne.n	1000654a <tud_task+0x682>
10006548:	e551      	b.n	10005fee <tud_task+0x126>
1000654a:	7843      	ldrb	r3, [r0, #1]
1000654c:	9308      	str	r3, [sp, #32]
1000654e:	2b02      	cmp	r3, #2
10006550:	d000      	beq.n	10006554 <tud_task+0x68c>
10006552:	e54c      	b.n	10005fee <tud_task+0x126>
10006554:	2101      	movs	r1, #1
10006556:	79c3      	ldrb	r3, [r0, #7]
10006558:	119a      	asrs	r2, r3, #6
1000655a:	115b      	asrs	r3, r3, #5
1000655c:	400a      	ands	r2, r1
1000655e:	400b      	ands	r3, r1
10006560:	0152      	lsls	r2, r2, #5
10006562:	011b      	lsls	r3, r3, #4
10006564:	4313      	orrs	r3, r2
10006566:	783a      	ldrb	r2, [r7, #0]
10006568:	312f      	adds	r1, #47	; 0x2f
1000656a:	438a      	bics	r2, r1
1000656c:	4313      	orrs	r3, r2
1000656e:	703b      	strb	r3, [r7, #0]
10006570:	2309      	movs	r3, #9
10006572:	4699      	mov	r9, r3
10006574:	78c3      	ldrb	r3, [r0, #3]
10006576:	7882      	ldrb	r2, [r0, #2]
10006578:	021b      	lsls	r3, r3, #8
1000657a:	4313      	orrs	r3, r2
1000657c:	18c3      	adds	r3, r0, r3
1000657e:	9305      	str	r3, [sp, #20]
10006580:	4b84      	ldr	r3, [pc, #528]	; (10006794 <tud_task+0x8cc>)
10006582:	4481      	add	r9, r0
10006584:	9304      	str	r3, [sp, #16]
10006586:	4b84      	ldr	r3, [pc, #528]	; (10006798 <tud_task+0x8d0>)
10006588:	930a      	str	r3, [sp, #40]	; 0x28
1000658a:	4b84      	ldr	r3, [pc, #528]	; (1000679c <tud_task+0x8d4>)
1000658c:	9306      	str	r3, [sp, #24]
1000658e:	4b84      	ldr	r3, [pc, #528]	; (100067a0 <tud_task+0x8d8>)
10006590:	9307      	str	r3, [sp, #28]
10006592:	4643      	mov	r3, r8
10006594:	930b      	str	r3, [sp, #44]	; 0x2c
10006596:	003b      	movs	r3, r7
10006598:	464f      	mov	r7, r9
1000659a:	4699      	mov	r9, r3
1000659c:	9b05      	ldr	r3, [sp, #20]
1000659e:	42bb      	cmp	r3, r7
100065a0:	d800      	bhi.n	100065a4 <tud_task+0x6dc>
100065a2:	e0e0      	b.n	10006766 <tud_task+0x89e>
100065a4:	2201      	movs	r2, #1
100065a6:	787b      	ldrb	r3, [r7, #1]
100065a8:	9203      	str	r2, [sp, #12]
100065aa:	2b0b      	cmp	r3, #11
100065ac:	d104      	bne.n	100065b8 <tud_task+0x6f0>
100065ae:	78fb      	ldrb	r3, [r7, #3]
100065b0:	9303      	str	r3, [sp, #12]
100065b2:	783b      	ldrb	r3, [r7, #0]
100065b4:	18ff      	adds	r7, r7, r3
100065b6:	787b      	ldrb	r3, [r7, #1]
100065b8:	2b04      	cmp	r3, #4
100065ba:	d000      	beq.n	100065be <tud_task+0x6f6>
100065bc:	e517      	b.n	10005fee <tud_task+0x126>
100065be:	9b05      	ldr	r3, [sp, #20]
100065c0:	2500      	movs	r5, #0
100065c2:	1bdb      	subs	r3, r3, r7
100065c4:	b29b      	uxth	r3, r3
100065c6:	001e      	movs	r6, r3
100065c8:	9b04      	ldr	r3, [sp, #16]
100065ca:	781a      	ldrb	r2, [r3, #0]
100065cc:	9b0a      	ldr	r3, [sp, #40]	; 0x28
100065ce:	2b00      	cmp	r3, #0
100065d0:	d100      	bne.n	100065d4 <tud_task+0x70c>
100065d2:	e08b      	b.n	100066ec <tud_task+0x824>
100065d4:	4b73      	ldr	r3, [pc, #460]	; (100067a4 <tud_task+0x8dc>)
100065d6:	46b8      	mov	r8, r7
100065d8:	9309      	str	r3, [sp, #36]	; 0x24
100065da:	e00e      	b.n	100065fa <tud_task+0x732>
100065dc:	0032      	movs	r2, r6
100065de:	4641      	mov	r1, r8
100065e0:	4650      	mov	r0, sl
100065e2:	4798      	blx	r3
100065e4:	2808      	cmp	r0, #8
100065e6:	d901      	bls.n	100065ec <tud_task+0x724>
100065e8:	4286      	cmp	r6, r0
100065ea:	d258      	bcs.n	1000669e <tud_task+0x7d6>
100065ec:	9b04      	ldr	r3, [sp, #16]
100065ee:	3501      	adds	r5, #1
100065f0:	781a      	ldrb	r2, [r3, #0]
100065f2:	b2ed      	uxtb	r5, r5
100065f4:	42aa      	cmp	r2, r5
100065f6:	d200      	bcs.n	100065fa <tud_task+0x732>
100065f8:	e4f9      	b.n	10005fee <tud_task+0x126>
100065fa:	9b06      	ldr	r3, [sp, #24]
100065fc:	9f07      	ldr	r7, [sp, #28]
100065fe:	4295      	cmp	r5, r2
10006600:	d2ec      	bcs.n	100065dc <tud_task+0x714>
10006602:	9a09      	ldr	r2, [sp, #36]	; 0x24
10006604:	006b      	lsls	r3, r5, #1
10006606:	6817      	ldr	r7, [r2, #0]
10006608:	195b      	adds	r3, r3, r5
1000660a:	00db      	lsls	r3, r3, #3
1000660c:	18ff      	adds	r7, r7, r3
1000660e:	68bb      	ldr	r3, [r7, #8]
10006610:	e7e4      	b.n	100065dc <tud_task+0x714>
10006612:	4650      	mov	r0, sl
10006614:	f7ff f976 	bl	10005904 <dcd_edpt_close_all>
10006618:	2200      	movs	r2, #0
1000661a:	78bb      	ldrb	r3, [r7, #2]
1000661c:	4d5d      	ldr	r5, [pc, #372]	; (10006794 <tud_task+0x8cc>)
1000661e:	4e5e      	ldr	r6, [pc, #376]	; (10006798 <tud_task+0x8d0>)
10006620:	9303      	str	r3, [sp, #12]
10006622:	4691      	mov	r9, r2
10006624:	782b      	ldrb	r3, [r5, #0]
10006626:	2e00      	cmp	r6, #0
10006628:	d030      	beq.n	1000668c <tud_task+0x7c4>
1000662a:	4e5e      	ldr	r6, [pc, #376]	; (100067a4 <tud_task+0x8dc>)
1000662c:	0032      	movs	r2, r6
1000662e:	002e      	movs	r6, r5
10006630:	464d      	mov	r5, r9
10006632:	4691      	mov	r9, r2
10006634:	42ab      	cmp	r3, r5
10006636:	d81a      	bhi.n	1000666e <tud_task+0x7a6>
10006638:	4650      	mov	r0, sl
1000663a:	f000 fcb3 	bl	10006fa4 <cdcd_reset>
1000663e:	3501      	adds	r5, #1
10006640:	7833      	ldrb	r3, [r6, #0]
10006642:	b2ed      	uxtb	r5, r5
10006644:	42ab      	cmp	r3, r5
10006646:	d2f5      	bcs.n	10006634 <tud_task+0x76c>
10006648:	2253      	movs	r2, #83	; 0x53
1000664a:	2100      	movs	r1, #0
1000664c:	0038      	movs	r0, r7
1000664e:	f7fe fb9f 	bl	10004d90 <__wrap_memset>
10006652:	2210      	movs	r2, #16
10006654:	21ff      	movs	r1, #255	; 0xff
10006656:	1cf8      	adds	r0, r7, #3
10006658:	f7fe fb9a 	bl	10004d90 <__wrap_memset>
1000665c:	0038      	movs	r0, r7
1000665e:	2220      	movs	r2, #32
10006660:	21ff      	movs	r1, #255	; 0xff
10006662:	3013      	adds	r0, #19
10006664:	f7fe fb94 	bl	10004d90 <__wrap_memset>
10006668:	9b03      	ldr	r3, [sp, #12]
1000666a:	70bb      	strb	r3, [r7, #2]
1000666c:	e6b6      	b.n	100063dc <tud_task+0x514>
1000666e:	464b      	mov	r3, r9
10006670:	681a      	ldr	r2, [r3, #0]
10006672:	006b      	lsls	r3, r5, #1
10006674:	195b      	adds	r3, r3, r5
10006676:	00db      	lsls	r3, r3, #3
10006678:	18d3      	adds	r3, r2, r3
1000667a:	685b      	ldr	r3, [r3, #4]
1000667c:	4650      	mov	r0, sl
1000667e:	4798      	blx	r3
10006680:	3501      	adds	r5, #1
10006682:	7833      	ldrb	r3, [r6, #0]
10006684:	b2ed      	uxtb	r5, r5
10006686:	429d      	cmp	r5, r3
10006688:	d9d4      	bls.n	10006634 <tud_task+0x76c>
1000668a:	e7dd      	b.n	10006648 <tud_task+0x780>
1000668c:	4650      	mov	r0, sl
1000668e:	f000 fc89 	bl	10006fa4 <cdcd_reset>
10006692:	782b      	ldrb	r3, [r5, #0]
10006694:	2b00      	cmp	r3, #0
10006696:	d0d7      	beq.n	10006648 <tud_task+0x780>
10006698:	0033      	movs	r3, r6
1000669a:	685b      	ldr	r3, [r3, #4]
1000669c:	deff      	udf	#255	; 0xff
1000669e:	003b      	movs	r3, r7
100066a0:	0006      	movs	r6, r0
100066a2:	4647      	mov	r7, r8
100066a4:	4698      	mov	r8, r3
100066a6:	9b03      	ldr	r3, [sp, #12]
100066a8:	2b01      	cmp	r3, #1
100066aa:	d066      	beq.n	1000677a <tud_task+0x8b2>
100066ac:	9b03      	ldr	r3, [sp, #12]
100066ae:	2b00      	cmp	r3, #0
100066b0:	d00f      	beq.n	100066d2 <tud_task+0x80a>
100066b2:	2300      	movs	r3, #0
100066b4:	78b9      	ldrb	r1, [r7, #2]
100066b6:	e005      	b.n	100066c4 <tud_task+0x7fc>
100066b8:	70d5      	strb	r5, [r2, #3]
100066ba:	3301      	adds	r3, #1
100066bc:	9a03      	ldr	r2, [sp, #12]
100066be:	b2db      	uxtb	r3, r3
100066c0:	4293      	cmp	r3, r2
100066c2:	d206      	bcs.n	100066d2 <tud_task+0x80a>
100066c4:	18ca      	adds	r2, r1, r3
100066c6:	b2d2      	uxtb	r2, r2
100066c8:	444a      	add	r2, r9
100066ca:	78d0      	ldrb	r0, [r2, #3]
100066cc:	28ff      	cmp	r0, #255	; 0xff
100066ce:	d0f3      	beq.n	100066b8 <tud_task+0x7f0>
100066d0:	e48d      	b.n	10005fee <tud_task+0x126>
100066d2:	002b      	movs	r3, r5
100066d4:	0039      	movs	r1, r7
100066d6:	0032      	movs	r2, r6
100066d8:	4833      	ldr	r0, [pc, #204]	; (100067a8 <tud_task+0x8e0>)
100066da:	f000 fe45 	bl	10007368 <tu_edpt_bind_driver>
100066de:	9b04      	ldr	r3, [sp, #16]
100066e0:	19bf      	adds	r7, r7, r6
100066e2:	781b      	ldrb	r3, [r3, #0]
100066e4:	42ab      	cmp	r3, r5
100066e6:	d300      	bcc.n	100066ea <tud_task+0x822>
100066e8:	e758      	b.n	1000659c <tud_task+0x6d4>
100066ea:	e480      	b.n	10005fee <tud_task+0x126>
100066ec:	0032      	movs	r2, r6
100066ee:	0039      	movs	r1, r7
100066f0:	4650      	mov	r0, sl
100066f2:	f000 fc6d 	bl	10006fd0 <cdcd_open>
100066f6:	46b0      	mov	r8, r6
100066f8:	0006      	movs	r6, r0
100066fa:	2808      	cmp	r0, #8
100066fc:	d902      	bls.n	10006704 <tud_task+0x83c>
100066fe:	4643      	mov	r3, r8
10006700:	4283      	cmp	r3, r0
10006702:	d22d      	bcs.n	10006760 <tud_task+0x898>
10006704:	9b04      	ldr	r3, [sp, #16]
10006706:	781b      	ldrb	r3, [r3, #0]
10006708:	2b00      	cmp	r3, #0
1000670a:	d100      	bne.n	1000670e <tud_task+0x846>
1000670c:	e46f      	b.n	10005fee <tud_task+0x126>
1000670e:	2300      	movs	r3, #0
10006710:	689b      	ldr	r3, [r3, #8]
10006712:	deff      	udf	#255	; 0xff
10006714:	4b25      	ldr	r3, [pc, #148]	; (100067ac <tud_task+0x8e4>)
10006716:	2b00      	cmp	r3, #0
10006718:	d100      	bne.n	1000671c <tud_task+0x854>
1000671a:	e468      	b.n	10005fee <tud_task+0x126>
1000671c:	e000      	b.n	10006720 <tud_task+0x858>
1000671e:	bf00      	nop
10006720:	0002      	movs	r2, r0
10006722:	e6a0      	b.n	10006466 <tud_task+0x59e>
10006724:	4b22      	ldr	r3, [pc, #136]	; (100067b0 <tud_task+0x8e8>)
10006726:	2b00      	cmp	r3, #0
10006728:	d100      	bne.n	1000672c <tud_task+0x864>
1000672a:	e460      	b.n	10005fee <tud_task+0x126>
1000672c:	e000      	b.n	10006730 <tud_task+0x868>
1000672e:	bf00      	nop
10006730:	1e02      	subs	r2, r0, #0
10006732:	d100      	bne.n	10006736 <tud_task+0x86e>
10006734:	e45b      	b.n	10005fee <tud_task+0x126>
10006736:	4650      	mov	r0, sl
10006738:	7813      	ldrb	r3, [r2, #0]
1000673a:	a90e      	add	r1, sp, #56	; 0x38
1000673c:	f000 fa48 	bl	10006bd0 <tud_control_xfer>
10006740:	e541      	b.n	100061c6 <tud_task+0x2fe>
10006742:	8921      	ldrh	r1, [r4, #8]
10006744:	f7fe fea4 	bl	10005490 <tud_descriptor_string_cb>
10006748:	1e02      	subs	r2, r0, #0
1000674a:	d1f4      	bne.n	10006736 <tud_task+0x86e>
1000674c:	e44f      	b.n	10005fee <tud_task+0x126>
1000674e:	f7fe fe97 	bl	10005480 <tud_descriptor_device_cb>
10006752:	2312      	movs	r3, #18
10006754:	0002      	movs	r2, r0
10006756:	a90e      	add	r1, sp, #56	; 0x38
10006758:	4650      	mov	r0, sl
1000675a:	f000 fa39 	bl	10006bd0 <tud_control_xfer>
1000675e:	e532      	b.n	100061c6 <tud_task+0x2fe>
10006760:	4b0f      	ldr	r3, [pc, #60]	; (100067a0 <tud_task+0x8d8>)
10006762:	4698      	mov	r8, r3
10006764:	e79f      	b.n	100066a6 <tud_task+0x7de>
10006766:	9b0b      	ldr	r3, [sp, #44]	; 0x2c
10006768:	464f      	mov	r7, r9
1000676a:	4698      	mov	r8, r3
1000676c:	4b11      	ldr	r3, [pc, #68]	; (100067b4 <tud_task+0x8ec>)
1000676e:	2b00      	cmp	r3, #0
10006770:	d100      	bne.n	10006774 <tud_task+0x8ac>
10006772:	e637      	b.n	100063e4 <tud_task+0x51c>
10006774:	e000      	b.n	10006778 <tud_task+0x8b0>
10006776:	bf00      	nop
10006778:	e634      	b.n	100063e4 <tud_task+0x51c>
1000677a:	4642      	mov	r2, r8
1000677c:	4b07      	ldr	r3, [pc, #28]	; (1000679c <tud_task+0x8d4>)
1000677e:	6892      	ldr	r2, [r2, #8]
10006780:	429a      	cmp	r2, r3
10006782:	d196      	bne.n	100066b2 <tud_task+0x7ea>
10006784:	9b08      	ldr	r3, [sp, #32]
10006786:	9303      	str	r3, [sp, #12]
10006788:	e793      	b.n	100066b2 <tud_task+0x7ea>
1000678a:	f7fe fe7d 	bl	10005488 <tud_descriptor_configuration_cb>
1000678e:	0002      	movs	r2, r0
10006790:	e666      	b.n	10006460 <tud_task+0x598>
10006792:	46c0      	nop			; (mov r8, r8)
10006794:	20001ab4 	.word	0x20001ab4
10006798:	100051f5 	.word	0x100051f5
1000679c:	10006fd1 	.word	0x10006fd1
100067a0:	10008b5c 	.word	0x10008b5c
100067a4:	20001034 	.word	0x20001034
100067a8:	2000137f 	.word	0x2000137f
	...

100067b8 <dcd_event_bus_signal>:
100067b8:	b530      	push	{r4, r5, lr}
100067ba:	b087      	sub	sp, #28
100067bc:	466b      	mov	r3, sp
100067be:	0005      	movs	r5, r0
100067c0:	000c      	movs	r4, r1
100067c2:	1c98      	adds	r0, r3, #2
100067c4:	220a      	movs	r2, #10
100067c6:	2100      	movs	r1, #0
100067c8:	f7fe fae2 	bl	10004d90 <__wrap_memset>
100067cc:	466b      	mov	r3, sp
100067ce:	701d      	strb	r5, [r3, #0]
100067d0:	705c      	strb	r4, [r3, #1]
100067d2:	2c04      	cmp	r4, #4
100067d4:	d04f      	beq.n	10006876 <dcd_event_bus_signal+0xbe>
100067d6:	d809      	bhi.n	100067ec <dcd_event_bus_signal+0x34>
100067d8:	2c02      	cmp	r4, #2
100067da:	d034      	beq.n	10006846 <dcd_event_bus_signal+0x8e>
100067dc:	2c03      	cmp	r4, #3
100067de:	d119      	bne.n	10006814 <dcd_event_bus_signal+0x5c>
100067e0:	4a3c      	ldr	r2, [pc, #240]	; (100068d4 <dcd_event_bus_signal+0x11c>)
100067e2:	7813      	ldrb	r3, [r2, #0]
100067e4:	075b      	lsls	r3, r3, #29
100067e6:	d458      	bmi.n	1000689a <dcd_event_bus_signal+0xe2>
100067e8:	b007      	add	sp, #28
100067ea:	bd30      	pop	{r4, r5, pc}
100067ec:	2c05      	cmp	r4, #5
100067ee:	d111      	bne.n	10006814 <dcd_event_bus_signal+0x5c>
100067f0:	4a38      	ldr	r2, [pc, #224]	; (100068d4 <dcd_event_bus_signal+0x11c>)
100067f2:	7813      	ldrb	r3, [r2, #0]
100067f4:	07db      	lsls	r3, r3, #31
100067f6:	d5f7      	bpl.n	100067e8 <dcd_event_bus_signal+0x30>
100067f8:	2104      	movs	r1, #4
100067fa:	7813      	ldrb	r3, [r2, #0]
100067fc:	438b      	bics	r3, r1
100067fe:	7013      	strb	r3, [r2, #0]
10006800:	4b35      	ldr	r3, [pc, #212]	; (100068d8 <dcd_event_bus_signal+0x120>)
10006802:	681c      	ldr	r4, [r3, #0]
10006804:	69e2      	ldr	r2, [r4, #28]
10006806:	f3ef 8110 	mrs	r1, PRIMASK
1000680a:	b672      	cpsid	i
1000680c:	6813      	ldr	r3, [r2, #0]
1000680e:	2b00      	cmp	r3, #0
10006810:	d109      	bne.n	10006826 <dcd_event_bus_signal+0x6e>
10006812:	e7fb      	b.n	1000680c <dcd_event_bus_signal+0x54>
10006814:	4b30      	ldr	r3, [pc, #192]	; (100068d8 <dcd_event_bus_signal+0x120>)
10006816:	681c      	ldr	r4, [r3, #0]
10006818:	69e2      	ldr	r2, [r4, #28]
1000681a:	f3ef 8110 	mrs	r1, PRIMASK
1000681e:	b672      	cpsid	i
10006820:	6813      	ldr	r3, [r2, #0]
10006822:	2b00      	cmp	r3, #0
10006824:	d0fc      	beq.n	10006820 <dcd_event_bus_signal+0x68>
10006826:	f3bf 8f5f 	dmb	sy
1000682a:	6221      	str	r1, [r4, #32]
1000682c:	4669      	mov	r1, sp
1000682e:	0020      	movs	r0, r4
10006830:	f000 fee2 	bl	100075f8 <tu_fifo_write>
10006834:	69e2      	ldr	r2, [r4, #28]
10006836:	6a23      	ldr	r3, [r4, #32]
10006838:	f3bf 8f5f 	dmb	sy
1000683c:	2100      	movs	r1, #0
1000683e:	6011      	str	r1, [r2, #0]
10006840:	f383 8810 	msr	PRIMASK, r3
10006844:	e7d0      	b.n	100067e8 <dcd_event_bus_signal+0x30>
10006846:	2101      	movs	r1, #1
10006848:	4b22      	ldr	r3, [pc, #136]	; (100068d4 <dcd_event_bus_signal+0x11c>)
1000684a:	781a      	ldrb	r2, [r3, #0]
1000684c:	438a      	bics	r2, r1
1000684e:	701a      	strb	r2, [r3, #0]
10006850:	781a      	ldrb	r2, [r3, #0]
10006852:	3103      	adds	r1, #3
10006854:	43a2      	bics	r2, r4
10006856:	701a      	strb	r2, [r3, #0]
10006858:	2200      	movs	r2, #0
1000685a:	705a      	strb	r2, [r3, #1]
1000685c:	781a      	ldrb	r2, [r3, #0]
1000685e:	438a      	bics	r2, r1
10006860:	701a      	strb	r2, [r3, #0]
10006862:	4b1d      	ldr	r3, [pc, #116]	; (100068d8 <dcd_event_bus_signal+0x120>)
10006864:	681c      	ldr	r4, [r3, #0]
10006866:	69e2      	ldr	r2, [r4, #28]
10006868:	f3ef 8110 	mrs	r1, PRIMASK
1000686c:	b672      	cpsid	i
1000686e:	6813      	ldr	r3, [r2, #0]
10006870:	2b00      	cmp	r3, #0
10006872:	d1d8      	bne.n	10006826 <dcd_event_bus_signal+0x6e>
10006874:	e7fb      	b.n	1000686e <dcd_event_bus_signal+0xb6>
10006876:	4a17      	ldr	r2, [pc, #92]	; (100068d4 <dcd_event_bus_signal+0x11c>)
10006878:	7813      	ldrb	r3, [r2, #0]
1000687a:	07db      	lsls	r3, r3, #31
1000687c:	d5b4      	bpl.n	100067e8 <dcd_event_bus_signal+0x30>
1000687e:	2104      	movs	r1, #4
10006880:	7813      	ldrb	r3, [r2, #0]
10006882:	430b      	orrs	r3, r1
10006884:	7013      	strb	r3, [r2, #0]
10006886:	4b14      	ldr	r3, [pc, #80]	; (100068d8 <dcd_event_bus_signal+0x120>)
10006888:	681c      	ldr	r4, [r3, #0]
1000688a:	69e2      	ldr	r2, [r4, #28]
1000688c:	f3ef 8110 	mrs	r1, PRIMASK
10006890:	b672      	cpsid	i
10006892:	6813      	ldr	r3, [r2, #0]
10006894:	2b00      	cmp	r3, #0
10006896:	d1c6      	bne.n	10006826 <dcd_event_bus_signal+0x6e>
10006898:	e7fb      	b.n	10006892 <dcd_event_bus_signal+0xda>
1000689a:	2104      	movs	r1, #4
1000689c:	200e      	movs	r0, #14
1000689e:	7813      	ldrb	r3, [r2, #0]
100068a0:	4468      	add	r0, sp
100068a2:	438b      	bics	r3, r1
100068a4:	7013      	strb	r3, [r2, #0]
100068a6:	2100      	movs	r1, #0
100068a8:	220a      	movs	r2, #10
100068aa:	f7fe fa71 	bl	10004d90 <__wrap_memset>
100068ae:	466b      	mov	r3, sp
100068b0:	466a      	mov	r2, sp
100068b2:	731d      	strb	r5, [r3, #12]
100068b4:	2305      	movs	r3, #5
100068b6:	7353      	strb	r3, [r2, #13]
100068b8:	4b07      	ldr	r3, [pc, #28]	; (100068d8 <dcd_event_bus_signal+0x120>)
100068ba:	681c      	ldr	r4, [r3, #0]
100068bc:	69e2      	ldr	r2, [r4, #28]
100068be:	f3ef 8110 	mrs	r1, PRIMASK
100068c2:	b672      	cpsid	i
100068c4:	6813      	ldr	r3, [r2, #0]
100068c6:	2b00      	cmp	r3, #0
100068c8:	d0fc      	beq.n	100068c4 <dcd_event_bus_signal+0x10c>
100068ca:	f3bf 8f5f 	dmb	sy
100068ce:	6221      	str	r1, [r4, #32]
100068d0:	a903      	add	r1, sp, #12
100068d2:	e7ac      	b.n	1000682e <dcd_event_bus_signal+0x76>
100068d4:	2000136c 	.word	0x2000136c
100068d8:	200013c4 	.word	0x200013c4

100068dc <dcd_event_bus_reset>:
100068dc:	b570      	push	{r4, r5, r6, lr}
100068de:	b084      	sub	sp, #16
100068e0:	466b      	mov	r3, sp
100068e2:	0006      	movs	r6, r0
100068e4:	000c      	movs	r4, r1
100068e6:	220a      	movs	r2, #10
100068e8:	2100      	movs	r1, #0
100068ea:	1d98      	adds	r0, r3, #6
100068ec:	f7fe fa50 	bl	10004d90 <__wrap_memset>
100068f0:	2301      	movs	r3, #1
100068f2:	ad01      	add	r5, sp, #4
100068f4:	706b      	strb	r3, [r5, #1]
100068f6:	4b0e      	ldr	r3, [pc, #56]	; (10006930 <dcd_event_bus_reset+0x54>)
100068f8:	712c      	strb	r4, [r5, #4]
100068fa:	681c      	ldr	r4, [r3, #0]
100068fc:	702e      	strb	r6, [r5, #0]
100068fe:	69e2      	ldr	r2, [r4, #28]
10006900:	f3ef 8310 	mrs	r3, PRIMASK
10006904:	b672      	cpsid	i
10006906:	6811      	ldr	r1, [r2, #0]
10006908:	2900      	cmp	r1, #0
1000690a:	d0fc      	beq.n	10006906 <dcd_event_bus_reset+0x2a>
1000690c:	f3bf 8f5f 	dmb	sy
10006910:	6223      	str	r3, [r4, #32]
10006912:	0029      	movs	r1, r5
10006914:	0020      	movs	r0, r4
10006916:	f000 fe6f 	bl	100075f8 <tu_fifo_write>
1000691a:	69e2      	ldr	r2, [r4, #28]
1000691c:	6a23      	ldr	r3, [r4, #32]
1000691e:	f3bf 8f5f 	dmb	sy
10006922:	2100      	movs	r1, #0
10006924:	6011      	str	r1, [r2, #0]
10006926:	f383 8810 	msr	PRIMASK, r3
1000692a:	b004      	add	sp, #16
1000692c:	bd70      	pop	{r4, r5, r6, pc}
1000692e:	46c0      	nop			; (mov r8, r8)
10006930:	200013c4 	.word	0x200013c4

10006934 <dcd_event_setup_received>:
10006934:	2300      	movs	r3, #0
10006936:	b530      	push	{r4, r5, lr}
10006938:	b085      	sub	sp, #20
1000693a:	ad01      	add	r5, sp, #4
1000693c:	806b      	strh	r3, [r5, #2]
1000693e:	7028      	strb	r0, [r5, #0]
10006940:	3306      	adds	r3, #6
10006942:	2208      	movs	r2, #8
10006944:	a802      	add	r0, sp, #8
10006946:	706b      	strb	r3, [r5, #1]
10006948:	f7fe fa28 	bl	10004d9c <__wrap___aeabi_memcpy>
1000694c:	4b0c      	ldr	r3, [pc, #48]	; (10006980 <dcd_event_setup_received+0x4c>)
1000694e:	681c      	ldr	r4, [r3, #0]
10006950:	69e2      	ldr	r2, [r4, #28]
10006952:	f3ef 8310 	mrs	r3, PRIMASK
10006956:	b672      	cpsid	i
10006958:	6811      	ldr	r1, [r2, #0]
1000695a:	2900      	cmp	r1, #0
1000695c:	d0fc      	beq.n	10006958 <dcd_event_setup_received+0x24>
1000695e:	f3bf 8f5f 	dmb	sy
10006962:	6223      	str	r3, [r4, #32]
10006964:	0029      	movs	r1, r5
10006966:	0020      	movs	r0, r4
10006968:	f000 fe46 	bl	100075f8 <tu_fifo_write>
1000696c:	69e2      	ldr	r2, [r4, #28]
1000696e:	6a23      	ldr	r3, [r4, #32]
10006970:	f3bf 8f5f 	dmb	sy
10006974:	2100      	movs	r1, #0
10006976:	6011      	str	r1, [r2, #0]
10006978:	f383 8810 	msr	PRIMASK, r3
1000697c:	b005      	add	sp, #20
1000697e:	bd30      	pop	{r4, r5, pc}
10006980:	200013c4 	.word	0x200013c4

10006984 <dcd_event_xfer_complete>:
10006984:	b5f0      	push	{r4, r5, r6, r7, lr}
10006986:	46c6      	mov	lr, r8
10006988:	b500      	push	{lr}
1000698a:	b084      	sub	sp, #16
1000698c:	001d      	movs	r5, r3
1000698e:	466b      	mov	r3, sp
10006990:	4680      	mov	r8, r0
10006992:	000f      	movs	r7, r1
10006994:	0016      	movs	r6, r2
10006996:	2100      	movs	r1, #0
10006998:	2206      	movs	r2, #6
1000699a:	1d98      	adds	r0, r3, #6
1000699c:	f7fe f9f8 	bl	10004d90 <__wrap_memset>
100069a0:	4643      	mov	r3, r8
100069a2:	ac01      	add	r4, sp, #4
100069a4:	7023      	strb	r3, [r4, #0]
100069a6:	2307      	movs	r3, #7
100069a8:	7063      	strb	r3, [r4, #1]
100069aa:	4b0f      	ldr	r3, [pc, #60]	; (100069e8 <dcd_event_xfer_complete+0x64>)
100069ac:	7165      	strb	r5, [r4, #5]
100069ae:	681d      	ldr	r5, [r3, #0]
100069b0:	7127      	strb	r7, [r4, #4]
100069b2:	60a6      	str	r6, [r4, #8]
100069b4:	69ea      	ldr	r2, [r5, #28]
100069b6:	f3ef 8310 	mrs	r3, PRIMASK
100069ba:	b672      	cpsid	i
100069bc:	6811      	ldr	r1, [r2, #0]
100069be:	2900      	cmp	r1, #0
100069c0:	d0fc      	beq.n	100069bc <dcd_event_xfer_complete+0x38>
100069c2:	f3bf 8f5f 	dmb	sy
100069c6:	622b      	str	r3, [r5, #32]
100069c8:	0021      	movs	r1, r4
100069ca:	0028      	movs	r0, r5
100069cc:	f000 fe14 	bl	100075f8 <tu_fifo_write>
100069d0:	69ea      	ldr	r2, [r5, #28]
100069d2:	6a2b      	ldr	r3, [r5, #32]
100069d4:	f3bf 8f5f 	dmb	sy
100069d8:	2100      	movs	r1, #0
100069da:	6011      	str	r1, [r2, #0]
100069dc:	f383 8810 	msr	PRIMASK, r3
100069e0:	b004      	add	sp, #16
100069e2:	bc80      	pop	{r7}
100069e4:	46b8      	mov	r8, r7
100069e6:	bdf0      	pop	{r4, r5, r6, r7, pc}
100069e8:	200013c4 	.word	0x200013c4

100069ec <usbd_open_edpt_pair>:
100069ec:	b5f8      	push	{r3, r4, r5, r6, r7, lr}
100069ee:	464e      	mov	r6, r9
100069f0:	46de      	mov	lr, fp
100069f2:	4657      	mov	r7, sl
100069f4:	4645      	mov	r5, r8
100069f6:	b5e0      	push	{r5, r6, r7, lr}
100069f8:	001f      	movs	r7, r3
100069fa:	9b0a      	ldr	r3, [sp, #40]	; 0x28
100069fc:	4683      	mov	fp, r0
100069fe:	000c      	movs	r4, r1
10006a00:	1e16      	subs	r6, r2, #0
10006a02:	4699      	mov	r9, r3
10006a04:	d037      	beq.n	10006a76 <usbd_open_edpt_pair+0x8a>
10006a06:	2370      	movs	r3, #112	; 0x70
10006a08:	4698      	mov	r8, r3
10006a0a:	4b1c      	ldr	r3, [pc, #112]	; (10006a7c <usbd_open_edpt_pair+0x90>)
10006a0c:	2500      	movs	r5, #0
10006a0e:	469a      	mov	sl, r3
10006a10:	e017      	b.n	10006a42 <usbd_open_edpt_pair+0x56>
10006a12:	4653      	mov	r3, sl
10006a14:	0020      	movs	r0, r4
10006a16:	7899      	ldrb	r1, [r3, #2]
10006a18:	f000 fc66 	bl	100072e8 <tu_edpt_validate>
10006a1c:	2800      	cmp	r0, #0
10006a1e:	d01c      	beq.n	10006a5a <usbd_open_edpt_pair+0x6e>
10006a20:	0021      	movs	r1, r4
10006a22:	4658      	mov	r0, fp
10006a24:	f7fe fef6 	bl	10005814 <dcd_edpt_open>
10006a28:	2800      	cmp	r0, #0
10006a2a:	d016      	beq.n	10006a5a <usbd_open_edpt_pair+0x6e>
10006a2c:	78a3      	ldrb	r3, [r4, #2]
10006a2e:	09da      	lsrs	r2, r3, #7
10006a30:	2a01      	cmp	r2, #1
10006a32:	d019      	beq.n	10006a68 <usbd_open_edpt_pair+0x7c>
10006a34:	464a      	mov	r2, r9
10006a36:	7013      	strb	r3, [r2, #0]
10006a38:	7823      	ldrb	r3, [r4, #0]
10006a3a:	3501      	adds	r5, #1
10006a3c:	18e4      	adds	r4, r4, r3
10006a3e:	42b5      	cmp	r5, r6
10006a40:	da19      	bge.n	10006a76 <usbd_open_edpt_pair+0x8a>
10006a42:	7863      	ldrb	r3, [r4, #1]
10006a44:	2b05      	cmp	r3, #5
10006a46:	d108      	bne.n	10006a5a <usbd_open_edpt_pair+0x6e>
10006a48:	78e3      	ldrb	r3, [r4, #3]
10006a4a:	079b      	lsls	r3, r3, #30
10006a4c:	0f9b      	lsrs	r3, r3, #30
10006a4e:	42bb      	cmp	r3, r7
10006a50:	d103      	bne.n	10006a5a <usbd_open_edpt_pair+0x6e>
10006a52:	4642      	mov	r2, r8
10006a54:	78a3      	ldrb	r3, [r4, #2]
10006a56:	421a      	tst	r2, r3
10006a58:	d0db      	beq.n	10006a12 <usbd_open_edpt_pair+0x26>
10006a5a:	2000      	movs	r0, #0
10006a5c:	bcf0      	pop	{r4, r5, r6, r7}
10006a5e:	46bb      	mov	fp, r7
10006a60:	46b2      	mov	sl, r6
10006a62:	46a9      	mov	r9, r5
10006a64:	46a0      	mov	r8, r4
10006a66:	bdf8      	pop	{r3, r4, r5, r6, r7, pc}
10006a68:	9a0b      	ldr	r2, [sp, #44]	; 0x2c
10006a6a:	3501      	adds	r5, #1
10006a6c:	7013      	strb	r3, [r2, #0]
10006a6e:	7823      	ldrb	r3, [r4, #0]
10006a70:	18e4      	adds	r4, r4, r3
10006a72:	42b5      	cmp	r5, r6
10006a74:	dbe5      	blt.n	10006a42 <usbd_open_edpt_pair+0x56>
10006a76:	2001      	movs	r0, #1
10006a78:	e7f0      	b.n	10006a5c <usbd_open_edpt_pair+0x70>
10006a7a:	46c0      	nop			; (mov r8, r8)
10006a7c:	2000136c 	.word	0x2000136c

10006a80 <usbd_edpt_open>:
10006a80:	2270      	movs	r2, #112	; 0x70
10006a82:	b570      	push	{r4, r5, r6, lr}
10006a84:	788b      	ldrb	r3, [r1, #2]
10006a86:	0005      	movs	r5, r0
10006a88:	000c      	movs	r4, r1
10006a8a:	421a      	tst	r2, r3
10006a8c:	d001      	beq.n	10006a92 <usbd_edpt_open+0x12>
10006a8e:	2000      	movs	r0, #0
10006a90:	bd70      	pop	{r4, r5, r6, pc}
10006a92:	4b06      	ldr	r3, [pc, #24]	; (10006aac <usbd_edpt_open+0x2c>)
10006a94:	0020      	movs	r0, r4
10006a96:	7899      	ldrb	r1, [r3, #2]
10006a98:	f000 fc26 	bl	100072e8 <tu_edpt_validate>
10006a9c:	2800      	cmp	r0, #0
10006a9e:	d0f6      	beq.n	10006a8e <usbd_edpt_open+0xe>
10006aa0:	0021      	movs	r1, r4
10006aa2:	0028      	movs	r0, r5
10006aa4:	f7fe feb6 	bl	10005814 <dcd_edpt_open>
10006aa8:	e7f2      	b.n	10006a90 <usbd_edpt_open+0x10>
10006aaa:	46c0      	nop			; (mov r8, r8)
10006aac:	2000136c 	.word	0x2000136c

10006ab0 <usbd_edpt_claim>:
10006ab0:	227f      	movs	r2, #127	; 0x7f
10006ab2:	b570      	push	{r4, r5, r6, lr}
10006ab4:	4b15      	ldr	r3, [pc, #84]	; (10006b0c <usbd_edpt_claim+0x5c>)
10006ab6:	400a      	ands	r2, r1
10006ab8:	0052      	lsls	r2, r2, #1
10006aba:	189c      	adds	r4, r3, r2
10006abc:	09c9      	lsrs	r1, r1, #7
10006abe:	1864      	adds	r4, r4, r1
10006ac0:	3430      	adds	r4, #48	; 0x30
10006ac2:	78e3      	ldrb	r3, [r4, #3]
10006ac4:	07db      	lsls	r3, r3, #31
10006ac6:	0fdd      	lsrs	r5, r3, #31
10006ac8:	2b00      	cmp	r3, #0
10006aca:	d118      	bne.n	10006afe <usbd_edpt_claim+0x4e>
10006acc:	78e3      	ldrb	r3, [r4, #3]
10006ace:	075b      	lsls	r3, r3, #29
10006ad0:	d501      	bpl.n	10006ad6 <usbd_edpt_claim+0x26>
10006ad2:	0028      	movs	r0, r5
10006ad4:	bd70      	pop	{r4, r5, r6, pc}
10006ad6:	2101      	movs	r1, #1
10006ad8:	4e0d      	ldr	r6, [pc, #52]	; (10006b10 <usbd_edpt_claim+0x60>)
10006ada:	4249      	negs	r1, r1
10006adc:	6830      	ldr	r0, [r6, #0]
10006ade:	f001 fd63 	bl	100085a8 <__mutex_enter_timeout_ms_veneer>
10006ae2:	78e3      	ldrb	r3, [r4, #3]
10006ae4:	07db      	lsls	r3, r3, #31
10006ae6:	0fdd      	lsrs	r5, r3, #31
10006ae8:	2b00      	cmp	r3, #0
10006aea:	d10a      	bne.n	10006b02 <usbd_edpt_claim+0x52>
10006aec:	78e3      	ldrb	r3, [r4, #3]
10006aee:	075b      	lsls	r3, r3, #29
10006af0:	d408      	bmi.n	10006b04 <usbd_edpt_claim+0x54>
10006af2:	2204      	movs	r2, #4
10006af4:	78e3      	ldrb	r3, [r4, #3]
10006af6:	2501      	movs	r5, #1
10006af8:	4313      	orrs	r3, r2
10006afa:	70e3      	strb	r3, [r4, #3]
10006afc:	e002      	b.n	10006b04 <usbd_edpt_claim+0x54>
10006afe:	2500      	movs	r5, #0
10006b00:	e7e7      	b.n	10006ad2 <usbd_edpt_claim+0x22>
10006b02:	2500      	movs	r5, #0
10006b04:	6830      	ldr	r0, [r6, #0]
10006b06:	f001 fd2f 	bl	10008568 <__mutex_exit_veneer>
10006b0a:	e7e2      	b.n	10006ad2 <usbd_edpt_claim+0x22>
10006b0c:	2000136c 	.word	0x2000136c
10006b10:	200013c0 	.word	0x200013c0

10006b14 <usbd_edpt_release>:
10006b14:	b570      	push	{r4, r5, r6, lr}
10006b16:	000c      	movs	r4, r1
10006b18:	2101      	movs	r1, #1
10006b1a:	4d0f      	ldr	r5, [pc, #60]	; (10006b58 <usbd_edpt_release+0x44>)
10006b1c:	4249      	negs	r1, r1
10006b1e:	6828      	ldr	r0, [r5, #0]
10006b20:	f001 fd42 	bl	100085a8 <__mutex_enter_timeout_ms_veneer>
10006b24:	237f      	movs	r3, #127	; 0x7f
10006b26:	4a0d      	ldr	r2, [pc, #52]	; (10006b5c <usbd_edpt_release+0x48>)
10006b28:	4023      	ands	r3, r4
10006b2a:	005b      	lsls	r3, r3, #1
10006b2c:	09e4      	lsrs	r4, r4, #7
10006b2e:	18d3      	adds	r3, r2, r3
10006b30:	191b      	adds	r3, r3, r4
10006b32:	3330      	adds	r3, #48	; 0x30
10006b34:	78da      	ldrb	r2, [r3, #3]
10006b36:	2400      	movs	r4, #0
10006b38:	07d2      	lsls	r2, r2, #31
10006b3a:	d408      	bmi.n	10006b4e <usbd_edpt_release+0x3a>
10006b3c:	78da      	ldrb	r2, [r3, #3]
10006b3e:	0752      	lsls	r2, r2, #29
10006b40:	0fd4      	lsrs	r4, r2, #31
10006b42:	2a00      	cmp	r2, #0
10006b44:	da03      	bge.n	10006b4e <usbd_edpt_release+0x3a>
10006b46:	2104      	movs	r1, #4
10006b48:	78da      	ldrb	r2, [r3, #3]
10006b4a:	438a      	bics	r2, r1
10006b4c:	70da      	strb	r2, [r3, #3]
10006b4e:	6828      	ldr	r0, [r5, #0]
10006b50:	f001 fd0a 	bl	10008568 <__mutex_exit_veneer>
10006b54:	0020      	movs	r0, r4
10006b56:	bd70      	pop	{r4, r5, r6, pc}
10006b58:	200013c0 	.word	0x200013c0
10006b5c:	2000136c 	.word	0x2000136c

10006b60 <usbd_edpt_xfer>:
10006b60:	b570      	push	{r4, r5, r6, lr}
10006b62:	247f      	movs	r4, #127	; 0x7f
10006b64:	4d0e      	ldr	r5, [pc, #56]	; (10006ba0 <usbd_edpt_xfer+0x40>)
10006b66:	400c      	ands	r4, r1
10006b68:	0064      	lsls	r4, r4, #1
10006b6a:	192c      	adds	r4, r5, r4
10006b6c:	09ce      	lsrs	r6, r1, #7
10006b6e:	19a4      	adds	r4, r4, r6
10006b70:	3430      	adds	r4, #48	; 0x30
10006b72:	78e5      	ldrb	r5, [r4, #3]
10006b74:	07ed      	lsls	r5, r5, #31
10006b76:	d501      	bpl.n	10006b7c <usbd_edpt_xfer+0x1c>
10006b78:	2000      	movs	r0, #0
10006b7a:	bd70      	pop	{r4, r5, r6, pc}
10006b7c:	2601      	movs	r6, #1
10006b7e:	78e5      	ldrb	r5, [r4, #3]
10006b80:	4335      	orrs	r5, r6
10006b82:	70e5      	strb	r5, [r4, #3]
10006b84:	f7fe fef2 	bl	1000596c <dcd_edpt_xfer>
10006b88:	2800      	cmp	r0, #0
10006b8a:	d1f6      	bne.n	10006b7a <usbd_edpt_xfer+0x1a>
10006b8c:	2201      	movs	r2, #1
10006b8e:	78e3      	ldrb	r3, [r4, #3]
10006b90:	4393      	bics	r3, r2
10006b92:	70e3      	strb	r3, [r4, #3]
10006b94:	78e3      	ldrb	r3, [r4, #3]
10006b96:	3203      	adds	r2, #3
10006b98:	4393      	bics	r3, r2
10006b9a:	70e3      	strb	r3, [r4, #3]
10006b9c:	e7ec      	b.n	10006b78 <usbd_edpt_xfer+0x18>
10006b9e:	46c0      	nop			; (mov r8, r8)
10006ba0:	2000136c 	.word	0x2000136c

10006ba4 <tud_control_status>:
10006ba4:	b570      	push	{r4, r5, r6, lr}
10006ba6:	4c09      	ldr	r4, [pc, #36]	; (10006bcc <tud_control_status+0x28>)
10006ba8:	0006      	movs	r6, r0
10006baa:	2208      	movs	r2, #8
10006bac:	0020      	movs	r0, r4
10006bae:	000d      	movs	r5, r1
10006bb0:	f7fe f8f4 	bl	10004d9c <__wrap___aeabi_memcpy>
10006bb4:	2300      	movs	r3, #0
10006bb6:	2180      	movs	r1, #128	; 0x80
10006bb8:	60e3      	str	r3, [r4, #12]
10006bba:	60a3      	str	r3, [r4, #8]
10006bbc:	782b      	ldrb	r3, [r5, #0]
10006bbe:	0030      	movs	r0, r6
10006bc0:	4399      	bics	r1, r3
10006bc2:	2200      	movs	r2, #0
10006bc4:	2300      	movs	r3, #0
10006bc6:	f7ff ffcb 	bl	10006b60 <usbd_edpt_xfer>
10006bca:	bd70      	pop	{r4, r5, r6, pc}
10006bcc:	20001310 	.word	0x20001310

10006bd0 <tud_control_xfer>:
10006bd0:	b5f8      	push	{r3, r4, r5, r6, r7, lr}
10006bd2:	46ce      	mov	lr, r9
10006bd4:	4647      	mov	r7, r8
10006bd6:	4690      	mov	r8, r2
10006bd8:	4e26      	ldr	r6, [pc, #152]	; (10006c74 <tud_control_xfer+0xa4>)
10006bda:	b580      	push	{r7, lr}
10006bdc:	4681      	mov	r9, r0
10006bde:	2208      	movs	r2, #8
10006be0:	0030      	movs	r0, r6
10006be2:	000d      	movs	r5, r1
10006be4:	001f      	movs	r7, r3
10006be6:	f7fe f8d9 	bl	10004d9c <__wrap___aeabi_memcpy>
10006bea:	4643      	mov	r3, r8
10006bec:	60b3      	str	r3, [r6, #8]
10006bee:	2300      	movs	r3, #0
10006bf0:	81f3      	strh	r3, [r6, #14]
10006bf2:	79ec      	ldrb	r4, [r5, #7]
10006bf4:	79ab      	ldrb	r3, [r5, #6]
10006bf6:	0224      	lsls	r4, r4, #8
10006bf8:	431c      	orrs	r4, r3
10006bfa:	1c23      	adds	r3, r4, #0
10006bfc:	42bc      	cmp	r4, r7
10006bfe:	d900      	bls.n	10006c02 <tud_control_xfer+0x32>
10006c00:	1c3b      	adds	r3, r7, #0
10006c02:	b29f      	uxth	r7, r3
10006c04:	81b3      	strh	r3, [r6, #12]
10006c06:	2c00      	cmp	r4, #0
10006c08:	d00e      	beq.n	10006c28 <tud_control_xfer+0x58>
10006c0a:	2f00      	cmp	r7, #0
10006c0c:	d018      	beq.n	10006c40 <tud_control_xfer+0x70>
10006c0e:	4643      	mov	r3, r8
10006c10:	2b00      	cmp	r3, #0
10006c12:	d02c      	beq.n	10006c6e <tud_control_xfer+0x9e>
10006c14:	1c3b      	adds	r3, r7, #0
10006c16:	2f40      	cmp	r7, #64	; 0x40
10006c18:	d81b      	bhi.n	10006c52 <tud_control_xfer+0x82>
10006c1a:	b29f      	uxth	r7, r3
10006c1c:	7833      	ldrb	r3, [r6, #0]
10006c1e:	2b7f      	cmp	r3, #127	; 0x7f
10006c20:	d81c      	bhi.n	10006c5c <tud_control_xfer+0x8c>
10006c22:	2100      	movs	r1, #0
10006c24:	4a14      	ldr	r2, [pc, #80]	; (10006c78 <tud_control_xfer+0xa8>)
10006c26:	e00f      	b.n	10006c48 <tud_control_xfer+0x78>
10006c28:	2180      	movs	r1, #128	; 0x80
10006c2a:	782b      	ldrb	r3, [r5, #0]
10006c2c:	2200      	movs	r2, #0
10006c2e:	4399      	bics	r1, r3
10006c30:	4648      	mov	r0, r9
10006c32:	2300      	movs	r3, #0
10006c34:	f7ff ff94 	bl	10006b60 <usbd_edpt_xfer>
10006c38:	bcc0      	pop	{r6, r7}
10006c3a:	46b9      	mov	r9, r7
10006c3c:	46b0      	mov	r8, r6
10006c3e:	bdf8      	pop	{r3, r4, r5, r6, r7, pc}
10006c40:	237f      	movs	r3, #127	; 0x7f
10006c42:	2200      	movs	r2, #0
10006c44:	7831      	ldrb	r1, [r6, #0]
10006c46:	4399      	bics	r1, r3
10006c48:	003b      	movs	r3, r7
10006c4a:	4648      	mov	r0, r9
10006c4c:	f7ff ff88 	bl	10006b60 <usbd_edpt_xfer>
10006c50:	e7f2      	b.n	10006c38 <tud_control_xfer+0x68>
10006c52:	2340      	movs	r3, #64	; 0x40
10006c54:	b29f      	uxth	r7, r3
10006c56:	7833      	ldrb	r3, [r6, #0]
10006c58:	2b7f      	cmp	r3, #127	; 0x7f
10006c5a:	d9e2      	bls.n	10006c22 <tud_control_xfer+0x52>
10006c5c:	4c06      	ldr	r4, [pc, #24]	; (10006c78 <tud_control_xfer+0xa8>)
10006c5e:	003a      	movs	r2, r7
10006c60:	4641      	mov	r1, r8
10006c62:	0020      	movs	r0, r4
10006c64:	f7fe f89a 	bl	10004d9c <__wrap___aeabi_memcpy>
10006c68:	2180      	movs	r1, #128	; 0x80
10006c6a:	0022      	movs	r2, r4
10006c6c:	e7ec      	b.n	10006c48 <tud_control_xfer+0x78>
10006c6e:	2000      	movs	r0, #0
10006c70:	e7e2      	b.n	10006c38 <tud_control_xfer+0x68>
10006c72:	46c0      	nop			; (mov r8, r8)
10006c74:	20001310 	.word	0x20001310
10006c78:	2000132c 	.word	0x2000132c

10006c7c <usbd_control_reset>:
10006c7c:	b510      	push	{r4, lr}
10006c7e:	2214      	movs	r2, #20
10006c80:	2100      	movs	r1, #0
10006c82:	4802      	ldr	r0, [pc, #8]	; (10006c8c <usbd_control_reset+0x10>)
10006c84:	f7fe f884 	bl	10004d90 <__wrap_memset>
10006c88:	bd10      	pop	{r4, pc}
10006c8a:	46c0      	nop			; (mov r8, r8)
10006c8c:	20001310 	.word	0x20001310

10006c90 <usbd_control_set_complete_callback>:
10006c90:	4b01      	ldr	r3, [pc, #4]	; (10006c98 <usbd_control_set_complete_callback+0x8>)
10006c92:	6118      	str	r0, [r3, #16]
10006c94:	4770      	bx	lr
10006c96:	46c0      	nop			; (mov r8, r8)
10006c98:	20001310 	.word	0x20001310

10006c9c <usbd_control_set_request>:
10006c9c:	b510      	push	{r4, lr}
10006c9e:	4c05      	ldr	r4, [pc, #20]	; (10006cb4 <usbd_control_set_request+0x18>)
10006ca0:	0001      	movs	r1, r0
10006ca2:	2208      	movs	r2, #8
10006ca4:	0020      	movs	r0, r4
10006ca6:	f7fe f879 	bl	10004d9c <__wrap___aeabi_memcpy>
10006caa:	2300      	movs	r3, #0
10006cac:	60a3      	str	r3, [r4, #8]
10006cae:	60e3      	str	r3, [r4, #12]
10006cb0:	bd10      	pop	{r4, pc}
10006cb2:	46c0      	nop			; (mov r8, r8)
10006cb4:	20001310 	.word	0x20001310

10006cb8 <usbd_control_xfer_cb>:
10006cb8:	b570      	push	{r4, r5, r6, lr}
10006cba:	4c39      	ldr	r4, [pc, #228]	; (10006da0 <usbd_control_xfer_cb+0xe8>)
10006cbc:	001d      	movs	r5, r3
10006cbe:	7823      	ldrb	r3, [r4, #0]
10006cc0:	0006      	movs	r6, r0
10006cc2:	09da      	lsrs	r2, r3, #7
10006cc4:	09c9      	lsrs	r1, r1, #7
10006cc6:	428a      	cmp	r2, r1
10006cc8:	d013      	beq.n	10006cf2 <usbd_control_xfer_cb+0x3a>
10006cca:	2000      	movs	r0, #0
10006ccc:	2d00      	cmp	r5, #0
10006cce:	d000      	beq.n	10006cd2 <usbd_control_xfer_cb+0x1a>
10006cd0:	bd70      	pop	{r4, r5, r6, pc}
10006cd2:	4b34      	ldr	r3, [pc, #208]	; (10006da4 <usbd_control_xfer_cb+0xec>)
10006cd4:	2b00      	cmp	r3, #0
10006cd6:	d003      	beq.n	10006ce0 <usbd_control_xfer_cb+0x28>
10006cd8:	0021      	movs	r1, r4
10006cda:	0030      	movs	r0, r6
10006cdc:	f7fe fd8c 	bl	100057f8 <dcd_edpt0_status_complete>
10006ce0:	6923      	ldr	r3, [r4, #16]
10006ce2:	2b00      	cmp	r3, #0
10006ce4:	d003      	beq.n	10006cee <usbd_control_xfer_cb+0x36>
10006ce6:	0022      	movs	r2, r4
10006ce8:	2102      	movs	r1, #2
10006cea:	0030      	movs	r0, r6
10006cec:	4798      	blx	r3
10006cee:	2001      	movs	r0, #1
10006cf0:	e7ee      	b.n	10006cd0 <usbd_control_xfer_cb+0x18>
10006cf2:	68a0      	ldr	r0, [r4, #8]
10006cf4:	2b7f      	cmp	r3, #127	; 0x7f
10006cf6:	d805      	bhi.n	10006d04 <usbd_control_xfer_cb+0x4c>
10006cf8:	2800      	cmp	r0, #0
10006cfa:	d034      	beq.n	10006d66 <usbd_control_xfer_cb+0xae>
10006cfc:	002a      	movs	r2, r5
10006cfe:	492a      	ldr	r1, [pc, #168]	; (10006da8 <usbd_control_xfer_cb+0xf0>)
10006d00:	f7fe f84c 	bl	10004d9c <__wrap___aeabi_memcpy>
10006d04:	89e2      	ldrh	r2, [r4, #14]
10006d06:	68a1      	ldr	r1, [r4, #8]
10006d08:	1952      	adds	r2, r2, r5
10006d0a:	88e3      	ldrh	r3, [r4, #6]
10006d0c:	b292      	uxth	r2, r2
10006d0e:	1949      	adds	r1, r1, r5
10006d10:	81e2      	strh	r2, [r4, #14]
10006d12:	60a1      	str	r1, [r4, #8]
10006d14:	4293      	cmp	r3, r2
10006d16:	d014      	beq.n	10006d42 <usbd_control_xfer_cb+0x8a>
10006d18:	2d3f      	cmp	r5, #63	; 0x3f
10006d1a:	d912      	bls.n	10006d42 <usbd_control_xfer_cb+0x8a>
10006d1c:	89a3      	ldrh	r3, [r4, #12]
10006d1e:	1a98      	subs	r0, r3, r2
10006d20:	1c05      	adds	r5, r0, #0
10006d22:	b280      	uxth	r0, r0
10006d24:	2840      	cmp	r0, #64	; 0x40
10006d26:	d82a      	bhi.n	10006d7e <usbd_control_xfer_cb+0xc6>
10006d28:	7820      	ldrb	r0, [r4, #0]
10006d2a:	b2ad      	uxth	r5, r5
10006d2c:	287f      	cmp	r0, #127	; 0x7f
10006d2e:	d828      	bhi.n	10006d82 <usbd_control_xfer_cb+0xca>
10006d30:	2100      	movs	r1, #0
10006d32:	429a      	cmp	r2, r3
10006d34:	d032      	beq.n	10006d9c <usbd_control_xfer_cb+0xe4>
10006d36:	4a1c      	ldr	r2, [pc, #112]	; (10006da8 <usbd_control_xfer_cb+0xf0>)
10006d38:	002b      	movs	r3, r5
10006d3a:	0030      	movs	r0, r6
10006d3c:	f7ff ff10 	bl	10006b60 <usbd_edpt_xfer>
10006d40:	e7c6      	b.n	10006cd0 <usbd_control_xfer_cb+0x18>
10006d42:	6923      	ldr	r3, [r4, #16]
10006d44:	2b00      	cmp	r3, #0
10006d46:	d005      	beq.n	10006d54 <usbd_control_xfer_cb+0x9c>
10006d48:	0022      	movs	r2, r4
10006d4a:	2101      	movs	r1, #1
10006d4c:	0030      	movs	r0, r6
10006d4e:	4798      	blx	r3
10006d50:	2800      	cmp	r0, #0
10006d52:	d00a      	beq.n	10006d6a <usbd_control_xfer_cb+0xb2>
10006d54:	2180      	movs	r1, #128	; 0x80
10006d56:	7823      	ldrb	r3, [r4, #0]
10006d58:	2200      	movs	r2, #0
10006d5a:	4399      	bics	r1, r3
10006d5c:	0030      	movs	r0, r6
10006d5e:	2300      	movs	r3, #0
10006d60:	f7ff fefe 	bl	10006b60 <usbd_edpt_xfer>
10006d64:	e7b4      	b.n	10006cd0 <usbd_control_xfer_cb+0x18>
10006d66:	2000      	movs	r0, #0
10006d68:	e7b2      	b.n	10006cd0 <usbd_control_xfer_cb+0x18>
10006d6a:	2100      	movs	r1, #0
10006d6c:	0030      	movs	r0, r6
10006d6e:	f7fe fe0f 	bl	10005990 <dcd_edpt_stall>
10006d72:	0030      	movs	r0, r6
10006d74:	2180      	movs	r1, #128	; 0x80
10006d76:	f7fe fe0b 	bl	10005990 <dcd_edpt_stall>
10006d7a:	2001      	movs	r0, #1
10006d7c:	e7a8      	b.n	10006cd0 <usbd_control_xfer_cb+0x18>
10006d7e:	2540      	movs	r5, #64	; 0x40
10006d80:	e7d2      	b.n	10006d28 <usbd_control_xfer_cb+0x70>
10006d82:	429a      	cmp	r2, r3
10006d84:	d007      	beq.n	10006d96 <usbd_control_xfer_cb+0xde>
10006d86:	4c08      	ldr	r4, [pc, #32]	; (10006da8 <usbd_control_xfer_cb+0xf0>)
10006d88:	002a      	movs	r2, r5
10006d8a:	0020      	movs	r0, r4
10006d8c:	f7fe f806 	bl	10004d9c <__wrap___aeabi_memcpy>
10006d90:	2180      	movs	r1, #128	; 0x80
10006d92:	0022      	movs	r2, r4
10006d94:	e7d0      	b.n	10006d38 <usbd_control_xfer_cb+0x80>
10006d96:	2180      	movs	r1, #128	; 0x80
10006d98:	2200      	movs	r2, #0
10006d9a:	e7cd      	b.n	10006d38 <usbd_control_xfer_cb+0x80>
10006d9c:	2200      	movs	r2, #0
10006d9e:	e7cb      	b.n	10006d38 <usbd_control_xfer_cb+0x80>
10006da0:	20001310 	.word	0x20001310
10006da4:	100057f9 	.word	0x100057f9
10006da8:	2000132c 	.word	0x2000132c

10006dac <tud_cdc_n_connected>:
10006dac:	b510      	push	{r4, lr}
10006dae:	0004      	movs	r4, r0
10006db0:	f7ff f804 	bl	10005dbc <tud_mounted>
10006db4:	2800      	cmp	r0, #0
10006db6:	d101      	bne.n	10006dbc <tud_cdc_n_connected+0x10>
10006db8:	2000      	movs	r0, #0
10006dba:	bd10      	pop	{r4, pc}
10006dbc:	f7ff f806 	bl	10005dcc <tud_suspended>
10006dc0:	2800      	cmp	r0, #0
10006dc2:	d1f9      	bne.n	10006db8 <tud_cdc_n_connected+0xc>
10006dc4:	22b6      	movs	r2, #182	; 0xb6
10006dc6:	0092      	lsls	r2, r2, #2
10006dc8:	4362      	muls	r2, r4
10006dca:	4b03      	ldr	r3, [pc, #12]	; (10006dd8 <tud_cdc_n_connected+0x2c>)
10006dcc:	3001      	adds	r0, #1
10006dce:	189b      	adds	r3, r3, r2
10006dd0:	791b      	ldrb	r3, [r3, #4]
10006dd2:	4018      	ands	r0, r3
10006dd4:	e7f1      	b.n	10006dba <tud_cdc_n_connected+0xe>
10006dd6:	46c0      	nop			; (mov r8, r8)
10006dd8:	20001038 	.word	0x20001038

10006ddc <tud_cdc_n_available>:
10006ddc:	23b6      	movs	r3, #182	; 0xb6
10006dde:	009b      	lsls	r3, r3, #2
10006de0:	4343      	muls	r3, r0
10006de2:	b510      	push	{r4, lr}
10006de4:	4802      	ldr	r0, [pc, #8]	; (10006df0 <tud_cdc_n_available+0x14>)
10006de6:	1818      	adds	r0, r3, r0
10006de8:	f000 fb0e 	bl	10007408 <tu_fifo_count>
10006dec:	bd10      	pop	{r4, pc}
10006dee:	46c0      	nop			; (mov r8, r8)
10006df0:	20001048 	.word	0x20001048

10006df4 <tud_cdc_n_read>:
10006df4:	b5f0      	push	{r4, r5, r6, r7, lr}
10006df6:	25b6      	movs	r5, #182	; 0xb6
10006df8:	00ad      	lsls	r5, r5, #2
10006dfa:	4345      	muls	r5, r0
10006dfc:	002c      	movs	r4, r5
10006dfe:	46c6      	mov	lr, r8
10006e00:	4f17      	ldr	r7, [pc, #92]	; (10006e60 <tud_cdc_n_read+0x6c>)
10006e02:	3410      	adds	r4, #16
10006e04:	19e4      	adds	r4, r4, r7
10006e06:	b500      	push	{lr}
10006e08:	0020      	movs	r0, r4
10006e0a:	b292      	uxth	r2, r2
10006e0c:	f000 fb74 	bl	100074f8 <tu_fifo_read_n>
10006e10:	0006      	movs	r6, r0
10006e12:	0020      	movs	r0, r4
10006e14:	f000 fb10 	bl	10007438 <tu_fifo_remaining>
10006e18:	283f      	cmp	r0, #63	; 0x3f
10006e1a:	d803      	bhi.n	10006e24 <tud_cdc_n_read+0x30>
10006e1c:	0030      	movs	r0, r6
10006e1e:	bc80      	pop	{r7}
10006e20:	46b8      	mov	r8, r7
10006e22:	bdf0      	pop	{r4, r5, r6, r7, pc}
10006e24:	197b      	adds	r3, r7, r5
10006e26:	2000      	movs	r0, #0
10006e28:	78d9      	ldrb	r1, [r3, #3]
10006e2a:	4698      	mov	r8, r3
10006e2c:	f7ff fe40 	bl	10006ab0 <usbd_edpt_claim>
10006e30:	2800      	cmp	r0, #0
10006e32:	d0f3      	beq.n	10006e1c <tud_cdc_n_read+0x28>
10006e34:	0020      	movs	r0, r4
10006e36:	f000 faff 	bl	10007438 <tu_fifo_remaining>
10006e3a:	283f      	cmp	r0, #63	; 0x3f
10006e3c:	d90a      	bls.n	10006e54 <tud_cdc_n_read+0x60>
10006e3e:	2396      	movs	r3, #150	; 0x96
10006e40:	009b      	lsls	r3, r3, #2
10006e42:	18ea      	adds	r2, r5, r3
10006e44:	4643      	mov	r3, r8
10006e46:	19d2      	adds	r2, r2, r7
10006e48:	78d9      	ldrb	r1, [r3, #3]
10006e4a:	2000      	movs	r0, #0
10006e4c:	2340      	movs	r3, #64	; 0x40
10006e4e:	f7ff fe87 	bl	10006b60 <usbd_edpt_xfer>
10006e52:	e7e3      	b.n	10006e1c <tud_cdc_n_read+0x28>
10006e54:	4643      	mov	r3, r8
10006e56:	2000      	movs	r0, #0
10006e58:	78d9      	ldrb	r1, [r3, #3]
10006e5a:	f7ff fe5b 	bl	10006b14 <usbd_edpt_release>
10006e5e:	e7dd      	b.n	10006e1c <tud_cdc_n_read+0x28>
10006e60:	20001038 	.word	0x20001038

10006e64 <tud_cdc_n_write_flush>:
10006e64:	b5f8      	push	{r3, r4, r5, r6, r7, lr}
10006e66:	0004      	movs	r4, r0
10006e68:	f7fe ffa8 	bl	10005dbc <tud_mounted>
10006e6c:	2800      	cmp	r0, #0
10006e6e:	d101      	bne.n	10006e74 <tud_cdc_n_write_flush+0x10>
10006e70:	2000      	movs	r0, #0
10006e72:	bdf8      	pop	{r3, r4, r5, r6, r7, pc}
10006e74:	f7fe ffaa 	bl	10005dcc <tud_suspended>
10006e78:	2800      	cmp	r0, #0
10006e7a:	d1f9      	bne.n	10006e70 <tud_cdc_n_write_flush+0xc>
10006e7c:	23b6      	movs	r3, #182	; 0xb6
10006e7e:	009b      	lsls	r3, r3, #2
10006e80:	435c      	muls	r4, r3
10006e82:	0025      	movs	r5, r4
10006e84:	4e14      	ldr	r6, [pc, #80]	; (10006ed8 <tud_cdc_n_write_flush+0x74>)
10006e86:	352c      	adds	r5, #44	; 0x2c
10006e88:	19ad      	adds	r5, r5, r6
10006e8a:	0028      	movs	r0, r5
10006e8c:	f000 fabc 	bl	10007408 <tu_fifo_count>
10006e90:	2800      	cmp	r0, #0
10006e92:	d0ed      	beq.n	10006e70 <tud_cdc_n_write_flush+0xc>
10006e94:	1937      	adds	r7, r6, r4
10006e96:	2000      	movs	r0, #0
10006e98:	78b9      	ldrb	r1, [r7, #2]
10006e9a:	f7ff fe09 	bl	10006ab0 <usbd_edpt_claim>
10006e9e:	2800      	cmp	r0, #0
10006ea0:	d0e6      	beq.n	10006e70 <tud_cdc_n_write_flush+0xc>
10006ea2:	23a6      	movs	r3, #166	; 0xa6
10006ea4:	009b      	lsls	r3, r3, #2
10006ea6:	469c      	mov	ip, r3
10006ea8:	4464      	add	r4, ip
10006eaa:	19a4      	adds	r4, r4, r6
10006eac:	0021      	movs	r1, r4
10006eae:	0028      	movs	r0, r5
10006eb0:	2240      	movs	r2, #64	; 0x40
10006eb2:	f000 fb21 	bl	100074f8 <tu_fifo_read_n>
10006eb6:	78b9      	ldrb	r1, [r7, #2]
10006eb8:	1e05      	subs	r5, r0, #0
10006eba:	d008      	beq.n	10006ece <tud_cdc_n_write_flush+0x6a>
10006ebc:	0003      	movs	r3, r0
10006ebe:	0022      	movs	r2, r4
10006ec0:	2000      	movs	r0, #0
10006ec2:	f7ff fe4d 	bl	10006b60 <usbd_edpt_xfer>
10006ec6:	2800      	cmp	r0, #0
10006ec8:	d0d2      	beq.n	10006e70 <tud_cdc_n_write_flush+0xc>
10006eca:	0028      	movs	r0, r5
10006ecc:	e7d1      	b.n	10006e72 <tud_cdc_n_write_flush+0xe>
10006ece:	2000      	movs	r0, #0
10006ed0:	f7ff fe20 	bl	10006b14 <usbd_edpt_release>
10006ed4:	e7cc      	b.n	10006e70 <tud_cdc_n_write_flush+0xc>
10006ed6:	46c0      	nop			; (mov r8, r8)
10006ed8:	20001038 	.word	0x20001038

10006edc <tud_cdc_n_write>:
10006edc:	b570      	push	{r4, r5, r6, lr}
10006ede:	24b6      	movs	r4, #182	; 0xb6
10006ee0:	00a4      	lsls	r4, r4, #2
10006ee2:	4344      	muls	r4, r0
10006ee4:	4b09      	ldr	r3, [pc, #36]	; (10006f0c <tud_cdc_n_write+0x30>)
10006ee6:	0005      	movs	r5, r0
10006ee8:	18e4      	adds	r4, r4, r3
10006eea:	0020      	movs	r0, r4
10006eec:	b292      	uxth	r2, r2
10006eee:	f000 fbbf 	bl	10007670 <tu_fifo_write_n>
10006ef2:	0006      	movs	r6, r0
10006ef4:	0020      	movs	r0, r4
10006ef6:	f000 fa87 	bl	10007408 <tu_fifo_count>
10006efa:	283f      	cmp	r0, #63	; 0x3f
10006efc:	d801      	bhi.n	10006f02 <tud_cdc_n_write+0x26>
10006efe:	0030      	movs	r0, r6
10006f00:	bd70      	pop	{r4, r5, r6, pc}
10006f02:	0028      	movs	r0, r5
10006f04:	f7ff ffae 	bl	10006e64 <tud_cdc_n_write_flush>
10006f08:	e7f9      	b.n	10006efe <tud_cdc_n_write+0x22>
10006f0a:	46c0      	nop			; (mov r8, r8)
10006f0c:	20001064 	.word	0x20001064

10006f10 <tud_cdc_n_write_available>:
10006f10:	23b6      	movs	r3, #182	; 0xb6
10006f12:	009b      	lsls	r3, r3, #2
10006f14:	4343      	muls	r3, r0
10006f16:	b510      	push	{r4, lr}
10006f18:	4802      	ldr	r0, [pc, #8]	; (10006f24 <tud_cdc_n_write_available+0x14>)
10006f1a:	1818      	adds	r0, r3, r0
10006f1c:	f000 fa8c 	bl	10007438 <tu_fifo_remaining>
10006f20:	bd10      	pop	{r4, pc}
10006f22:	46c0      	nop			; (mov r8, r8)
10006f24:	20001064 	.word	0x20001064

10006f28 <cdcd_init>:
10006f28:	22b6      	movs	r2, #182	; 0xb6
10006f2a:	b5f0      	push	{r4, r5, r6, r7, lr}
10006f2c:	4c1b      	ldr	r4, [pc, #108]	; (10006f9c <cdcd_init+0x74>)
10006f2e:	b083      	sub	sp, #12
10006f30:	2100      	movs	r1, #0
10006f32:	0020      	movs	r0, r4
10006f34:	0092      	lsls	r2, r2, #2
10006f36:	f7fd ff2b 	bl	10004d90 <__wrap_memset>
10006f3a:	23ff      	movs	r3, #255	; 0xff
10006f3c:	7163      	strb	r3, [r4, #5]
10006f3e:	4b18      	ldr	r3, [pc, #96]	; (10006fa0 <cdcd_init+0x78>)
10006f40:	2680      	movs	r6, #128	; 0x80
10006f42:	2500      	movs	r5, #0
10006f44:	80e3      	strh	r3, [r4, #6]
10006f46:	2701      	movs	r7, #1
10006f48:	2308      	movs	r3, #8
10006f4a:	0021      	movs	r1, r4
10006f4c:	0020      	movs	r0, r4
10006f4e:	0076      	lsls	r6, r6, #1
10006f50:	7323      	strb	r3, [r4, #12]
10006f52:	0032      	movs	r2, r6
10006f54:	8127      	strh	r7, [r4, #8]
10006f56:	3148      	adds	r1, #72	; 0x48
10006f58:	9500      	str	r5, [sp, #0]
10006f5a:	3b07      	subs	r3, #7
10006f5c:	3010      	adds	r0, #16
10006f5e:	f000 fa19 	bl	10007394 <tu_fifo_config>
10006f62:	0021      	movs	r1, r4
10006f64:	0020      	movs	r0, r4
10006f66:	3149      	adds	r1, #73	; 0x49
10006f68:	0032      	movs	r2, r6
10006f6a:	31ff      	adds	r1, #255	; 0xff
10006f6c:	2301      	movs	r3, #1
10006f6e:	9700      	str	r7, [sp, #0]
10006f70:	302c      	adds	r0, #44	; 0x2c
10006f72:	f000 fa0f 	bl	10007394 <tu_fifo_config>
10006f76:	2392      	movs	r3, #146	; 0x92
10006f78:	009b      	lsls	r3, r3, #2
10006f7a:	18e6      	adds	r6, r4, r3
10006f7c:	0030      	movs	r0, r6
10006f7e:	f7fb f875 	bl	1000206c <mutex_init>
10006f82:	2394      	movs	r3, #148	; 0x94
10006f84:	009b      	lsls	r3, r3, #2
10006f86:	62a6      	str	r6, [r4, #40]	; 0x28
10006f88:	18e6      	adds	r6, r4, r3
10006f8a:	0030      	movs	r0, r6
10006f8c:	6265      	str	r5, [r4, #36]	; 0x24
10006f8e:	f7fb f86d 	bl	1000206c <mutex_init>
10006f92:	6426      	str	r6, [r4, #64]	; 0x40
10006f94:	6465      	str	r5, [r4, #68]	; 0x44
10006f96:	b003      	add	sp, #12
10006f98:	bdf0      	pop	{r4, r5, r6, r7, pc}
10006f9a:	46c0      	nop			; (mov r8, r8)
10006f9c:	20001038 	.word	0x20001038
10006fa0:	ffffc200 	.word	0xffffc200

10006fa4 <cdcd_reset>:
10006fa4:	b510      	push	{r4, lr}
10006fa6:	4c09      	ldr	r4, [pc, #36]	; (10006fcc <cdcd_reset+0x28>)
10006fa8:	2205      	movs	r2, #5
10006faa:	2100      	movs	r1, #0
10006fac:	0020      	movs	r0, r4
10006fae:	f7fd feef 	bl	10004d90 <__wrap_memset>
10006fb2:	0020      	movs	r0, r4
10006fb4:	342c      	adds	r4, #44	; 0x2c
10006fb6:	3010      	adds	r0, #16
10006fb8:	f000 fbd8 	bl	1000776c <tu_fifo_clear>
10006fbc:	0020      	movs	r0, r4
10006fbe:	f000 fbd5 	bl	1000776c <tu_fifo_clear>
10006fc2:	2101      	movs	r1, #1
10006fc4:	0020      	movs	r0, r4
10006fc6:	f000 fbf7 	bl	100077b8 <tu_fifo_set_overwritable>
10006fca:	bd10      	pop	{r4, pc}
10006fcc:	20001038 	.word	0x20001038

10006fd0 <cdcd_open>:
10006fd0:	b5f0      	push	{r4, r5, r6, r7, lr}
10006fd2:	794b      	ldrb	r3, [r1, #5]
10006fd4:	0006      	movs	r6, r0
10006fd6:	b083      	sub	sp, #12
10006fd8:	2b02      	cmp	r3, #2
10006fda:	d102      	bne.n	10006fe2 <cdcd_open+0x12>
10006fdc:	798b      	ldrb	r3, [r1, #6]
10006fde:	2b02      	cmp	r3, #2
10006fe0:	d003      	beq.n	10006fea <cdcd_open+0x1a>
10006fe2:	2500      	movs	r5, #0
10006fe4:	0028      	movs	r0, r5
10006fe6:	b003      	add	sp, #12
10006fe8:	bdf0      	pop	{r4, r5, r6, r7, pc}
10006fea:	4f2f      	ldr	r7, [pc, #188]	; (100070a8 <cdcd_open+0xd8>)
10006fec:	78bb      	ldrb	r3, [r7, #2]
10006fee:	2b00      	cmp	r3, #0
10006ff0:	d1f7      	bne.n	10006fe2 <cdcd_open+0x12>
10006ff2:	788b      	ldrb	r3, [r1, #2]
10006ff4:	2509      	movs	r5, #9
10006ff6:	703b      	strb	r3, [r7, #0]
10006ff8:	780c      	ldrb	r4, [r1, #0]
10006ffa:	190c      	adds	r4, r1, r4
10006ffc:	7863      	ldrb	r3, [r4, #1]
10006ffe:	2b24      	cmp	r3, #36	; 0x24
10007000:	d10b      	bne.n	1000701a <cdcd_open+0x4a>
10007002:	2a08      	cmp	r2, #8
10007004:	d802      	bhi.n	1000700c <cdcd_open+0x3c>
10007006:	e01f      	b.n	10007048 <cdcd_open+0x78>
10007008:	42aa      	cmp	r2, r5
1000700a:	d31d      	bcc.n	10007048 <cdcd_open+0x78>
1000700c:	7823      	ldrb	r3, [r4, #0]
1000700e:	18e4      	adds	r4, r4, r3
10007010:	195d      	adds	r5, r3, r5
10007012:	7863      	ldrb	r3, [r4, #1]
10007014:	b2ad      	uxth	r5, r5
10007016:	2b24      	cmp	r3, #36	; 0x24
10007018:	d0f6      	beq.n	10007008 <cdcd_open+0x38>
1000701a:	2b05      	cmp	r3, #5
1000701c:	d030      	beq.n	10007080 <cdcd_open+0xb0>
1000701e:	2b04      	cmp	r3, #4
10007020:	d112      	bne.n	10007048 <cdcd_open+0x78>
10007022:	7963      	ldrb	r3, [r4, #5]
10007024:	2b0a      	cmp	r3, #10
10007026:	d10f      	bne.n	10007048 <cdcd_open+0x78>
10007028:	4b20      	ldr	r3, [pc, #128]	; (100070ac <cdcd_open+0xdc>)
1000702a:	7827      	ldrb	r7, [r4, #0]
1000702c:	9301      	str	r3, [sp, #4]
1000702e:	3301      	adds	r3, #1
10007030:	9300      	str	r3, [sp, #0]
10007032:	2202      	movs	r2, #2
10007034:	2302      	movs	r3, #2
10007036:	0030      	movs	r0, r6
10007038:	19e1      	adds	r1, r4, r7
1000703a:	f7ff fcd7 	bl	100069ec <usbd_open_edpt_pair>
1000703e:	2800      	cmp	r0, #0
10007040:	d0cf      	beq.n	10006fe2 <cdcd_open+0x12>
10007042:	350e      	adds	r5, #14
10007044:	19ed      	adds	r5, r5, r7
10007046:	b2ad      	uxth	r5, r5
10007048:	4c19      	ldr	r4, [pc, #100]	; (100070b0 <cdcd_open+0xe0>)
1000704a:	0020      	movs	r0, r4
1000704c:	f000 f9f4 	bl	10007438 <tu_fifo_remaining>
10007050:	283f      	cmp	r0, #63	; 0x3f
10007052:	d9c7      	bls.n	10006fe4 <cdcd_open+0x14>
10007054:	0026      	movs	r6, r4
10007056:	3e10      	subs	r6, #16
10007058:	2000      	movs	r0, #0
1000705a:	78f1      	ldrb	r1, [r6, #3]
1000705c:	f7ff fd28 	bl	10006ab0 <usbd_edpt_claim>
10007060:	2800      	cmp	r0, #0
10007062:	d0bf      	beq.n	10006fe4 <cdcd_open+0x14>
10007064:	0020      	movs	r0, r4
10007066:	f000 f9e7 	bl	10007438 <tu_fifo_remaining>
1000706a:	283f      	cmp	r0, #63	; 0x3f
1000706c:	d916      	bls.n	1000709c <cdcd_open+0xcc>
1000706e:	2392      	movs	r3, #146	; 0x92
10007070:	009b      	lsls	r3, r3, #2
10007072:	18e2      	adds	r2, r4, r3
10007074:	78f1      	ldrb	r1, [r6, #3]
10007076:	2340      	movs	r3, #64	; 0x40
10007078:	2000      	movs	r0, #0
1000707a:	f7ff fd71 	bl	10006b60 <usbd_edpt_xfer>
1000707e:	e7b1      	b.n	10006fe4 <cdcd_open+0x14>
10007080:	0021      	movs	r1, r4
10007082:	0030      	movs	r0, r6
10007084:	f7ff fcfc 	bl	10006a80 <usbd_edpt_open>
10007088:	2800      	cmp	r0, #0
1000708a:	d0aa      	beq.n	10006fe2 <cdcd_open+0x12>
1000708c:	78a3      	ldrb	r3, [r4, #2]
1000708e:	707b      	strb	r3, [r7, #1]
10007090:	7823      	ldrb	r3, [r4, #0]
10007092:	195d      	adds	r5, r3, r5
10007094:	18e4      	adds	r4, r4, r3
10007096:	7863      	ldrb	r3, [r4, #1]
10007098:	b2ad      	uxth	r5, r5
1000709a:	e7c0      	b.n	1000701e <cdcd_open+0x4e>
1000709c:	78f1      	ldrb	r1, [r6, #3]
1000709e:	2000      	movs	r0, #0
100070a0:	f7ff fd38 	bl	10006b14 <usbd_edpt_release>
100070a4:	e79e      	b.n	10006fe4 <cdcd_open+0x14>
100070a6:	46c0      	nop			; (mov r8, r8)
100070a8:	20001038 	.word	0x20001038
100070ac:	2000103a 	.word	0x2000103a
100070b0:	20001048 	.word	0x20001048

100070b4 <cdcd_control_xfer_cb>:
100070b4:	b5f8      	push	{r3, r4, r5, r6, r7, lr}
100070b6:	2360      	movs	r3, #96	; 0x60
100070b8:	0014      	movs	r4, r2
100070ba:	7812      	ldrb	r2, [r2, #0]
100070bc:	0005      	movs	r5, r0
100070be:	4013      	ands	r3, r2
100070c0:	2000      	movs	r0, #0
100070c2:	2b20      	cmp	r3, #32
100070c4:	d112      	bne.n	100070ec <cdcd_control_xfer_cb+0x38>
100070c6:	4a2f      	ldr	r2, [pc, #188]	; (10007184 <cdcd_control_xfer_cb+0xd0>)
100070c8:	7963      	ldrb	r3, [r4, #5]
100070ca:	7927      	ldrb	r7, [r4, #4]
100070cc:	7816      	ldrb	r6, [r2, #0]
100070ce:	021b      	lsls	r3, r3, #8
100070d0:	433b      	orrs	r3, r7
100070d2:	429e      	cmp	r6, r3
100070d4:	d10a      	bne.n	100070ec <cdcd_control_xfer_cb+0x38>
100070d6:	7863      	ldrb	r3, [r4, #1]
100070d8:	2b22      	cmp	r3, #34	; 0x22
100070da:	d027      	beq.n	1000712c <cdcd_control_xfer_cb+0x78>
100070dc:	d807      	bhi.n	100070ee <cdcd_control_xfer_cb+0x3a>
100070de:	2b20      	cmp	r3, #32
100070e0:	d017      	beq.n	10007112 <cdcd_control_xfer_cb+0x5e>
100070e2:	2b21      	cmp	r3, #33	; 0x21
100070e4:	d102      	bne.n	100070ec <cdcd_control_xfer_cb+0x38>
100070e6:	2900      	cmp	r1, #0
100070e8:	d03d      	beq.n	10007166 <cdcd_control_xfer_cb+0xb2>
100070ea:	2001      	movs	r0, #1
100070ec:	bdf8      	pop	{r3, r4, r5, r6, r7, pc}
100070ee:	2b23      	cmp	r3, #35	; 0x23
100070f0:	d1fc      	bne.n	100070ec <cdcd_control_xfer_cb+0x38>
100070f2:	2900      	cmp	r1, #0
100070f4:	d03f      	beq.n	10007176 <cdcd_control_xfer_cb+0xc2>
100070f6:	2902      	cmp	r1, #2
100070f8:	d1f7      	bne.n	100070ea <cdcd_control_xfer_cb+0x36>
100070fa:	4b23      	ldr	r3, [pc, #140]	; (10007188 <cdcd_control_xfer_cb+0xd4>)
100070fc:	2b00      	cmp	r3, #0
100070fe:	d0f4      	beq.n	100070ea <cdcd_control_xfer_cb+0x36>
10007100:	78e1      	ldrb	r1, [r4, #3]
10007102:	78a3      	ldrb	r3, [r4, #2]
10007104:	0209      	lsls	r1, r1, #8
10007106:	2000      	movs	r0, #0
10007108:	4319      	orrs	r1, r3
1000710a:	e000      	b.n	1000710e <cdcd_control_xfer_cb+0x5a>
1000710c:	bf00      	nop
1000710e:	2001      	movs	r0, #1
10007110:	e7ec      	b.n	100070ec <cdcd_control_xfer_cb+0x38>
10007112:	2900      	cmp	r1, #0
10007114:	d027      	beq.n	10007166 <cdcd_control_xfer_cb+0xb2>
10007116:	2902      	cmp	r1, #2
10007118:	d1e7      	bne.n	100070ea <cdcd_control_xfer_cb+0x36>
1000711a:	4b1c      	ldr	r3, [pc, #112]	; (1000718c <cdcd_control_xfer_cb+0xd8>)
1000711c:	2b00      	cmp	r3, #0
1000711e:	d0e4      	beq.n	100070ea <cdcd_control_xfer_cb+0x36>
10007120:	2000      	movs	r0, #0
10007122:	1d91      	adds	r1, r2, #6
10007124:	f7fe f86c 	bl	10005200 <tud_cdc_line_coding_cb>
10007128:	2001      	movs	r0, #1
1000712a:	e7df      	b.n	100070ec <cdcd_control_xfer_cb+0x38>
1000712c:	2900      	cmp	r1, #0
1000712e:	d022      	beq.n	10007176 <cdcd_control_xfer_cb+0xc2>
10007130:	2902      	cmp	r1, #2
10007132:	d1da      	bne.n	100070ea <cdcd_control_xfer_cb+0x36>
10007134:	2501      	movs	r5, #1
10007136:	002e      	movs	r6, r5
10007138:	78a3      	ldrb	r3, [r4, #2]
1000713a:	78e4      	ldrb	r4, [r4, #3]
1000713c:	3901      	subs	r1, #1
1000713e:	0224      	lsls	r4, r4, #8
10007140:	431c      	orrs	r4, r3
10007142:	7114      	strb	r4, [r2, #4]
10007144:	4026      	ands	r6, r4
10007146:	322c      	adds	r2, #44	; 0x2c
10007148:	0010      	movs	r0, r2
1000714a:	4071      	eors	r1, r6
1000714c:	f000 fb34 	bl	100077b8 <tu_fifo_set_overwritable>
10007150:	4b0f      	ldr	r3, [pc, #60]	; (10007190 <cdcd_control_xfer_cb+0xdc>)
10007152:	2b00      	cmp	r3, #0
10007154:	d0c9      	beq.n	100070ea <cdcd_control_xfer_cb+0x36>
10007156:	0862      	lsrs	r2, r4, #1
10007158:	2000      	movs	r0, #0
1000715a:	0031      	movs	r1, r6
1000715c:	402a      	ands	r2, r5
1000715e:	e000      	b.n	10007162 <cdcd_control_xfer_cb+0xae>
10007160:	bf00      	nop
10007162:	2001      	movs	r0, #1
10007164:	e7c2      	b.n	100070ec <cdcd_control_xfer_cb+0x38>
10007166:	2307      	movs	r3, #7
10007168:	0021      	movs	r1, r4
1000716a:	0028      	movs	r0, r5
1000716c:	4a09      	ldr	r2, [pc, #36]	; (10007194 <cdcd_control_xfer_cb+0xe0>)
1000716e:	f7ff fd2f 	bl	10006bd0 <tud_control_xfer>
10007172:	2001      	movs	r0, #1
10007174:	e7ba      	b.n	100070ec <cdcd_control_xfer_cb+0x38>
10007176:	0021      	movs	r1, r4
10007178:	0028      	movs	r0, r5
1000717a:	f7ff fd13 	bl	10006ba4 <tud_control_status>
1000717e:	2001      	movs	r0, #1
10007180:	e7b4      	b.n	100070ec <cdcd_control_xfer_cb+0x38>
10007182:	46c0      	nop			; (mov r8, r8)
10007184:	20001038 	.word	0x20001038
10007188:	00000000 	.word	0x00000000
1000718c:	10005201 	.word	0x10005201
10007190:	00000000 	.word	0x00000000
10007194:	2000103e 	.word	0x2000103e

10007198 <cdcd_xfer_cb>:
10007198:	b5f8      	push	{r3, r4, r5, r6, r7, lr}
1000719a:	4645      	mov	r5, r8
1000719c:	4657      	mov	r7, sl
1000719e:	46de      	mov	lr, fp
100071a0:	464e      	mov	r6, r9
100071a2:	b5e0      	push	{r5, r6, r7, lr}
100071a4:	4d46      	ldr	r5, [pc, #280]	; (100072c0 <cdcd_xfer_cb+0x128>)
100071a6:	001f      	movs	r7, r3
100071a8:	78ea      	ldrb	r2, [r5, #3]
100071aa:	4680      	mov	r8, r0
100071ac:	000c      	movs	r4, r1
100071ae:	78ab      	ldrb	r3, [r5, #2]
100071b0:	428a      	cmp	r2, r1
100071b2:	d046      	beq.n	10007242 <cdcd_xfer_cb+0xaa>
100071b4:	2000      	movs	r0, #0
100071b6:	428b      	cmp	r3, r1
100071b8:	d01a      	beq.n	100071f0 <cdcd_xfer_cb+0x58>
100071ba:	bcf0      	pop	{r4, r5, r6, r7}
100071bc:	46bb      	mov	fp, r7
100071be:	46b2      	mov	sl, r6
100071c0:	46a9      	mov	r9, r5
100071c2:	46a0      	mov	r8, r4
100071c4:	bdf8      	pop	{r3, r4, r5, r6, r7, pc}
100071c6:	4b3f      	ldr	r3, [pc, #252]	; (100072c4 <cdcd_xfer_cb+0x12c>)
100071c8:	2b00      	cmp	r3, #0
100071ca:	d004      	beq.n	100071d6 <cdcd_xfer_cb+0x3e>
100071cc:	4648      	mov	r0, r9
100071ce:	f000 f92b 	bl	10007428 <tu_fifo_empty>
100071d2:	2800      	cmp	r0, #0
100071d4:	d06c      	beq.n	100072b0 <cdcd_xfer_cb+0x118>
100071d6:	4648      	mov	r0, r9
100071d8:	f000 f92e 	bl	10007438 <tu_fifo_remaining>
100071dc:	283f      	cmp	r0, #63	; 0x3f
100071de:	d907      	bls.n	100071f0 <cdcd_xfer_cb+0x58>
100071e0:	464e      	mov	r6, r9
100071e2:	3e10      	subs	r6, #16
100071e4:	2000      	movs	r0, #0
100071e6:	78f1      	ldrb	r1, [r6, #3]
100071e8:	f7ff fc62 	bl	10006ab0 <usbd_edpt_claim>
100071ec:	2800      	cmp	r0, #0
100071ee:	d151      	bne.n	10007294 <cdcd_xfer_cb+0xfc>
100071f0:	78ab      	ldrb	r3, [r5, #2]
100071f2:	42a3      	cmp	r3, r4
100071f4:	d001      	beq.n	100071fa <cdcd_xfer_cb+0x62>
100071f6:	2001      	movs	r0, #1
100071f8:	e7df      	b.n	100071ba <cdcd_xfer_cb+0x22>
100071fa:	4b33      	ldr	r3, [pc, #204]	; (100072c8 <cdcd_xfer_cb+0x130>)
100071fc:	2b00      	cmp	r3, #0
100071fe:	d002      	beq.n	10007206 <cdcd_xfer_cb+0x6e>
10007200:	2000      	movs	r0, #0
10007202:	e000      	b.n	10007206 <cdcd_xfer_cb+0x6e>
10007204:	bf00      	nop
10007206:	2000      	movs	r0, #0
10007208:	f7ff fe2c 	bl	10006e64 <tud_cdc_n_write_flush>
1000720c:	2800      	cmp	r0, #0
1000720e:	d1f2      	bne.n	100071f6 <cdcd_xfer_cb+0x5e>
10007210:	4c2e      	ldr	r4, [pc, #184]	; (100072cc <cdcd_xfer_cb+0x134>)
10007212:	0020      	movs	r0, r4
10007214:	f000 f8f8 	bl	10007408 <tu_fifo_count>
10007218:	2800      	cmp	r0, #0
1000721a:	d1ec      	bne.n	100071f6 <cdcd_xfer_cb+0x5e>
1000721c:	2f00      	cmp	r7, #0
1000721e:	d0ea      	beq.n	100071f6 <cdcd_xfer_cb+0x5e>
10007220:	06bf      	lsls	r7, r7, #26
10007222:	d1e8      	bne.n	100071f6 <cdcd_xfer_cb+0x5e>
10007224:	3c2c      	subs	r4, #44	; 0x2c
10007226:	4640      	mov	r0, r8
10007228:	78a1      	ldrb	r1, [r4, #2]
1000722a:	f7ff fc41 	bl	10006ab0 <usbd_edpt_claim>
1000722e:	2800      	cmp	r0, #0
10007230:	d0e1      	beq.n	100071f6 <cdcd_xfer_cb+0x5e>
10007232:	2300      	movs	r3, #0
10007234:	2200      	movs	r2, #0
10007236:	4640      	mov	r0, r8
10007238:	78a1      	ldrb	r1, [r4, #2]
1000723a:	f7ff fc91 	bl	10006b60 <usbd_edpt_xfer>
1000723e:	2001      	movs	r0, #1
10007240:	e7bb      	b.n	100071ba <cdcd_xfer_cb+0x22>
10007242:	2396      	movs	r3, #150	; 0x96
10007244:	009b      	lsls	r3, r3, #2
10007246:	18ee      	adds	r6, r5, r3
10007248:	2310      	movs	r3, #16
1000724a:	469b      	mov	fp, r3
1000724c:	44ab      	add	fp, r5
1000724e:	0031      	movs	r1, r6
10007250:	4658      	mov	r0, fp
10007252:	b2ba      	uxth	r2, r7
10007254:	f000 fa0c 	bl	10007670 <tu_fifo_write_n>
10007258:	4b1d      	ldr	r3, [pc, #116]	; (100072d0 <cdcd_xfer_cb+0x138>)
1000725a:	46d9      	mov	r9, fp
1000725c:	2b00      	cmp	r3, #0
1000725e:	d0b2      	beq.n	100071c6 <cdcd_xfer_cb+0x2e>
10007260:	796b      	ldrb	r3, [r5, #5]
10007262:	2bff      	cmp	r3, #255	; 0xff
10007264:	d0af      	beq.n	100071c6 <cdcd_xfer_cb+0x2e>
10007266:	2f00      	cmp	r7, #0
10007268:	d0ad      	beq.n	100071c6 <cdcd_xfer_cb+0x2e>
1000726a:	19f2      	adds	r2, r6, r7
1000726c:	4692      	mov	sl, r2
1000726e:	e003      	b.n	10007278 <cdcd_xfer_cb+0xe0>
10007270:	3601      	adds	r6, #1
10007272:	45b2      	cmp	sl, r6
10007274:	d0a7      	beq.n	100071c6 <cdcd_xfer_cb+0x2e>
10007276:	796b      	ldrb	r3, [r5, #5]
10007278:	7832      	ldrb	r2, [r6, #0]
1000727a:	429a      	cmp	r2, r3
1000727c:	d1f8      	bne.n	10007270 <cdcd_xfer_cb+0xd8>
1000727e:	4648      	mov	r0, r9
10007280:	f000 f8d2 	bl	10007428 <tu_fifo_empty>
10007284:	2800      	cmp	r0, #0
10007286:	d1f3      	bne.n	10007270 <cdcd_xfer_cb+0xd8>
10007288:	464b      	mov	r3, r9
1000728a:	3b10      	subs	r3, #16
1000728c:	7959      	ldrb	r1, [r3, #5]
1000728e:	e000      	b.n	10007292 <cdcd_xfer_cb+0xfa>
10007290:	bf00      	nop
10007292:	e7ed      	b.n	10007270 <cdcd_xfer_cb+0xd8>
10007294:	4648      	mov	r0, r9
10007296:	f000 f8cf 	bl	10007438 <tu_fifo_remaining>
1000729a:	283f      	cmp	r0, #63	; 0x3f
1000729c:	d90b      	bls.n	100072b6 <cdcd_xfer_cb+0x11e>
1000729e:	2292      	movs	r2, #146	; 0x92
100072a0:	0092      	lsls	r2, r2, #2
100072a2:	2340      	movs	r3, #64	; 0x40
100072a4:	78f1      	ldrb	r1, [r6, #3]
100072a6:	444a      	add	r2, r9
100072a8:	2000      	movs	r0, #0
100072aa:	f7ff fc59 	bl	10006b60 <usbd_edpt_xfer>
100072ae:	e79f      	b.n	100071f0 <cdcd_xfer_cb+0x58>
100072b0:	e000      	b.n	100072b4 <cdcd_xfer_cb+0x11c>
100072b2:	bf00      	nop
100072b4:	e78f      	b.n	100071d6 <cdcd_xfer_cb+0x3e>
100072b6:	78f1      	ldrb	r1, [r6, #3]
100072b8:	2000      	movs	r0, #0
100072ba:	f7ff fc2b 	bl	10006b14 <usbd_edpt_release>
100072be:	e797      	b.n	100071f0 <cdcd_xfer_cb+0x58>
100072c0:	20001038 	.word	0x20001038
	...
100072cc:	20001064 	.word	0x20001064
100072d0:	00000000 	.word	0x00000000

100072d4 <tusb_init>:
100072d4:	b510      	push	{r4, lr}
100072d6:	2000      	movs	r0, #0
100072d8:	f7fe fd86 	bl	10005de8 <tud_init>
100072dc:	bd10      	pop	{r4, pc}
100072de:	46c0      	nop			; (mov r8, r8)

100072e0 <tusb_inited>:
100072e0:	b510      	push	{r4, lr}
100072e2:	f7fe fd7b 	bl	10005ddc <tud_inited>
100072e6:	bd10      	pop	{r4, pc}

100072e8 <tu_edpt_validate>:
100072e8:	2207      	movs	r2, #7
100072ea:	b510      	push	{r4, lr}
100072ec:	7944      	ldrb	r4, [r0, #5]
100072ee:	7903      	ldrb	r3, [r0, #4]
100072f0:	4022      	ands	r2, r4
100072f2:	0212      	lsls	r2, r2, #8
100072f4:	431a      	orrs	r2, r3
100072f6:	78c3      	ldrb	r3, [r0, #3]
100072f8:	079b      	lsls	r3, r3, #30
100072fa:	0f9b      	lsrs	r3, r3, #30
100072fc:	2b02      	cmp	r3, #2
100072fe:	d005      	beq.n	1000730c <tu_edpt_validate+0x24>
10007300:	2b03      	cmp	r3, #3
10007302:	d015      	beq.n	10007330 <tu_edpt_validate+0x48>
10007304:	2000      	movs	r0, #0
10007306:	2b01      	cmp	r3, #1
10007308:	d008      	beq.n	1000731c <tu_edpt_validate+0x34>
1000730a:	bd10      	pop	{r4, pc}
1000730c:	2902      	cmp	r1, #2
1000730e:	d01e      	beq.n	1000734e <tu_edpt_validate+0x66>
10007310:	2000      	movs	r0, #0
10007312:	2340      	movs	r3, #64	; 0x40
10007314:	4293      	cmp	r3, r2
10007316:	4140      	adcs	r0, r0
10007318:	b2c0      	uxtb	r0, r0
1000731a:	e7f6      	b.n	1000730a <tu_edpt_validate+0x22>
1000731c:	3902      	subs	r1, #2
1000731e:	424b      	negs	r3, r1
10007320:	4159      	adcs	r1, r3
10007322:	4b0e      	ldr	r3, [pc, #56]	; (1000735c <tu_edpt_validate+0x74>)
10007324:	469c      	mov	ip, r3
10007326:	4461      	add	r1, ip
10007328:	4291      	cmp	r1, r2
1000732a:	4140      	adcs	r0, r0
1000732c:	b2c0      	uxtb	r0, r0
1000732e:	e7ec      	b.n	1000730a <tu_edpt_validate+0x22>
10007330:	3902      	subs	r1, #2
10007332:	1e4b      	subs	r3, r1, #1
10007334:	4199      	sbcs	r1, r3
10007336:	4b0a      	ldr	r3, [pc, #40]	; (10007360 <tu_edpt_validate+0x78>)
10007338:	4249      	negs	r1, r1
1000733a:	4019      	ands	r1, r3
1000733c:	2380      	movs	r3, #128	; 0x80
1000733e:	00db      	lsls	r3, r3, #3
10007340:	469c      	mov	ip, r3
10007342:	2000      	movs	r0, #0
10007344:	4461      	add	r1, ip
10007346:	4291      	cmp	r1, r2
10007348:	4140      	adcs	r0, r0
1000734a:	b2c0      	uxtb	r0, r0
1000734c:	e7dd      	b.n	1000730a <tu_edpt_validate+0x22>
1000734e:	4b05      	ldr	r3, [pc, #20]	; (10007364 <tu_edpt_validate+0x7c>)
10007350:	18d0      	adds	r0, r2, r3
10007352:	4243      	negs	r3, r0
10007354:	4158      	adcs	r0, r3
10007356:	b2c0      	uxtb	r0, r0
10007358:	e7d7      	b.n	1000730a <tu_edpt_validate+0x22>
1000735a:	46c0      	nop			; (mov r8, r8)
1000735c:	000003ff 	.word	0x000003ff
10007360:	fffffc40 	.word	0xfffffc40
10007364:	fffffe00 	.word	0xfffffe00

10007368 <tu_edpt_bind_driver>:
10007368:	b5f0      	push	{r4, r5, r6, r7, lr}
1000736a:	2a00      	cmp	r2, #0
1000736c:	d011      	beq.n	10007392 <tu_edpt_bind_driver+0x2a>
1000736e:	2400      	movs	r4, #0
10007370:	277f      	movs	r7, #127	; 0x7f
10007372:	784d      	ldrb	r5, [r1, #1]
10007374:	2d05      	cmp	r5, #5
10007376:	d106      	bne.n	10007386 <tu_edpt_bind_driver+0x1e>
10007378:	003d      	movs	r5, r7
1000737a:	788e      	ldrb	r6, [r1, #2]
1000737c:	4035      	ands	r5, r6
1000737e:	006d      	lsls	r5, r5, #1
10007380:	09f6      	lsrs	r6, r6, #7
10007382:	1945      	adds	r5, r0, r5
10007384:	55ab      	strb	r3, [r5, r6]
10007386:	780d      	ldrb	r5, [r1, #0]
10007388:	192c      	adds	r4, r5, r4
1000738a:	b2a4      	uxth	r4, r4
1000738c:	1949      	adds	r1, r1, r5
1000738e:	42a2      	cmp	r2, r4
10007390:	d8ef      	bhi.n	10007372 <tu_edpt_bind_driver+0xa>
10007392:	bdf0      	pop	{r4, r5, r6, r7, pc}

10007394 <tu_fifo_config>:
10007394:	b5f0      	push	{r4, r5, r6, r7, lr}
10007396:	46c6      	mov	lr, r8
10007398:	b500      	push	{lr}
1000739a:	0015      	movs	r5, r2
1000739c:	aa06      	add	r2, sp, #24
1000739e:	001e      	movs	r6, r3
100073a0:	7813      	ldrb	r3, [r2, #0]
100073a2:	2280      	movs	r2, #128	; 0x80
100073a4:	0004      	movs	r4, r0
100073a6:	000f      	movs	r7, r1
100073a8:	4698      	mov	r8, r3
100073aa:	0212      	lsls	r2, r2, #8
100073ac:	4295      	cmp	r5, r2
100073ae:	d829      	bhi.n	10007404 <tu_fifo_config+0x70>
100073b0:	6940      	ldr	r0, [r0, #20]
100073b2:	2800      	cmp	r0, #0
100073b4:	d003      	beq.n	100073be <tu_fifo_config+0x2a>
100073b6:	2101      	movs	r1, #1
100073b8:	4249      	negs	r1, r1
100073ba:	f001 f8f5 	bl	100085a8 <__mutex_enter_timeout_ms_veneer>
100073be:	69a0      	ldr	r0, [r4, #24]
100073c0:	2800      	cmp	r0, #0
100073c2:	d003      	beq.n	100073cc <tu_fifo_config+0x38>
100073c4:	2101      	movs	r1, #1
100073c6:	4249      	negs	r1, r1
100073c8:	f001 f8ee 	bl	100085a8 <__mutex_enter_timeout_ms_veneer>
100073cc:	4643      	mov	r3, r8
100073ce:	80a5      	strh	r5, [r4, #4]
100073d0:	006d      	lsls	r5, r5, #1
100073d2:	b2ad      	uxth	r5, r5
100073d4:	7223      	strb	r3, [r4, #8]
100073d6:	1e6b      	subs	r3, r5, #1
100073d8:	81a3      	strh	r3, [r4, #12]
100073da:	2300      	movs	r3, #0
100073dc:	6960      	ldr	r0, [r4, #20]
100073de:	426d      	negs	r5, r5
100073e0:	81e3      	strh	r3, [r4, #14]
100073e2:	6027      	str	r7, [r4, #0]
100073e4:	80e6      	strh	r6, [r4, #6]
100073e6:	8165      	strh	r5, [r4, #10]
100073e8:	8223      	strh	r3, [r4, #16]
100073ea:	2800      	cmp	r0, #0
100073ec:	d001      	beq.n	100073f2 <tu_fifo_config+0x5e>
100073ee:	f001 f8bb 	bl	10008568 <__mutex_exit_veneer>
100073f2:	69a0      	ldr	r0, [r4, #24]
100073f4:	2800      	cmp	r0, #0
100073f6:	d001      	beq.n	100073fc <tu_fifo_config+0x68>
100073f8:	f001 f8b6 	bl	10008568 <__mutex_exit_veneer>
100073fc:	2001      	movs	r0, #1
100073fe:	bc80      	pop	{r7}
10007400:	46b8      	mov	r8, r7
10007402:	bdf0      	pop	{r4, r5, r6, r7, pc}
10007404:	2000      	movs	r0, #0
10007406:	e7fa      	b.n	100073fe <tu_fifo_config+0x6a>

10007408 <tu_fifo_count>:
10007408:	89c1      	ldrh	r1, [r0, #14]
1000740a:	8a02      	ldrh	r2, [r0, #16]
1000740c:	1a8b      	subs	r3, r1, r2
1000740e:	b29b      	uxth	r3, r3
10007410:	4291      	cmp	r1, r2
10007412:	d202      	bcs.n	1000741a <tu_fifo_count+0x12>
10007414:	8942      	ldrh	r2, [r0, #10]
10007416:	1a9b      	subs	r3, r3, r2
10007418:	b29b      	uxth	r3, r3
1000741a:	8882      	ldrh	r2, [r0, #4]
1000741c:	1c10      	adds	r0, r2, #0
1000741e:	429a      	cmp	r2, r3
10007420:	d900      	bls.n	10007424 <tu_fifo_count+0x1c>
10007422:	1c18      	adds	r0, r3, #0
10007424:	b280      	uxth	r0, r0
10007426:	4770      	bx	lr

10007428 <tu_fifo_empty>:
10007428:	89c3      	ldrh	r3, [r0, #14]
1000742a:	8a00      	ldrh	r0, [r0, #16]
1000742c:	1a18      	subs	r0, r3, r0
1000742e:	4243      	negs	r3, r0
10007430:	4158      	adcs	r0, r3
10007432:	b2c0      	uxtb	r0, r0
10007434:	4770      	bx	lr
10007436:	46c0      	nop			; (mov r8, r8)

10007438 <tu_fifo_remaining>:
10007438:	b510      	push	{r4, lr}
1000743a:	89c4      	ldrh	r4, [r0, #14]
1000743c:	8a01      	ldrh	r1, [r0, #16]
1000743e:	8883      	ldrh	r3, [r0, #4]
10007440:	1a62      	subs	r2, r4, r1
10007442:	b292      	uxth	r2, r2
10007444:	428c      	cmp	r4, r1
10007446:	d202      	bcs.n	1000744e <tu_fifo_remaining+0x16>
10007448:	8941      	ldrh	r1, [r0, #10]
1000744a:	1a52      	subs	r2, r2, r1
1000744c:	b292      	uxth	r2, r2
1000744e:	1a98      	subs	r0, r3, r2
10007450:	b280      	uxth	r0, r0
10007452:	bd10      	pop	{r4, pc}

10007454 <tu_fifo_read>:
10007454:	b570      	push	{r4, r5, r6, lr}
10007456:	0004      	movs	r4, r0
10007458:	6980      	ldr	r0, [r0, #24]
1000745a:	000e      	movs	r6, r1
1000745c:	2800      	cmp	r0, #0
1000745e:	d003      	beq.n	10007468 <tu_fifo_read+0x14>
10007460:	2101      	movs	r1, #1
10007462:	4249      	negs	r1, r1
10007464:	f001 f8a0 	bl	100085a8 <__mutex_enter_timeout_ms_veneer>
10007468:	89e0      	ldrh	r0, [r4, #14]
1000746a:	8a22      	ldrh	r2, [r4, #16]
1000746c:	b281      	uxth	r1, r0
1000746e:	1a85      	subs	r5, r0, r2
10007470:	b293      	uxth	r3, r2
10007472:	b2ad      	uxth	r5, r5
10007474:	4290      	cmp	r0, r2
10007476:	d202      	bcs.n	1000747e <tu_fifo_read+0x2a>
10007478:	8962      	ldrh	r2, [r4, #10]
1000747a:	1aad      	subs	r5, r5, r2
1000747c:	b2ad      	uxth	r5, r5
1000747e:	88a2      	ldrh	r2, [r4, #4]
10007480:	42aa      	cmp	r2, r5
10007482:	d22b      	bcs.n	100074dc <tu_fifo_read+0x88>
10007484:	4291      	cmp	r1, r2
10007486:	d222      	bcs.n	100074ce <tu_fifo_read+0x7a>
10007488:	8960      	ldrh	r0, [r4, #10]
1000748a:	1810      	adds	r0, r2, r0
1000748c:	1a09      	subs	r1, r1, r0
1000748e:	b289      	uxth	r1, r1
10007490:	8221      	strh	r1, [r4, #16]
10007492:	429a      	cmp	r2, r3
10007494:	d803      	bhi.n	1000749e <tu_fifo_read+0x4a>
10007496:	1a9b      	subs	r3, r3, r2
10007498:	b29b      	uxth	r3, r3
1000749a:	429a      	cmp	r2, r3
1000749c:	d9fb      	bls.n	10007496 <tu_fifo_read+0x42>
1000749e:	88e2      	ldrh	r2, [r4, #6]
100074a0:	6821      	ldr	r1, [r4, #0]
100074a2:	4353      	muls	r3, r2
100074a4:	0030      	movs	r0, r6
100074a6:	18c9      	adds	r1, r1, r3
100074a8:	f7fd fc78 	bl	10004d9c <__wrap___aeabi_memcpy>
100074ac:	8a22      	ldrh	r2, [r4, #16]
100074ae:	2501      	movs	r5, #1
100074b0:	1c53      	adds	r3, r2, #1
100074b2:	b29b      	uxth	r3, r3
100074b4:	429a      	cmp	r2, r3
100074b6:	d915      	bls.n	100074e4 <tu_fifo_read+0x90>
100074b8:	8962      	ldrh	r2, [r4, #10]
100074ba:	189b      	adds	r3, r3, r2
100074bc:	b29b      	uxth	r3, r3
100074be:	69a0      	ldr	r0, [r4, #24]
100074c0:	8223      	strh	r3, [r4, #16]
100074c2:	2800      	cmp	r0, #0
100074c4:	d001      	beq.n	100074ca <tu_fifo_read+0x76>
100074c6:	f001 f84f 	bl	10008568 <__mutex_exit_veneer>
100074ca:	0028      	movs	r0, r5
100074cc:	bd70      	pop	{r4, r5, r6, pc}
100074ce:	1a89      	subs	r1, r1, r2
100074d0:	89a0      	ldrh	r0, [r4, #12]
100074d2:	b289      	uxth	r1, r1
100074d4:	4288      	cmp	r0, r1
100074d6:	d309      	bcc.n	100074ec <tu_fifo_read+0x98>
100074d8:	0015      	movs	r5, r2
100074da:	8221      	strh	r1, [r4, #16]
100074dc:	2d00      	cmp	r5, #0
100074de:	d1dc      	bne.n	1000749a <tu_fifo_read+0x46>
100074e0:	8a23      	ldrh	r3, [r4, #16]
100074e2:	b29b      	uxth	r3, r3
100074e4:	89a2      	ldrh	r2, [r4, #12]
100074e6:	429a      	cmp	r2, r3
100074e8:	d2e9      	bcs.n	100074be <tu_fifo_read+0x6a>
100074ea:	e7e5      	b.n	100074b8 <tu_fifo_read+0x64>
100074ec:	8960      	ldrh	r0, [r4, #10]
100074ee:	0015      	movs	r5, r2
100074f0:	1a09      	subs	r1, r1, r0
100074f2:	b289      	uxth	r1, r1
100074f4:	8221      	strh	r1, [r4, #16]
100074f6:	e7f1      	b.n	100074dc <tu_fifo_read+0x88>

100074f8 <tu_fifo_read_n>:
100074f8:	b5f0      	push	{r4, r5, r6, r7, lr}
100074fa:	464f      	mov	r7, r9
100074fc:	4646      	mov	r6, r8
100074fe:	46d6      	mov	lr, sl
10007500:	0005      	movs	r5, r0
10007502:	6980      	ldr	r0, [r0, #24]
10007504:	4688      	mov	r8, r1
10007506:	4691      	mov	r9, r2
10007508:	b5c0      	push	{r6, r7, lr}
1000750a:	2800      	cmp	r0, #0
1000750c:	d003      	beq.n	10007516 <tu_fifo_read_n+0x1e>
1000750e:	2101      	movs	r1, #1
10007510:	4249      	negs	r1, r1
10007512:	f001 f849 	bl	100085a8 <__mutex_enter_timeout_ms_veneer>
10007516:	89ea      	ldrh	r2, [r5, #14]
10007518:	8a2b      	ldrh	r3, [r5, #16]
1000751a:	b291      	uxth	r1, r2
1000751c:	1ad6      	subs	r6, r2, r3
1000751e:	b29c      	uxth	r4, r3
10007520:	b2b6      	uxth	r6, r6
10007522:	429a      	cmp	r2, r3
10007524:	d202      	bcs.n	1000752c <tu_fifo_read_n+0x34>
10007526:	896b      	ldrh	r3, [r5, #10]
10007528:	1af6      	subs	r6, r6, r3
1000752a:	b2b6      	uxth	r6, r6
1000752c:	88af      	ldrh	r7, [r5, #4]
1000752e:	42b7      	cmp	r7, r6
10007530:	d23d      	bcs.n	100075ae <tu_fifo_read_n+0xb6>
10007532:	42b9      	cmp	r1, r7
10007534:	d232      	bcs.n	1000759c <tu_fifo_read_n+0xa4>
10007536:	003e      	movs	r6, r7
10007538:	896b      	ldrh	r3, [r5, #10]
1000753a:	18fb      	adds	r3, r7, r3
1000753c:	1acb      	subs	r3, r1, r3
1000753e:	b29b      	uxth	r3, r3
10007540:	822b      	strh	r3, [r5, #16]
10007542:	8a2c      	ldrh	r4, [r5, #16]
10007544:	b2a4      	uxth	r4, r4
10007546:	464b      	mov	r3, r9
10007548:	45b1      	cmp	r9, r6
1000754a:	d84b      	bhi.n	100075e4 <tu_fifo_read_n+0xec>
1000754c:	b29e      	uxth	r6, r3
1000754e:	42a7      	cmp	r7, r4
10007550:	d803      	bhi.n	1000755a <tu_fifo_read_n+0x62>
10007552:	1be4      	subs	r4, r4, r7
10007554:	b2a4      	uxth	r4, r4
10007556:	42a7      	cmp	r7, r4
10007558:	d9fb      	bls.n	10007552 <tu_fifo_read_n+0x5a>
1000755a:	88ea      	ldrh	r2, [r5, #6]
1000755c:	6829      	ldr	r1, [r5, #0]
1000755e:	4691      	mov	r9, r2
10007560:	4362      	muls	r2, r4
10007562:	1b3b      	subs	r3, r7, r4
10007564:	b29b      	uxth	r3, r3
10007566:	1889      	adds	r1, r1, r2
10007568:	464a      	mov	r2, r9
1000756a:	429e      	cmp	r6, r3
1000756c:	d935      	bls.n	100075da <tu_fifo_read_n+0xe2>
1000756e:	4353      	muls	r3, r2
10007570:	b29b      	uxth	r3, r3
10007572:	001a      	movs	r2, r3
10007574:	4640      	mov	r0, r8
10007576:	469a      	mov	sl, r3
10007578:	f7fd fc10 	bl	10004d9c <__wrap___aeabi_memcpy>
1000757c:	464b      	mov	r3, r9
1000757e:	4640      	mov	r0, r8
10007580:	1bf7      	subs	r7, r6, r7
10007582:	19e4      	adds	r4, r4, r7
10007584:	435c      	muls	r4, r3
10007586:	6829      	ldr	r1, [r5, #0]
10007588:	4450      	add	r0, sl
1000758a:	b2a2      	uxth	r2, r4
1000758c:	f7fd fc06 	bl	10004d9c <__wrap___aeabi_memcpy>
10007590:	8a2a      	ldrh	r2, [r5, #16]
10007592:	1993      	adds	r3, r2, r6
10007594:	b29b      	uxth	r3, r3
10007596:	429a      	cmp	r2, r3
10007598:	d810      	bhi.n	100075bc <tu_fifo_read_n+0xc4>
1000759a:	e00c      	b.n	100075b6 <tu_fifo_read_n+0xbe>
1000759c:	1bc9      	subs	r1, r1, r7
1000759e:	89ab      	ldrh	r3, [r5, #12]
100075a0:	b289      	uxth	r1, r1
100075a2:	428b      	cmp	r3, r1
100075a4:	d320      	bcc.n	100075e8 <tu_fifo_read_n+0xf0>
100075a6:	003e      	movs	r6, r7
100075a8:	8229      	strh	r1, [r5, #16]
100075aa:	8a2c      	ldrh	r4, [r5, #16]
100075ac:	b2a4      	uxth	r4, r4
100075ae:	2e00      	cmp	r6, #0
100075b0:	d1c9      	bne.n	10007546 <tu_fifo_read_n+0x4e>
100075b2:	8a2b      	ldrh	r3, [r5, #16]
100075b4:	b29b      	uxth	r3, r3
100075b6:	89aa      	ldrh	r2, [r5, #12]
100075b8:	429a      	cmp	r2, r3
100075ba:	d202      	bcs.n	100075c2 <tu_fifo_read_n+0xca>
100075bc:	896a      	ldrh	r2, [r5, #10]
100075be:	189b      	adds	r3, r3, r2
100075c0:	b29b      	uxth	r3, r3
100075c2:	69a8      	ldr	r0, [r5, #24]
100075c4:	822b      	strh	r3, [r5, #16]
100075c6:	2800      	cmp	r0, #0
100075c8:	d001      	beq.n	100075ce <tu_fifo_read_n+0xd6>
100075ca:	f000 ffcd 	bl	10008568 <__mutex_exit_veneer>
100075ce:	0030      	movs	r0, r6
100075d0:	bce0      	pop	{r5, r6, r7}
100075d2:	46ba      	mov	sl, r7
100075d4:	46b1      	mov	r9, r6
100075d6:	46a8      	mov	r8, r5
100075d8:	bdf0      	pop	{r4, r5, r6, r7, pc}
100075da:	4640      	mov	r0, r8
100075dc:	4372      	muls	r2, r6
100075de:	f7fd fbdd 	bl	10004d9c <__wrap___aeabi_memcpy>
100075e2:	e7d5      	b.n	10007590 <tu_fifo_read_n+0x98>
100075e4:	1c33      	adds	r3, r6, #0
100075e6:	e7b1      	b.n	1000754c <tu_fifo_read_n+0x54>
100075e8:	896b      	ldrh	r3, [r5, #10]
100075ea:	003e      	movs	r6, r7
100075ec:	1ac9      	subs	r1, r1, r3
100075ee:	b289      	uxth	r1, r1
100075f0:	8229      	strh	r1, [r5, #16]
100075f2:	8a2c      	ldrh	r4, [r5, #16]
100075f4:	b2a4      	uxth	r4, r4
100075f6:	e7da      	b.n	100075ae <tu_fifo_read_n+0xb6>

100075f8 <tu_fifo_write>:
100075f8:	b570      	push	{r4, r5, r6, lr}
100075fa:	0004      	movs	r4, r0
100075fc:	6940      	ldr	r0, [r0, #20]
100075fe:	000e      	movs	r6, r1
10007600:	2800      	cmp	r0, #0
10007602:	d003      	beq.n	1000760c <tu_fifo_write+0x14>
10007604:	2101      	movs	r1, #1
10007606:	4249      	negs	r1, r1
10007608:	f000 ffce 	bl	100085a8 <__mutex_enter_timeout_ms_veneer>
1000760c:	89e2      	ldrh	r2, [r4, #14]
1000760e:	8a21      	ldrh	r1, [r4, #16]
10007610:	b295      	uxth	r5, r2
10007612:	1a53      	subs	r3, r2, r1
10007614:	b29b      	uxth	r3, r3
10007616:	4291      	cmp	r1, r2
10007618:	d902      	bls.n	10007620 <tu_fifo_write+0x28>
1000761a:	8962      	ldrh	r2, [r4, #10]
1000761c:	1a9b      	subs	r3, r3, r2
1000761e:	b29b      	uxth	r3, r3
10007620:	88a2      	ldrh	r2, [r4, #4]
10007622:	429a      	cmp	r2, r3
10007624:	d020      	beq.n	10007668 <tu_fifo_write+0x70>
10007626:	002b      	movs	r3, r5
10007628:	4295      	cmp	r5, r2
1000762a:	d303      	bcc.n	10007634 <tu_fifo_write+0x3c>
1000762c:	1a9b      	subs	r3, r3, r2
1000762e:	b29b      	uxth	r3, r3
10007630:	429a      	cmp	r2, r3
10007632:	d9fb      	bls.n	1000762c <tu_fifo_write+0x34>
10007634:	88e2      	ldrh	r2, [r4, #6]
10007636:	6820      	ldr	r0, [r4, #0]
10007638:	4353      	muls	r3, r2
1000763a:	0031      	movs	r1, r6
1000763c:	18c0      	adds	r0, r0, r3
1000763e:	f7fd fbad 	bl	10004d9c <__wrap___aeabi_memcpy>
10007642:	1c6b      	adds	r3, r5, #1
10007644:	b29b      	uxth	r3, r3
10007646:	429d      	cmp	r5, r3
10007648:	d90a      	bls.n	10007660 <tu_fifo_write+0x68>
1000764a:	8962      	ldrh	r2, [r4, #10]
1000764c:	189b      	adds	r3, r3, r2
1000764e:	b29b      	uxth	r3, r3
10007650:	6960      	ldr	r0, [r4, #20]
10007652:	81e3      	strh	r3, [r4, #14]
10007654:	2800      	cmp	r0, #0
10007656:	d001      	beq.n	1000765c <tu_fifo_write+0x64>
10007658:	f000 ff86 	bl	10008568 <__mutex_exit_veneer>
1000765c:	2001      	movs	r0, #1
1000765e:	bd70      	pop	{r4, r5, r6, pc}
10007660:	89a2      	ldrh	r2, [r4, #12]
10007662:	429a      	cmp	r2, r3
10007664:	d2f4      	bcs.n	10007650 <tu_fifo_write+0x58>
10007666:	e7f0      	b.n	1000764a <tu_fifo_write+0x52>
10007668:	7a20      	ldrb	r0, [r4, #8]
1000766a:	2800      	cmp	r0, #0
1000766c:	d1db      	bne.n	10007626 <tu_fifo_write+0x2e>
1000766e:	e7f6      	b.n	1000765e <tu_fifo_write+0x66>

10007670 <tu_fifo_write_n>:
10007670:	b5f8      	push	{r3, r4, r5, r6, r7, lr}
10007672:	464e      	mov	r6, r9
10007674:	4657      	mov	r7, sl
10007676:	46de      	mov	lr, fp
10007678:	4645      	mov	r5, r8
1000767a:	4689      	mov	r9, r1
1000767c:	b5e0      	push	{r5, r6, r7, lr}
1000767e:	0006      	movs	r6, r0
10007680:	1e17      	subs	r7, r2, #0
10007682:	d059      	beq.n	10007738 <tu_fifo_write_n+0xc8>
10007684:	6940      	ldr	r0, [r0, #20]
10007686:	2800      	cmp	r0, #0
10007688:	d003      	beq.n	10007692 <tu_fifo_write_n+0x22>
1000768a:	2101      	movs	r1, #1
1000768c:	4249      	negs	r1, r1
1000768e:	f000 ff8b 	bl	100085a8 <__mutex_enter_timeout_ms_veneer>
10007692:	89f3      	ldrh	r3, [r6, #14]
10007694:	7a32      	ldrb	r2, [r6, #8]
10007696:	b29b      	uxth	r3, r3
10007698:	4698      	mov	r8, r3
1000769a:	8a31      	ldrh	r1, [r6, #16]
1000769c:	88f3      	ldrh	r3, [r6, #6]
1000769e:	88b5      	ldrh	r5, [r6, #4]
100076a0:	469a      	mov	sl, r3
100076a2:	b289      	uxth	r1, r1
100076a4:	2a00      	cmp	r2, #0
100076a6:	d139      	bne.n	1000771c <tu_fifo_write_n+0xac>
100076a8:	4643      	mov	r3, r8
100076aa:	1a5a      	subs	r2, r3, r1
100076ac:	b292      	uxth	r2, r2
100076ae:	4588      	cmp	r8, r1
100076b0:	d202      	bcs.n	100076b8 <tu_fifo_write_n+0x48>
100076b2:	8971      	ldrh	r1, [r6, #10]
100076b4:	1a52      	subs	r2, r2, r1
100076b6:	b292      	uxth	r2, r2
100076b8:	1aaa      	subs	r2, r5, r2
100076ba:	1c11      	adds	r1, r2, #0
100076bc:	b292      	uxth	r2, r2
100076be:	42ba      	cmp	r2, r7
100076c0:	d84e      	bhi.n	10007760 <tu_fifo_write_n+0xf0>
100076c2:	b28f      	uxth	r7, r1
100076c4:	1b7a      	subs	r2, r7, r5
100076c6:	b293      	uxth	r3, r2
100076c8:	469b      	mov	fp, r3
100076ca:	4644      	mov	r4, r8
100076cc:	45a8      	cmp	r8, r5
100076ce:	d303      	bcc.n	100076d8 <tu_fifo_write_n+0x68>
100076d0:	1b64      	subs	r4, r4, r5
100076d2:	b2a4      	uxth	r4, r4
100076d4:	42ac      	cmp	r4, r5
100076d6:	d2fb      	bcs.n	100076d0 <tu_fifo_write_n+0x60>
100076d8:	4653      	mov	r3, sl
100076da:	4363      	muls	r3, r4
100076dc:	6830      	ldr	r0, [r6, #0]
100076de:	1b2d      	subs	r5, r5, r4
100076e0:	b2ad      	uxth	r5, r5
100076e2:	18c0      	adds	r0, r0, r3
100076e4:	42af      	cmp	r7, r5
100076e6:	d829      	bhi.n	1000773c <tu_fifo_write_n+0xcc>
100076e8:	4652      	mov	r2, sl
100076ea:	4649      	mov	r1, r9
100076ec:	437a      	muls	r2, r7
100076ee:	f7fd fb55 	bl	10004d9c <__wrap___aeabi_memcpy>
100076f2:	4643      	mov	r3, r8
100076f4:	18fb      	adds	r3, r7, r3
100076f6:	b29b      	uxth	r3, r3
100076f8:	4598      	cmp	r8, r3
100076fa:	d819      	bhi.n	10007730 <tu_fifo_write_n+0xc0>
100076fc:	89b2      	ldrh	r2, [r6, #12]
100076fe:	429a      	cmp	r2, r3
10007700:	d316      	bcc.n	10007730 <tu_fifo_write_n+0xc0>
10007702:	6970      	ldr	r0, [r6, #20]
10007704:	81f3      	strh	r3, [r6, #14]
10007706:	2800      	cmp	r0, #0
10007708:	d001      	beq.n	1000770e <tu_fifo_write_n+0x9e>
1000770a:	f000 ff2d 	bl	10008568 <__mutex_exit_veneer>
1000770e:	0038      	movs	r0, r7
10007710:	bcf0      	pop	{r4, r5, r6, r7}
10007712:	46bb      	mov	fp, r7
10007714:	46b2      	mov	sl, r6
10007716:	46a9      	mov	r9, r5
10007718:	46a0      	mov	r8, r4
1000771a:	bdf8      	pop	{r3, r4, r5, r6, r7, pc}
1000771c:	42af      	cmp	r7, r5
1000771e:	d321      	bcc.n	10007764 <tu_fifo_write_n+0xf4>
10007720:	1b7f      	subs	r7, r7, r5
10007722:	435f      	muls	r7, r3
10007724:	2300      	movs	r3, #0
10007726:	44b9      	add	r9, r7
10007728:	4688      	mov	r8, r1
1000772a:	002f      	movs	r7, r5
1000772c:	469b      	mov	fp, r3
1000772e:	e7cc      	b.n	100076ca <tu_fifo_write_n+0x5a>
10007730:	8972      	ldrh	r2, [r6, #10]
10007732:	189b      	adds	r3, r3, r2
10007734:	b29b      	uxth	r3, r3
10007736:	e7e4      	b.n	10007702 <tu_fifo_write_n+0x92>
10007738:	2700      	movs	r7, #0
1000773a:	e7e8      	b.n	1000770e <tu_fifo_write_n+0x9e>
1000773c:	4653      	mov	r3, sl
1000773e:	435d      	muls	r5, r3
10007740:	b2ad      	uxth	r5, r5
10007742:	002a      	movs	r2, r5
10007744:	4649      	mov	r1, r9
10007746:	f7fd fb29 	bl	10004d9c <__wrap___aeabi_memcpy>
1000774a:	0022      	movs	r2, r4
1000774c:	4653      	mov	r3, sl
1000774e:	0029      	movs	r1, r5
10007750:	445a      	add	r2, fp
10007752:	435a      	muls	r2, r3
10007754:	6830      	ldr	r0, [r6, #0]
10007756:	b292      	uxth	r2, r2
10007758:	4449      	add	r1, r9
1000775a:	f7fd fb1f 	bl	10004d9c <__wrap___aeabi_memcpy>
1000775e:	e7c8      	b.n	100076f2 <tu_fifo_write_n+0x82>
10007760:	1c39      	adds	r1, r7, #0
10007762:	e7ae      	b.n	100076c2 <tu_fifo_write_n+0x52>
10007764:	1b7a      	subs	r2, r7, r5
10007766:	b293      	uxth	r3, r2
10007768:	469b      	mov	fp, r3
1000776a:	e7ae      	b.n	100076ca <tu_fifo_write_n+0x5a>

1000776c <tu_fifo_clear>:
1000776c:	b510      	push	{r4, lr}
1000776e:	0004      	movs	r4, r0
10007770:	6940      	ldr	r0, [r0, #20]
10007772:	2800      	cmp	r0, #0
10007774:	d003      	beq.n	1000777e <tu_fifo_clear+0x12>
10007776:	2101      	movs	r1, #1
10007778:	4249      	negs	r1, r1
1000777a:	f000 ff15 	bl	100085a8 <__mutex_enter_timeout_ms_veneer>
1000777e:	69a0      	ldr	r0, [r4, #24]
10007780:	2800      	cmp	r0, #0
10007782:	d003      	beq.n	1000778c <tu_fifo_clear+0x20>
10007784:	2101      	movs	r1, #1
10007786:	4249      	negs	r1, r1
10007788:	f000 ff0e 	bl	100085a8 <__mutex_enter_timeout_ms_veneer>
1000778c:	2300      	movs	r3, #0
1000778e:	81e3      	strh	r3, [r4, #14]
10007790:	8223      	strh	r3, [r4, #16]
10007792:	88a3      	ldrh	r3, [r4, #4]
10007794:	6960      	ldr	r0, [r4, #20]
10007796:	005b      	lsls	r3, r3, #1
10007798:	b29b      	uxth	r3, r3
1000779a:	1e5a      	subs	r2, r3, #1
1000779c:	425b      	negs	r3, r3
1000779e:	81a2      	strh	r2, [r4, #12]
100077a0:	8163      	strh	r3, [r4, #10]
100077a2:	2800      	cmp	r0, #0
100077a4:	d001      	beq.n	100077aa <tu_fifo_clear+0x3e>
100077a6:	f000 fedf 	bl	10008568 <__mutex_exit_veneer>
100077aa:	69a0      	ldr	r0, [r4, #24]
100077ac:	2800      	cmp	r0, #0
100077ae:	d001      	beq.n	100077b4 <tu_fifo_clear+0x48>
100077b0:	f000 feda 	bl	10008568 <__mutex_exit_veneer>
100077b4:	2001      	movs	r0, #1
100077b6:	bd10      	pop	{r4, pc}

100077b8 <tu_fifo_set_overwritable>:
100077b8:	b570      	push	{r4, r5, r6, lr}
100077ba:	0004      	movs	r4, r0
100077bc:	6940      	ldr	r0, [r0, #20]
100077be:	000d      	movs	r5, r1
100077c0:	2800      	cmp	r0, #0
100077c2:	d003      	beq.n	100077cc <tu_fifo_set_overwritable+0x14>
100077c4:	2101      	movs	r1, #1
100077c6:	4249      	negs	r1, r1
100077c8:	f000 feee 	bl	100085a8 <__mutex_enter_timeout_ms_veneer>
100077cc:	69a0      	ldr	r0, [r4, #24]
100077ce:	2800      	cmp	r0, #0
100077d0:	d003      	beq.n	100077da <tu_fifo_set_overwritable+0x22>
100077d2:	2101      	movs	r1, #1
100077d4:	4249      	negs	r1, r1
100077d6:	f000 fee7 	bl	100085a8 <__mutex_enter_timeout_ms_veneer>
100077da:	6960      	ldr	r0, [r4, #20]
100077dc:	7225      	strb	r5, [r4, #8]
100077de:	2800      	cmp	r0, #0
100077e0:	d001      	beq.n	100077e6 <tu_fifo_set_overwritable+0x2e>
100077e2:	f000 fec1 	bl	10008568 <__mutex_exit_veneer>
100077e6:	69a0      	ldr	r0, [r4, #24]
100077e8:	2800      	cmp	r0, #0
100077ea:	d001      	beq.n	100077f0 <tu_fifo_set_overwritable+0x38>
100077ec:	f000 febc 	bl	10008568 <__mutex_exit_veneer>
100077f0:	2001      	movs	r0, #1
100077f2:	bd70      	pop	{r4, r5, r6, pc}

100077f4 <_retrieve_unique_id_on_boot>:
100077f4:	b510      	push	{r4, lr}
100077f6:	4802      	ldr	r0, [pc, #8]	; (10007800 <_retrieve_unique_id_on_boot+0xc>)
100077f8:	f000 f8d8 	bl	100079ac <flash_get_unique_id>
100077fc:	bd10      	pop	{r4, pc}
100077fe:	46c0      	nop			; (mov r8, r8)
10007800:	20001a68 	.word	0x20001a68

10007804 <pico_get_unique_board_id_string>:
10007804:	b530      	push	{r4, r5, lr}
10007806:	1e4b      	subs	r3, r1, #1
10007808:	2901      	cmp	r1, #1
1000780a:	d100      	bne.n	1000780e <pico_get_unique_board_id_string+0xa>
1000780c:	e0a7      	b.n	1000795e <pico_get_unique_board_id_string+0x15a>
1000780e:	4a66      	ldr	r2, [pc, #408]	; (100079a8 <pico_get_unique_board_id_string+0x1a4>)
10007810:	7811      	ldrb	r1, [r2, #0]
10007812:	090d      	lsrs	r5, r1, #4
10007814:	002c      	movs	r4, r5
10007816:	3430      	adds	r4, #48	; 0x30
10007818:	299f      	cmp	r1, #159	; 0x9f
1000781a:	d900      	bls.n	1000781e <pico_get_unique_board_id_string+0x1a>
1000781c:	e0a2      	b.n	10007964 <pico_get_unique_board_id_string+0x160>
1000781e:	7004      	strb	r4, [r0, #0]
10007820:	2b01      	cmp	r3, #1
10007822:	d100      	bne.n	10007826 <pico_get_unique_board_id_string+0x22>
10007824:	e0be      	b.n	100079a4 <pico_get_unique_board_id_string+0x1a0>
10007826:	210f      	movs	r1, #15
10007828:	7814      	ldrb	r4, [r2, #0]
1000782a:	4021      	ands	r1, r4
1000782c:	000c      	movs	r4, r1
1000782e:	3430      	adds	r4, #48	; 0x30
10007830:	2909      	cmp	r1, #9
10007832:	d900      	bls.n	10007836 <pico_get_unique_board_id_string+0x32>
10007834:	e098      	b.n	10007968 <pico_get_unique_board_id_string+0x164>
10007836:	7044      	strb	r4, [r0, #1]
10007838:	2b02      	cmp	r3, #2
1000783a:	d100      	bne.n	1000783e <pico_get_unique_board_id_string+0x3a>
1000783c:	e0b2      	b.n	100079a4 <pico_get_unique_board_id_string+0x1a0>
1000783e:	7854      	ldrb	r4, [r2, #1]
10007840:	0925      	lsrs	r5, r4, #4
10007842:	0029      	movs	r1, r5
10007844:	3130      	adds	r1, #48	; 0x30
10007846:	2c9f      	cmp	r4, #159	; 0x9f
10007848:	d900      	bls.n	1000784c <pico_get_unique_board_id_string+0x48>
1000784a:	e090      	b.n	1000796e <pico_get_unique_board_id_string+0x16a>
1000784c:	7081      	strb	r1, [r0, #2]
1000784e:	2b03      	cmp	r3, #3
10007850:	d100      	bne.n	10007854 <pico_get_unique_board_id_string+0x50>
10007852:	e0a7      	b.n	100079a4 <pico_get_unique_board_id_string+0x1a0>
10007854:	210f      	movs	r1, #15
10007856:	4021      	ands	r1, r4
10007858:	000c      	movs	r4, r1
1000785a:	3430      	adds	r4, #48	; 0x30
1000785c:	2909      	cmp	r1, #9
1000785e:	d900      	bls.n	10007862 <pico_get_unique_board_id_string+0x5e>
10007860:	e087      	b.n	10007972 <pico_get_unique_board_id_string+0x16e>
10007862:	70c4      	strb	r4, [r0, #3]
10007864:	2b04      	cmp	r3, #4
10007866:	d100      	bne.n	1000786a <pico_get_unique_board_id_string+0x66>
10007868:	e09c      	b.n	100079a4 <pico_get_unique_board_id_string+0x1a0>
1000786a:	7894      	ldrb	r4, [r2, #2]
1000786c:	0925      	lsrs	r5, r4, #4
1000786e:	0029      	movs	r1, r5
10007870:	3130      	adds	r1, #48	; 0x30
10007872:	2c9f      	cmp	r4, #159	; 0x9f
10007874:	d900      	bls.n	10007878 <pico_get_unique_board_id_string+0x74>
10007876:	e07f      	b.n	10007978 <pico_get_unique_board_id_string+0x174>
10007878:	7101      	strb	r1, [r0, #4]
1000787a:	2b05      	cmp	r3, #5
1000787c:	d100      	bne.n	10007880 <pico_get_unique_board_id_string+0x7c>
1000787e:	e091      	b.n	100079a4 <pico_get_unique_board_id_string+0x1a0>
10007880:	210f      	movs	r1, #15
10007882:	4021      	ands	r1, r4
10007884:	000c      	movs	r4, r1
10007886:	3430      	adds	r4, #48	; 0x30
10007888:	2909      	cmp	r1, #9
1000788a:	d900      	bls.n	1000788e <pico_get_unique_board_id_string+0x8a>
1000788c:	e076      	b.n	1000797c <pico_get_unique_board_id_string+0x178>
1000788e:	7144      	strb	r4, [r0, #5]
10007890:	2b06      	cmp	r3, #6
10007892:	d100      	bne.n	10007896 <pico_get_unique_board_id_string+0x92>
10007894:	e086      	b.n	100079a4 <pico_get_unique_board_id_string+0x1a0>
10007896:	78d4      	ldrb	r4, [r2, #3]
10007898:	0925      	lsrs	r5, r4, #4
1000789a:	0029      	movs	r1, r5
1000789c:	3130      	adds	r1, #48	; 0x30
1000789e:	2c9f      	cmp	r4, #159	; 0x9f
100078a0:	d900      	bls.n	100078a4 <pico_get_unique_board_id_string+0xa0>
100078a2:	e06e      	b.n	10007982 <pico_get_unique_board_id_string+0x17e>
100078a4:	7181      	strb	r1, [r0, #6]
100078a6:	2b07      	cmp	r3, #7
100078a8:	d100      	bne.n	100078ac <pico_get_unique_board_id_string+0xa8>
100078aa:	e07b      	b.n	100079a4 <pico_get_unique_board_id_string+0x1a0>
100078ac:	210f      	movs	r1, #15
100078ae:	4021      	ands	r1, r4
100078b0:	000c      	movs	r4, r1
100078b2:	3430      	adds	r4, #48	; 0x30
100078b4:	2909      	cmp	r1, #9
100078b6:	d866      	bhi.n	10007986 <pico_get_unique_board_id_string+0x182>
100078b8:	71c4      	strb	r4, [r0, #7]
100078ba:	2b08      	cmp	r3, #8
100078bc:	d100      	bne.n	100078c0 <pico_get_unique_board_id_string+0xbc>
100078be:	e071      	b.n	100079a4 <pico_get_unique_board_id_string+0x1a0>
100078c0:	7914      	ldrb	r4, [r2, #4]
100078c2:	0925      	lsrs	r5, r4, #4
100078c4:	0029      	movs	r1, r5
100078c6:	3130      	adds	r1, #48	; 0x30
100078c8:	2c9f      	cmp	r4, #159	; 0x9f
100078ca:	d85f      	bhi.n	1000798c <pico_get_unique_board_id_string+0x188>
100078cc:	7201      	strb	r1, [r0, #8]
100078ce:	2b09      	cmp	r3, #9
100078d0:	d068      	beq.n	100079a4 <pico_get_unique_board_id_string+0x1a0>
100078d2:	210f      	movs	r1, #15
100078d4:	4021      	ands	r1, r4
100078d6:	000c      	movs	r4, r1
100078d8:	3430      	adds	r4, #48	; 0x30
100078da:	2909      	cmp	r1, #9
100078dc:	d858      	bhi.n	10007990 <pico_get_unique_board_id_string+0x18c>
100078de:	7244      	strb	r4, [r0, #9]
100078e0:	2b0a      	cmp	r3, #10
100078e2:	d05f      	beq.n	100079a4 <pico_get_unique_board_id_string+0x1a0>
100078e4:	7954      	ldrb	r4, [r2, #5]
100078e6:	0925      	lsrs	r5, r4, #4
100078e8:	0029      	movs	r1, r5
100078ea:	3130      	adds	r1, #48	; 0x30
100078ec:	2c9f      	cmp	r4, #159	; 0x9f
100078ee:	d852      	bhi.n	10007996 <pico_get_unique_board_id_string+0x192>
100078f0:	7281      	strb	r1, [r0, #10]
100078f2:	2b0b      	cmp	r3, #11
100078f4:	d056      	beq.n	100079a4 <pico_get_unique_board_id_string+0x1a0>
100078f6:	210f      	movs	r1, #15
100078f8:	4021      	ands	r1, r4
100078fa:	000c      	movs	r4, r1
100078fc:	3430      	adds	r4, #48	; 0x30
100078fe:	2909      	cmp	r1, #9
10007900:	d84b      	bhi.n	1000799a <pico_get_unique_board_id_string+0x196>
10007902:	72c4      	strb	r4, [r0, #11]
10007904:	2b0c      	cmp	r3, #12
10007906:	d04d      	beq.n	100079a4 <pico_get_unique_board_id_string+0x1a0>
10007908:	7994      	ldrb	r4, [r2, #6]
1000790a:	0925      	lsrs	r5, r4, #4
1000790c:	0029      	movs	r1, r5
1000790e:	3130      	adds	r1, #48	; 0x30
10007910:	2c9f      	cmp	r4, #159	; 0x9f
10007912:	d900      	bls.n	10007916 <pico_get_unique_board_id_string+0x112>
10007914:	3107      	adds	r1, #7
10007916:	7301      	strb	r1, [r0, #12]
10007918:	2b0d      	cmp	r3, #13
1000791a:	d043      	beq.n	100079a4 <pico_get_unique_board_id_string+0x1a0>
1000791c:	210f      	movs	r1, #15
1000791e:	4021      	ands	r1, r4
10007920:	000c      	movs	r4, r1
10007922:	3430      	adds	r4, #48	; 0x30
10007924:	2909      	cmp	r1, #9
10007926:	d901      	bls.n	1000792c <pico_get_unique_board_id_string+0x128>
10007928:	3137      	adds	r1, #55	; 0x37
1000792a:	000c      	movs	r4, r1
1000792c:	7344      	strb	r4, [r0, #13]
1000792e:	2b0e      	cmp	r3, #14
10007930:	d038      	beq.n	100079a4 <pico_get_unique_board_id_string+0x1a0>
10007932:	79d1      	ldrb	r1, [r2, #7]
10007934:	090c      	lsrs	r4, r1, #4
10007936:	0022      	movs	r2, r4
10007938:	3230      	adds	r2, #48	; 0x30
1000793a:	299f      	cmp	r1, #159	; 0x9f
1000793c:	d900      	bls.n	10007940 <pico_get_unique_board_id_string+0x13c>
1000793e:	3207      	adds	r2, #7
10007940:	7382      	strb	r2, [r0, #14]
10007942:	2b0f      	cmp	r3, #15
10007944:	d02e      	beq.n	100079a4 <pico_get_unique_board_id_string+0x1a0>
10007946:	220f      	movs	r2, #15
10007948:	400a      	ands	r2, r1
1000794a:	0011      	movs	r1, r2
1000794c:	3137      	adds	r1, #55	; 0x37
1000794e:	2a09      	cmp	r2, #9
10007950:	d801      	bhi.n	10007956 <pico_get_unique_board_id_string+0x152>
10007952:	3230      	adds	r2, #48	; 0x30
10007954:	0011      	movs	r1, r2
10007956:	73c1      	strb	r1, [r0, #15]
10007958:	2b10      	cmp	r3, #16
1000795a:	d023      	beq.n	100079a4 <pico_get_unique_board_id_string+0x1a0>
1000795c:	3010      	adds	r0, #16
1000795e:	2300      	movs	r3, #0
10007960:	7003      	strb	r3, [r0, #0]
10007962:	bd30      	pop	{r4, r5, pc}
10007964:	3407      	adds	r4, #7
10007966:	e75a      	b.n	1000781e <pico_get_unique_board_id_string+0x1a>
10007968:	3137      	adds	r1, #55	; 0x37
1000796a:	000c      	movs	r4, r1
1000796c:	e763      	b.n	10007836 <pico_get_unique_board_id_string+0x32>
1000796e:	3107      	adds	r1, #7
10007970:	e76c      	b.n	1000784c <pico_get_unique_board_id_string+0x48>
10007972:	3137      	adds	r1, #55	; 0x37
10007974:	000c      	movs	r4, r1
10007976:	e774      	b.n	10007862 <pico_get_unique_board_id_string+0x5e>
10007978:	3107      	adds	r1, #7
1000797a:	e77d      	b.n	10007878 <pico_get_unique_board_id_string+0x74>
1000797c:	3137      	adds	r1, #55	; 0x37
1000797e:	000c      	movs	r4, r1
10007980:	e785      	b.n	1000788e <pico_get_unique_board_id_string+0x8a>
10007982:	3107      	adds	r1, #7
10007984:	e78e      	b.n	100078a4 <pico_get_unique_board_id_string+0xa0>
10007986:	3137      	adds	r1, #55	; 0x37
10007988:	000c      	movs	r4, r1
1000798a:	e795      	b.n	100078b8 <pico_get_unique_board_id_string+0xb4>
1000798c:	3107      	adds	r1, #7
1000798e:	e79d      	b.n	100078cc <pico_get_unique_board_id_string+0xc8>
10007990:	3137      	adds	r1, #55	; 0x37
10007992:	000c      	movs	r4, r1
10007994:	e7a3      	b.n	100078de <pico_get_unique_board_id_string+0xda>
10007996:	3107      	adds	r1, #7
10007998:	e7aa      	b.n	100078f0 <pico_get_unique_board_id_string+0xec>
1000799a:	3137      	adds	r1, #55	; 0x37
1000799c:	000c      	movs	r4, r1
1000799e:	72c4      	strb	r4, [r0, #11]
100079a0:	2b0c      	cmp	r3, #12
100079a2:	d1b1      	bne.n	10007908 <pico_get_unique_board_id_string+0x104>
100079a4:	18c0      	adds	r0, r0, r3
100079a6:	e7da      	b.n	1000795e <pico_get_unique_board_id_string+0x15a>
100079a8:	20001a68 	.word	0x20001a68

100079ac <flash_get_unique_id>:
100079ac:	b530      	push	{r4, r5, lr}
100079ae:	2500      	movs	r5, #0
100079b0:	b089      	sub	sp, #36	; 0x24
100079b2:	0004      	movs	r4, r0
100079b4:	2209      	movs	r2, #9
100079b6:	2100      	movs	r1, #0
100079b8:	a801      	add	r0, sp, #4
100079ba:	9500      	str	r5, [sp, #0]
100079bc:	f7fd f9e8 	bl	10004d90 <__wrap_memset>
100079c0:	2209      	movs	r2, #9
100079c2:	2100      	movs	r1, #0
100079c4:	a805      	add	r0, sp, #20
100079c6:	9504      	str	r5, [sp, #16]
100079c8:	f7fd f9e2 	bl	10004d90 <__wrap_memset>
100079cc:	234b      	movs	r3, #75	; 0x4b
100079ce:	466a      	mov	r2, sp
100079d0:	4668      	mov	r0, sp
100079d2:	7013      	strb	r3, [r2, #0]
100079d4:	a904      	add	r1, sp, #16
100079d6:	220d      	movs	r2, #13
100079d8:	f000 fdbe 	bl	10008558 <__flash_do_cmd_veneer>
100079dc:	2115      	movs	r1, #21
100079de:	2208      	movs	r2, #8
100079e0:	0020      	movs	r0, r4
100079e2:	4469      	add	r1, sp
100079e4:	f7fd f9da 	bl	10004d9c <__wrap___aeabi_memcpy>
100079e8:	b009      	add	sp, #36	; 0x24
100079ea:	bd30      	pop	{r4, r5, pc}

100079ec <pio_claim_unused_sm>:
100079ec:	4b0b      	ldr	r3, [pc, #44]	; (10007a1c <pio_claim_unused_sm+0x30>)
100079ee:	b510      	push	{r4, lr}
100079f0:	469c      	mov	ip, r3
100079f2:	4460      	add	r0, ip
100079f4:	4243      	negs	r3, r0
100079f6:	4158      	adcs	r0, r3
100079f8:	4a09      	ldr	r2, [pc, #36]	; (10007a20 <pio_claim_unused_sm+0x34>)
100079fa:	0084      	lsls	r4, r0, #2
100079fc:	b082      	sub	sp, #8
100079fe:	9200      	str	r2, [sp, #0]
10007a00:	4808      	ldr	r0, [pc, #32]	; (10007a24 <pio_claim_unused_sm+0x38>)
10007a02:	0022      	movs	r2, r4
10007a04:	1ce3      	adds	r3, r4, #3
10007a06:	f7f9 f8b9 	bl	10000b7c <hw_claim_unused_from_range>
10007a0a:	4284      	cmp	r4, r0
10007a0c:	dc02      	bgt.n	10007a14 <pio_claim_unused_sm+0x28>
10007a0e:	1b00      	subs	r0, r0, r4
10007a10:	b002      	add	sp, #8
10007a12:	bd10      	pop	{r4, pc}
10007a14:	2001      	movs	r0, #1
10007a16:	4240      	negs	r0, r0
10007a18:	e7fa      	b.n	10007a10 <pio_claim_unused_sm+0x24>
10007a1a:	46c0      	nop			; (mov r8, r8)
10007a1c:	afd00000 	.word	0xafd00000
10007a20:	10008b74 	.word	0x10008b74
10007a24:	20001ab8 	.word	0x20001ab8

10007a28 <pio_add_program>:
10007a28:	b5f0      	push	{r4, r5, r6, r7, lr}
10007a2a:	46de      	mov	lr, fp
10007a2c:	4657      	mov	r7, sl
10007a2e:	464e      	mov	r6, r9
10007a30:	4645      	mov	r5, r8
10007a32:	4688      	mov	r8, r1
10007a34:	b5e0      	push	{r5, r6, r7, lr}
10007a36:	b083      	sub	sp, #12
10007a38:	0006      	movs	r6, r0
10007a3a:	2405      	movs	r4, #5
10007a3c:	f7f9 f866 	bl	10000b0c <hw_claim_lock>
10007a40:	4643      	mov	r3, r8
10007a42:	791f      	ldrb	r7, [r3, #4]
10007a44:	571c      	ldrsb	r4, [r3, r4]
10007a46:	4b31      	ldr	r3, [pc, #196]	; (10007b0c <pio_add_program+0xe4>)
10007a48:	4682      	mov	sl, r0
10007a4a:	18f3      	adds	r3, r6, r3
10007a4c:	425a      	negs	r2, r3
10007a4e:	4153      	adcs	r3, r2
10007a50:	009b      	lsls	r3, r3, #2
10007a52:	469c      	mov	ip, r3
10007a54:	4a2e      	ldr	r2, [pc, #184]	; (10007b10 <pio_add_program+0xe8>)
10007a56:	0013      	movs	r3, r2
10007a58:	4693      	mov	fp, r2
10007a5a:	4662      	mov	r2, ip
10007a5c:	589b      	ldr	r3, [r3, r2]
10007a5e:	2201      	movs	r2, #1
10007a60:	4699      	mov	r9, r3
10007a62:	40ba      	lsls	r2, r7
10007a64:	2320      	movs	r3, #32
10007a66:	3a01      	subs	r2, #1
10007a68:	1bdb      	subs	r3, r3, r7
10007a6a:	2c00      	cmp	r4, #0
10007a6c:	db36      	blt.n	10007adc <pio_add_program+0xb4>
10007a6e:	429c      	cmp	r4, r3
10007a70:	dc46      	bgt.n	10007b00 <pio_add_program+0xd8>
10007a72:	40a2      	lsls	r2, r4
10007a74:	464b      	mov	r3, r9
10007a76:	4213      	tst	r3, r2
10007a78:	d142      	bne.n	10007b00 <pio_add_program+0xd8>
10007a7a:	9201      	str	r2, [sp, #4]
10007a7c:	2f00      	cmp	r7, #0
10007a7e:	d01c      	beq.n	10007aba <pio_add_program+0x92>
10007a80:	4642      	mov	r2, r8
10007a82:	4643      	mov	r3, r8
10007a84:	7852      	ldrb	r2, [r2, #1]
10007a86:	781b      	ldrb	r3, [r3, #0]
10007a88:	0212      	lsls	r2, r2, #8
10007a8a:	431a      	orrs	r2, r3
10007a8c:	4643      	mov	r3, r8
10007a8e:	789b      	ldrb	r3, [r3, #2]
10007a90:	2580      	movs	r5, #128	; 0x80
10007a92:	041b      	lsls	r3, r3, #16
10007a94:	4313      	orrs	r3, r2
10007a96:	4642      	mov	r2, r8
10007a98:	78d0      	ldrb	r0, [r2, #3]
10007a9a:	2200      	movs	r2, #0
10007a9c:	0600      	lsls	r0, r0, #24
10007a9e:	4318      	orrs	r0, r3
10007aa0:	01ad      	lsls	r5, r5, #6
10007aa2:	0053      	lsls	r3, r2, #1
10007aa4:	5ac1      	ldrh	r1, [r0, r3]
10007aa6:	42a9      	cmp	r1, r5
10007aa8:	d200      	bcs.n	10007aac <pio_add_program+0x84>
10007aaa:	1909      	adds	r1, r1, r4
10007aac:	18a3      	adds	r3, r4, r2
10007aae:	3312      	adds	r3, #18
10007ab0:	009b      	lsls	r3, r3, #2
10007ab2:	3201      	adds	r2, #1
10007ab4:	5199      	str	r1, [r3, r6]
10007ab6:	42ba      	cmp	r2, r7
10007ab8:	d3f3      	bcc.n	10007aa2 <pio_add_program+0x7a>
10007aba:	464d      	mov	r5, r9
10007abc:	9b01      	ldr	r3, [sp, #4]
10007abe:	4662      	mov	r2, ip
10007ac0:	431d      	orrs	r5, r3
10007ac2:	465b      	mov	r3, fp
10007ac4:	4650      	mov	r0, sl
10007ac6:	509d      	str	r5, [r3, r2]
10007ac8:	f7f9 f82c 	bl	10000b24 <hw_claim_unlock>
10007acc:	0020      	movs	r0, r4
10007ace:	b003      	add	sp, #12
10007ad0:	bcf0      	pop	{r4, r5, r6, r7}
10007ad2:	46bb      	mov	fp, r7
10007ad4:	46b2      	mov	sl, r6
10007ad6:	46a9      	mov	r9, r5
10007ad8:	46a0      	mov	r8, r4
10007ada:	bdf0      	pop	{r4, r5, r6, r7, pc}
10007adc:	2b00      	cmp	r3, #0
10007ade:	db0f      	blt.n	10007b00 <pio_add_program+0xd8>
10007ae0:	0011      	movs	r1, r2
10007ae2:	4648      	mov	r0, r9
10007ae4:	4099      	lsls	r1, r3
10007ae6:	001c      	movs	r4, r3
10007ae8:	9101      	str	r1, [sp, #4]
10007aea:	4201      	tst	r1, r0
10007aec:	d106      	bne.n	10007afc <pio_add_program+0xd4>
10007aee:	e7c5      	b.n	10007a7c <pio_add_program+0x54>
10007af0:	0015      	movs	r5, r2
10007af2:	4649      	mov	r1, r9
10007af4:	409d      	lsls	r5, r3
10007af6:	001c      	movs	r4, r3
10007af8:	4229      	tst	r1, r5
10007afa:	d004      	beq.n	10007b06 <pio_add_program+0xde>
10007afc:	3b01      	subs	r3, #1
10007afe:	d2f7      	bcs.n	10007af0 <pio_add_program+0xc8>
10007b00:	4804      	ldr	r0, [pc, #16]	; (10007b14 <pio_add_program+0xec>)
10007b02:	f7fa fb6f 	bl	100021e4 <panic>
10007b06:	9501      	str	r5, [sp, #4]
10007b08:	e7b8      	b.n	10007a7c <pio_add_program+0x54>
10007b0a:	46c0      	nop			; (mov r8, r8)
10007b0c:	afd00000 	.word	0xafd00000
10007b10:	20001488 	.word	0x20001488
10007b14:	10008b98 	.word	0x10008b98

10007b18 <pio_sm_init>:
10007b18:	b5f0      	push	{r4, r5, r6, r7, lr}
10007b1a:	2501      	movs	r5, #1
10007b1c:	408d      	lsls	r5, r1
10007b1e:	6804      	ldr	r4, [r0, #0]
10007b20:	43ac      	bics	r4, r5
10007b22:	6004      	str	r4, [r0, #0]
10007b24:	2b00      	cmp	r3, #0
10007b26:	d030      	beq.n	10007b8a <pio_sm_init+0x72>
10007b28:	004d      	lsls	r5, r1, #1
10007b2a:	186c      	adds	r4, r5, r1
10007b2c:	00e4      	lsls	r4, r4, #3
10007b2e:	1904      	adds	r4, r0, r4
10007b30:	0026      	movs	r6, r4
10007b32:	681f      	ldr	r7, [r3, #0]
10007b34:	36c8      	adds	r6, #200	; 0xc8
10007b36:	6037      	str	r7, [r6, #0]
10007b38:	685f      	ldr	r7, [r3, #4]
10007b3a:	34dc      	adds	r4, #220	; 0xdc
10007b3c:	6077      	str	r7, [r6, #4]
10007b3e:	689f      	ldr	r7, [r3, #8]
10007b40:	68db      	ldr	r3, [r3, #12]
10007b42:	60b7      	str	r7, [r6, #8]
10007b44:	6023      	str	r3, [r4, #0]
10007b46:	186b      	adds	r3, r5, r1
10007b48:	00db      	lsls	r3, r3, #3
10007b4a:	001d      	movs	r5, r3
10007b4c:	2480      	movs	r4, #128	; 0x80
10007b4e:	35d0      	adds	r5, #208	; 0xd0
10007b50:	1945      	adds	r5, r0, r5
10007b52:	0164      	lsls	r4, r4, #5
10007b54:	432c      	orrs	r4, r5
10007b56:	2580      	movs	r5, #128	; 0x80
10007b58:	062d      	lsls	r5, r5, #24
10007b5a:	6025      	str	r5, [r4, #0]
10007b5c:	6025      	str	r5, [r4, #0]
10007b5e:	4c14      	ldr	r4, [pc, #80]	; (10007bb0 <pio_sm_init+0x98>)
10007b60:	1d0d      	adds	r5, r1, #4
10007b62:	408c      	lsls	r4, r1
10007b64:	6084      	str	r4, [r0, #8]
10007b66:	2401      	movs	r4, #1
10007b68:	0027      	movs	r7, r4
10007b6a:	40af      	lsls	r7, r5
10007b6c:	003d      	movs	r5, r7
10007b6e:	3108      	adds	r1, #8
10007b70:	408c      	lsls	r4, r1
10007b72:	211f      	movs	r1, #31
10007b74:	6806      	ldr	r6, [r0, #0]
10007b76:	400a      	ands	r2, r1
10007b78:	4335      	orrs	r5, r6
10007b7a:	6005      	str	r5, [r0, #0]
10007b7c:	6805      	ldr	r5, [r0, #0]
10007b7e:	432c      	orrs	r4, r5
10007b80:	6004      	str	r4, [r0, #0]
10007b82:	18c0      	adds	r0, r0, r3
10007b84:	30d8      	adds	r0, #216	; 0xd8
10007b86:	6002      	str	r2, [r0, #0]
10007b88:	bdf0      	pop	{r4, r5, r6, r7, pc}
10007b8a:	004d      	lsls	r5, r1, #1
10007b8c:	186c      	adds	r4, r5, r1
10007b8e:	00e4      	lsls	r4, r4, #3
10007b90:	1904      	adds	r4, r0, r4
10007b92:	0026      	movs	r6, r4
10007b94:	2780      	movs	r7, #128	; 0x80
10007b96:	36c8      	adds	r6, #200	; 0xc8
10007b98:	027f      	lsls	r7, r7, #9
10007b9a:	6037      	str	r7, [r6, #0]
10007b9c:	27f8      	movs	r7, #248	; 0xf8
10007b9e:	027f      	lsls	r7, r7, #9
10007ba0:	6077      	str	r7, [r6, #4]
10007ba2:	27c0      	movs	r7, #192	; 0xc0
10007ba4:	34dc      	adds	r4, #220	; 0xdc
10007ba6:	033f      	lsls	r7, r7, #12
10007ba8:	60b7      	str	r7, [r6, #8]
10007baa:	6023      	str	r3, [r4, #0]
10007bac:	e7cb      	b.n	10007b46 <pio_sm_init+0x2e>
10007bae:	46c0      	nop			; (mov r8, r8)
10007bb0:	01010101 	.word	0x01010101

10007bb4 <atexit>:
10007bb4:	b510      	push	{r4, lr}
10007bb6:	0001      	movs	r1, r0
10007bb8:	2300      	movs	r3, #0
10007bba:	2200      	movs	r2, #0
10007bbc:	2000      	movs	r0, #0
10007bbe:	f000 fb29 	bl	10008214 <__register_exitproc>
10007bc2:	bd10      	pop	{r4, pc}

10007bc4 <__libc_fini_array>:
10007bc4:	b570      	push	{r4, r5, r6, lr}
10007bc6:	4c07      	ldr	r4, [pc, #28]	; (10007be4 <__libc_fini_array+0x20>)
10007bc8:	4d07      	ldr	r5, [pc, #28]	; (10007be8 <__libc_fini_array+0x24>)
10007bca:	1b64      	subs	r4, r4, r5
10007bcc:	10a4      	asrs	r4, r4, #2
10007bce:	d005      	beq.n	10007bdc <__libc_fini_array+0x18>
10007bd0:	3c01      	subs	r4, #1
10007bd2:	00a3      	lsls	r3, r4, #2
10007bd4:	58eb      	ldr	r3, [r5, r3]
10007bd6:	4798      	blx	r3
10007bd8:	2c00      	cmp	r4, #0
10007bda:	d1f9      	bne.n	10007bd0 <__libc_fini_array+0xc>
10007bdc:	f000 fcb8 	bl	10008550 <_fini>
10007be0:	bd70      	pop	{r4, r5, r6, pc}
10007be2:	46c0      	nop			; (mov r8, r8)
10007be4:	20000cbc 	.word	0x20000cbc
10007be8:	20000cbc 	.word	0x20000cbc

10007bec <malloc>:
10007bec:	b510      	push	{r4, lr}
10007bee:	4b03      	ldr	r3, [pc, #12]	; (10007bfc <malloc+0x10>)
10007bf0:	0001      	movs	r1, r0
10007bf2:	6818      	ldr	r0, [r3, #0]
10007bf4:	f000 f804 	bl	10007c00 <_malloc_r>
10007bf8:	bd10      	pop	{r4, pc}
10007bfa:	46c0      	nop			; (mov r8, r8)
10007bfc:	20000450 	.word	0x20000450

10007c00 <_malloc_r>:
10007c00:	b5f0      	push	{r4, r5, r6, r7, lr}
10007c02:	464e      	mov	r6, r9
10007c04:	4645      	mov	r5, r8
10007c06:	46de      	mov	lr, fp
10007c08:	4657      	mov	r7, sl
10007c0a:	b5e0      	push	{r5, r6, r7, lr}
10007c0c:	000d      	movs	r5, r1
10007c0e:	350b      	adds	r5, #11
10007c10:	0006      	movs	r6, r0
10007c12:	b083      	sub	sp, #12
10007c14:	2d16      	cmp	r5, #22
10007c16:	d821      	bhi.n	10007c5c <_malloc_r+0x5c>
10007c18:	2910      	cmp	r1, #16
10007c1a:	d900      	bls.n	10007c1e <_malloc_r+0x1e>
10007c1c:	e09f      	b.n	10007d5e <_malloc_r+0x15e>
10007c1e:	f000 faa9 	bl	10008174 <__malloc_lock>
10007c22:	2510      	movs	r5, #16
10007c24:	2318      	movs	r3, #24
10007c26:	2102      	movs	r1, #2
10007c28:	4fc7      	ldr	r7, [pc, #796]	; (10007f48 <_malloc_r+0x348>)
10007c2a:	18fb      	adds	r3, r7, r3
10007c2c:	001a      	movs	r2, r3
10007c2e:	685c      	ldr	r4, [r3, #4]
10007c30:	3a08      	subs	r2, #8
10007c32:	4294      	cmp	r4, r2
10007c34:	d100      	bne.n	10007c38 <_malloc_r+0x38>
10007c36:	e0a2      	b.n	10007d7e <_malloc_r+0x17e>
10007c38:	2203      	movs	r2, #3
10007c3a:	6863      	ldr	r3, [r4, #4]
10007c3c:	4393      	bics	r3, r2
10007c3e:	68e2      	ldr	r2, [r4, #12]
10007c40:	68a1      	ldr	r1, [r4, #8]
10007c42:	60ca      	str	r2, [r1, #12]
10007c44:	6091      	str	r1, [r2, #8]
10007c46:	2101      	movs	r1, #1
10007c48:	18e3      	adds	r3, r4, r3
10007c4a:	685a      	ldr	r2, [r3, #4]
10007c4c:	0030      	movs	r0, r6
10007c4e:	430a      	orrs	r2, r1
10007c50:	605a      	str	r2, [r3, #4]
10007c52:	f000 fa97 	bl	10008184 <__malloc_unlock>
10007c56:	0020      	movs	r0, r4
10007c58:	3008      	adds	r0, #8
10007c5a:	e083      	b.n	10007d64 <_malloc_r+0x164>
10007c5c:	2307      	movs	r3, #7
10007c5e:	439d      	bics	r5, r3
10007c60:	d47d      	bmi.n	10007d5e <_malloc_r+0x15e>
10007c62:	42a9      	cmp	r1, r5
10007c64:	d87b      	bhi.n	10007d5e <_malloc_r+0x15e>
10007c66:	f000 fa85 	bl	10008174 <__malloc_lock>
10007c6a:	23fc      	movs	r3, #252	; 0xfc
10007c6c:	005b      	lsls	r3, r3, #1
10007c6e:	429d      	cmp	r5, r3
10007c70:	d200      	bcs.n	10007c74 <_malloc_r+0x74>
10007c72:	e1a2      	b.n	10007fba <_malloc_r+0x3ba>
10007c74:	0a69      	lsrs	r1, r5, #9
10007c76:	d100      	bne.n	10007c7a <_malloc_r+0x7a>
10007c78:	e07b      	b.n	10007d72 <_malloc_r+0x172>
10007c7a:	2904      	cmp	r1, #4
10007c7c:	d900      	bls.n	10007c80 <_malloc_r+0x80>
10007c7e:	e157      	b.n	10007f30 <_malloc_r+0x330>
10007c80:	2338      	movs	r3, #56	; 0x38
10007c82:	4698      	mov	r8, r3
10007c84:	09a9      	lsrs	r1, r5, #6
10007c86:	4488      	add	r8, r1
10007c88:	3139      	adds	r1, #57	; 0x39
10007c8a:	00c8      	lsls	r0, r1, #3
10007c8c:	4fae      	ldr	r7, [pc, #696]	; (10007f48 <_malloc_r+0x348>)
10007c8e:	1838      	adds	r0, r7, r0
10007c90:	6844      	ldr	r4, [r0, #4]
10007c92:	3808      	subs	r0, #8
10007c94:	42a0      	cmp	r0, r4
10007c96:	d00e      	beq.n	10007cb6 <_malloc_r+0xb6>
10007c98:	2303      	movs	r3, #3
10007c9a:	469c      	mov	ip, r3
10007c9c:	e004      	b.n	10007ca8 <_malloc_r+0xa8>
10007c9e:	2a00      	cmp	r2, #0
10007ca0:	dacd      	bge.n	10007c3e <_malloc_r+0x3e>
10007ca2:	68e4      	ldr	r4, [r4, #12]
10007ca4:	42a0      	cmp	r0, r4
10007ca6:	d006      	beq.n	10007cb6 <_malloc_r+0xb6>
10007ca8:	4662      	mov	r2, ip
10007caa:	6863      	ldr	r3, [r4, #4]
10007cac:	4393      	bics	r3, r2
10007cae:	1b5a      	subs	r2, r3, r5
10007cb0:	2a0f      	cmp	r2, #15
10007cb2:	ddf4      	ble.n	10007c9e <_malloc_r+0x9e>
10007cb4:	4641      	mov	r1, r8
10007cb6:	003a      	movs	r2, r7
10007cb8:	693c      	ldr	r4, [r7, #16]
10007cba:	3208      	adds	r2, #8
10007cbc:	4294      	cmp	r4, r2
10007cbe:	d068      	beq.n	10007d92 <_malloc_r+0x192>
10007cc0:	2003      	movs	r0, #3
10007cc2:	6863      	ldr	r3, [r4, #4]
10007cc4:	4383      	bics	r3, r0
10007cc6:	4699      	mov	r9, r3
10007cc8:	1b58      	subs	r0, r3, r5
10007cca:	280f      	cmp	r0, #15
10007ccc:	dd00      	ble.n	10007cd0 <_malloc_r+0xd0>
10007cce:	e178      	b.n	10007fc2 <_malloc_r+0x3c2>
10007cd0:	617a      	str	r2, [r7, #20]
10007cd2:	613a      	str	r2, [r7, #16]
10007cd4:	2800      	cmp	r0, #0
10007cd6:	dab6      	bge.n	10007c46 <_malloc_r+0x46>
10007cd8:	2280      	movs	r2, #128	; 0x80
10007cda:	0092      	lsls	r2, r2, #2
10007cdc:	4293      	cmp	r3, r2
10007cde:	d300      	bcc.n	10007ce2 <_malloc_r+0xe2>
10007ce0:	e0fe      	b.n	10007ee0 <_malloc_r+0x2e0>
10007ce2:	0958      	lsrs	r0, r3, #5
10007ce4:	08da      	lsrs	r2, r3, #3
10007ce6:	2301      	movs	r3, #1
10007ce8:	4083      	lsls	r3, r0
10007cea:	00d2      	lsls	r2, r2, #3
10007cec:	6878      	ldr	r0, [r7, #4]
10007cee:	19d2      	adds	r2, r2, r7
10007cf0:	4303      	orrs	r3, r0
10007cf2:	6890      	ldr	r0, [r2, #8]
10007cf4:	607b      	str	r3, [r7, #4]
10007cf6:	60e2      	str	r2, [r4, #12]
10007cf8:	60a0      	str	r0, [r4, #8]
10007cfa:	6094      	str	r4, [r2, #8]
10007cfc:	60c4      	str	r4, [r0, #12]
10007cfe:	2001      	movs	r0, #1
10007d00:	108a      	asrs	r2, r1, #2
10007d02:	4090      	lsls	r0, r2
10007d04:	4298      	cmp	r0, r3
10007d06:	d84a      	bhi.n	10007d9e <_malloc_r+0x19e>
10007d08:	4203      	tst	r3, r0
10007d0a:	d105      	bne.n	10007d18 <_malloc_r+0x118>
10007d0c:	2203      	movs	r2, #3
10007d0e:	4391      	bics	r1, r2
10007d10:	0040      	lsls	r0, r0, #1
10007d12:	3104      	adds	r1, #4
10007d14:	4203      	tst	r3, r0
10007d16:	d0fb      	beq.n	10007d10 <_malloc_r+0x110>
10007d18:	2303      	movs	r3, #3
10007d1a:	4698      	mov	r8, r3
10007d1c:	00cb      	lsls	r3, r1, #3
10007d1e:	4699      	mov	r9, r3
10007d20:	44b9      	add	r9, r7
10007d22:	46cc      	mov	ip, r9
10007d24:	468a      	mov	sl, r1
10007d26:	4663      	mov	r3, ip
10007d28:	68db      	ldr	r3, [r3, #12]
10007d2a:	e00b      	b.n	10007d44 <_malloc_r+0x144>
10007d2c:	4644      	mov	r4, r8
10007d2e:	685a      	ldr	r2, [r3, #4]
10007d30:	469b      	mov	fp, r3
10007d32:	43a2      	bics	r2, r4
10007d34:	68db      	ldr	r3, [r3, #12]
10007d36:	1b54      	subs	r4, r2, r5
10007d38:	2c0f      	cmp	r4, #15
10007d3a:	dd00      	ble.n	10007d3e <_malloc_r+0x13e>
10007d3c:	e114      	b.n	10007f68 <_malloc_r+0x368>
10007d3e:	2c00      	cmp	r4, #0
10007d40:	db00      	blt.n	10007d44 <_malloc_r+0x144>
10007d42:	e12b      	b.n	10007f9c <_malloc_r+0x39c>
10007d44:	459c      	cmp	ip, r3
10007d46:	d1f1      	bne.n	10007d2c <_malloc_r+0x12c>
10007d48:	2308      	movs	r3, #8
10007d4a:	469b      	mov	fp, r3
10007d4c:	3b07      	subs	r3, #7
10007d4e:	44dc      	add	ip, fp
10007d50:	469b      	mov	fp, r3
10007d52:	44da      	add	sl, fp
10007d54:	4643      	mov	r3, r8
10007d56:	4652      	mov	r2, sl
10007d58:	4213      	tst	r3, r2
10007d5a:	d1e4      	bne.n	10007d26 <_malloc_r+0x126>
10007d5c:	e16b      	b.n	10008036 <_malloc_r+0x436>
10007d5e:	230c      	movs	r3, #12
10007d60:	2000      	movs	r0, #0
10007d62:	6033      	str	r3, [r6, #0]
10007d64:	b003      	add	sp, #12
10007d66:	bcf0      	pop	{r4, r5, r6, r7}
10007d68:	46bb      	mov	fp, r7
10007d6a:	46b2      	mov	sl, r6
10007d6c:	46a9      	mov	r9, r5
10007d6e:	46a0      	mov	r8, r4
10007d70:	bdf0      	pop	{r4, r5, r6, r7, pc}
10007d72:	2080      	movs	r0, #128	; 0x80
10007d74:	233f      	movs	r3, #63	; 0x3f
10007d76:	2140      	movs	r1, #64	; 0x40
10007d78:	4698      	mov	r8, r3
10007d7a:	0080      	lsls	r0, r0, #2
10007d7c:	e786      	b.n	10007c8c <_malloc_r+0x8c>
10007d7e:	68dc      	ldr	r4, [r3, #12]
10007d80:	3102      	adds	r1, #2
10007d82:	42a3      	cmp	r3, r4
10007d84:	d000      	beq.n	10007d88 <_malloc_r+0x188>
10007d86:	e757      	b.n	10007c38 <_malloc_r+0x38>
10007d88:	003a      	movs	r2, r7
10007d8a:	693c      	ldr	r4, [r7, #16]
10007d8c:	3208      	adds	r2, #8
10007d8e:	4294      	cmp	r4, r2
10007d90:	d196      	bne.n	10007cc0 <_malloc_r+0xc0>
10007d92:	2001      	movs	r0, #1
10007d94:	687b      	ldr	r3, [r7, #4]
10007d96:	108a      	asrs	r2, r1, #2
10007d98:	4090      	lsls	r0, r2
10007d9a:	4298      	cmp	r0, r3
10007d9c:	d9b4      	bls.n	10007d08 <_malloc_r+0x108>
10007d9e:	2203      	movs	r2, #3
10007da0:	68bc      	ldr	r4, [r7, #8]
10007da2:	6863      	ldr	r3, [r4, #4]
10007da4:	4393      	bics	r3, r2
10007da6:	469a      	mov	sl, r3
10007da8:	429d      	cmp	r5, r3
10007daa:	d803      	bhi.n	10007db4 <_malloc_r+0x1b4>
10007dac:	1b5b      	subs	r3, r3, r5
10007dae:	2b0f      	cmp	r3, #15
10007db0:	dd00      	ble.n	10007db4 <_malloc_r+0x1b4>
10007db2:	e087      	b.n	10007ec4 <_malloc_r+0x2c4>
10007db4:	0023      	movs	r3, r4
10007db6:	4453      	add	r3, sl
10007db8:	4a64      	ldr	r2, [pc, #400]	; (10007f4c <_malloc_r+0x34c>)
10007dba:	9301      	str	r3, [sp, #4]
10007dbc:	4b64      	ldr	r3, [pc, #400]	; (10007f50 <_malloc_r+0x350>)
10007dbe:	4690      	mov	r8, r2
10007dc0:	681b      	ldr	r3, [r3, #0]
10007dc2:	6812      	ldr	r2, [r2, #0]
10007dc4:	18eb      	adds	r3, r5, r3
10007dc6:	3201      	adds	r2, #1
10007dc8:	d100      	bne.n	10007dcc <_malloc_r+0x1cc>
10007dca:	e149      	b.n	10008060 <_malloc_r+0x460>
10007dcc:	4a61      	ldr	r2, [pc, #388]	; (10007f54 <_malloc_r+0x354>)
10007dce:	4694      	mov	ip, r2
10007dd0:	4463      	add	r3, ip
10007dd2:	0b1b      	lsrs	r3, r3, #12
10007dd4:	031b      	lsls	r3, r3, #12
10007dd6:	9300      	str	r3, [sp, #0]
10007dd8:	0030      	movs	r0, r6
10007dda:	9900      	ldr	r1, [sp, #0]
10007ddc:	f000 f9da 	bl	10008194 <_sbrk_r>
10007de0:	0003      	movs	r3, r0
10007de2:	4681      	mov	r9, r0
10007de4:	3301      	adds	r3, #1
10007de6:	d100      	bne.n	10007dea <_malloc_r+0x1ea>
10007de8:	e106      	b.n	10007ff8 <_malloc_r+0x3f8>
10007dea:	9b01      	ldr	r3, [sp, #4]
10007dec:	4283      	cmp	r3, r0
10007dee:	d900      	bls.n	10007df2 <_malloc_r+0x1f2>
10007df0:	e100      	b.n	10007ff4 <_malloc_r+0x3f4>
10007df2:	4b59      	ldr	r3, [pc, #356]	; (10007f58 <_malloc_r+0x358>)
10007df4:	9800      	ldr	r0, [sp, #0]
10007df6:	469b      	mov	fp, r3
10007df8:	4684      	mov	ip, r0
10007dfa:	4659      	mov	r1, fp
10007dfc:	681b      	ldr	r3, [r3, #0]
10007dfe:	4463      	add	r3, ip
10007e00:	600b      	str	r3, [r1, #0]
10007e02:	9901      	ldr	r1, [sp, #4]
10007e04:	001a      	movs	r2, r3
10007e06:	4549      	cmp	r1, r9
10007e08:	d100      	bne.n	10007e0c <_malloc_r+0x20c>
10007e0a:	e15f      	b.n	100080cc <_malloc_r+0x4cc>
10007e0c:	4643      	mov	r3, r8
10007e0e:	681b      	ldr	r3, [r3, #0]
10007e10:	3301      	adds	r3, #1
10007e12:	d100      	bne.n	10007e16 <_malloc_r+0x216>
10007e14:	e164      	b.n	100080e0 <_malloc_r+0x4e0>
10007e16:	464b      	mov	r3, r9
10007e18:	9901      	ldr	r1, [sp, #4]
10007e1a:	1a5b      	subs	r3, r3, r1
10007e1c:	189b      	adds	r3, r3, r2
10007e1e:	465a      	mov	r2, fp
10007e20:	6013      	str	r3, [r2, #0]
10007e22:	2307      	movs	r3, #7
10007e24:	464a      	mov	r2, r9
10007e26:	4649      	mov	r1, r9
10007e28:	401a      	ands	r2, r3
10007e2a:	9201      	str	r2, [sp, #4]
10007e2c:	4219      	tst	r1, r3
10007e2e:	d100      	bne.n	10007e32 <_malloc_r+0x232>
10007e30:	e120      	b.n	10008074 <_malloc_r+0x474>
10007e32:	1a8b      	subs	r3, r1, r2
10007e34:	2108      	movs	r1, #8
10007e36:	4689      	mov	r9, r1
10007e38:	9900      	ldr	r1, [sp, #0]
10007e3a:	4499      	add	r9, r3
10007e3c:	4b47      	ldr	r3, [pc, #284]	; (10007f5c <_malloc_r+0x35c>)
10007e3e:	4449      	add	r1, r9
10007e40:	1a9b      	subs	r3, r3, r2
10007e42:	1a5b      	subs	r3, r3, r1
10007e44:	051b      	lsls	r3, r3, #20
10007e46:	0d1b      	lsrs	r3, r3, #20
10007e48:	9100      	str	r1, [sp, #0]
10007e4a:	0030      	movs	r0, r6
10007e4c:	0019      	movs	r1, r3
10007e4e:	4698      	mov	r8, r3
10007e50:	f000 f9a0 	bl	10008194 <_sbrk_r>
10007e54:	1c43      	adds	r3, r0, #1
10007e56:	d100      	bne.n	10007e5a <_malloc_r+0x25a>
10007e58:	e15e      	b.n	10008118 <_malloc_r+0x518>
10007e5a:	464b      	mov	r3, r9
10007e5c:	1ac0      	subs	r0, r0, r3
10007e5e:	0003      	movs	r3, r0
10007e60:	4443      	add	r3, r8
10007e62:	9300      	str	r3, [sp, #0]
10007e64:	465b      	mov	r3, fp
10007e66:	465a      	mov	r2, fp
10007e68:	681b      	ldr	r3, [r3, #0]
10007e6a:	2001      	movs	r0, #1
10007e6c:	4443      	add	r3, r8
10007e6e:	6013      	str	r3, [r2, #0]
10007e70:	464a      	mov	r2, r9
10007e72:	4649      	mov	r1, r9
10007e74:	60ba      	str	r2, [r7, #8]
10007e76:	9a00      	ldr	r2, [sp, #0]
10007e78:	4302      	orrs	r2, r0
10007e7a:	604a      	str	r2, [r1, #4]
10007e7c:	42bc      	cmp	r4, r7
10007e7e:	d100      	bne.n	10007e82 <_malloc_r+0x282>
10007e80:	e132      	b.n	100080e8 <_malloc_r+0x4e8>
10007e82:	4652      	mov	r2, sl
10007e84:	2a0f      	cmp	r2, #15
10007e86:	d800      	bhi.n	10007e8a <_malloc_r+0x28a>
10007e88:	e130      	b.n	100080ec <_malloc_r+0x4ec>
10007e8a:	2107      	movs	r1, #7
10007e8c:	3a0c      	subs	r2, #12
10007e8e:	438a      	bics	r2, r1
10007e90:	6861      	ldr	r1, [r4, #4]
10007e92:	4001      	ands	r1, r0
10007e94:	2005      	movs	r0, #5
10007e96:	4311      	orrs	r1, r2
10007e98:	6061      	str	r1, [r4, #4]
10007e9a:	18a1      	adds	r1, r4, r2
10007e9c:	6048      	str	r0, [r1, #4]
10007e9e:	6088      	str	r0, [r1, #8]
10007ea0:	2a0f      	cmp	r2, #15
10007ea2:	d900      	bls.n	10007ea6 <_malloc_r+0x2a6>
10007ea4:	e143      	b.n	1000812e <_malloc_r+0x52e>
10007ea6:	464a      	mov	r2, r9
10007ea8:	464c      	mov	r4, r9
10007eaa:	6852      	ldr	r2, [r2, #4]
10007eac:	492c      	ldr	r1, [pc, #176]	; (10007f60 <_malloc_r+0x360>)
10007eae:	6808      	ldr	r0, [r1, #0]
10007eb0:	4298      	cmp	r0, r3
10007eb2:	d200      	bcs.n	10007eb6 <_malloc_r+0x2b6>
10007eb4:	600b      	str	r3, [r1, #0]
10007eb6:	492b      	ldr	r1, [pc, #172]	; (10007f64 <_malloc_r+0x364>)
10007eb8:	6808      	ldr	r0, [r1, #0]
10007eba:	4298      	cmp	r0, r3
10007ebc:	d300      	bcc.n	10007ec0 <_malloc_r+0x2c0>
10007ebe:	e09d      	b.n	10007ffc <_malloc_r+0x3fc>
10007ec0:	600b      	str	r3, [r1, #0]
10007ec2:	e09b      	b.n	10007ffc <_malloc_r+0x3fc>
10007ec4:	2201      	movs	r2, #1
10007ec6:	0029      	movs	r1, r5
10007ec8:	4313      	orrs	r3, r2
10007eca:	4311      	orrs	r1, r2
10007ecc:	1965      	adds	r5, r4, r5
10007ece:	6061      	str	r1, [r4, #4]
10007ed0:	0030      	movs	r0, r6
10007ed2:	60bd      	str	r5, [r7, #8]
10007ed4:	606b      	str	r3, [r5, #4]
10007ed6:	f000 f955 	bl	10008184 <__malloc_unlock>
10007eda:	0020      	movs	r0, r4
10007edc:	3008      	adds	r0, #8
10007ede:	e741      	b.n	10007d64 <_malloc_r+0x164>
10007ee0:	0a5a      	lsrs	r2, r3, #9
10007ee2:	2a04      	cmp	r2, #4
10007ee4:	d800      	bhi.n	10007ee8 <_malloc_r+0x2e8>
10007ee6:	e07f      	b.n	10007fe8 <_malloc_r+0x3e8>
10007ee8:	2a14      	cmp	r2, #20
10007eea:	d900      	bls.n	10007eee <_malloc_r+0x2ee>
10007eec:	e0d2      	b.n	10008094 <_malloc_r+0x494>
10007eee:	0010      	movs	r0, r2
10007ef0:	325c      	adds	r2, #92	; 0x5c
10007ef2:	305b      	adds	r0, #91	; 0x5b
10007ef4:	00d2      	lsls	r2, r2, #3
10007ef6:	2308      	movs	r3, #8
10007ef8:	425b      	negs	r3, r3
10007efa:	469c      	mov	ip, r3
10007efc:	18ba      	adds	r2, r7, r2
10007efe:	4494      	add	ip, r2
10007f00:	4663      	mov	r3, ip
10007f02:	689a      	ldr	r2, [r3, #8]
10007f04:	2303      	movs	r3, #3
10007f06:	4698      	mov	r8, r3
10007f08:	4594      	cmp	ip, r2
10007f0a:	d100      	bne.n	10007f0e <_malloc_r+0x30e>
10007f0c:	e0ab      	b.n	10008066 <_malloc_r+0x466>
10007f0e:	4643      	mov	r3, r8
10007f10:	6850      	ldr	r0, [r2, #4]
10007f12:	4398      	bics	r0, r3
10007f14:	4548      	cmp	r0, r9
10007f16:	d902      	bls.n	10007f1e <_malloc_r+0x31e>
10007f18:	6892      	ldr	r2, [r2, #8]
10007f1a:	4594      	cmp	ip, r2
10007f1c:	d1f7      	bne.n	10007f0e <_malloc_r+0x30e>
10007f1e:	68d3      	ldr	r3, [r2, #12]
10007f20:	469c      	mov	ip, r3
10007f22:	687b      	ldr	r3, [r7, #4]
10007f24:	4660      	mov	r0, ip
10007f26:	60a2      	str	r2, [r4, #8]
10007f28:	60e0      	str	r0, [r4, #12]
10007f2a:	6084      	str	r4, [r0, #8]
10007f2c:	60d4      	str	r4, [r2, #12]
10007f2e:	e6e6      	b.n	10007cfe <_malloc_r+0xfe>
10007f30:	2914      	cmp	r1, #20
10007f32:	d970      	bls.n	10008016 <_malloc_r+0x416>
10007f34:	2954      	cmp	r1, #84	; 0x54
10007f36:	d900      	bls.n	10007f3a <_malloc_r+0x33a>
10007f38:	e0b4      	b.n	100080a4 <_malloc_r+0x4a4>
10007f3a:	236e      	movs	r3, #110	; 0x6e
10007f3c:	4698      	mov	r8, r3
10007f3e:	0b29      	lsrs	r1, r5, #12
10007f40:	4488      	add	r8, r1
10007f42:	316f      	adds	r1, #111	; 0x6f
10007f44:	00c8      	lsls	r0, r1, #3
10007f46:	e6a1      	b.n	10007c8c <_malloc_r+0x8c>
10007f48:	20000880 	.word	0x20000880
10007f4c:	20000c88 	.word	0x20000c88
10007f50:	20001030 	.word	0x20001030
10007f54:	0000100f 	.word	0x0000100f
10007f58:	20001000 	.word	0x20001000
10007f5c:	00001008 	.word	0x00001008
10007f60:	20001028 	.word	0x20001028
10007f64:	2000102c 	.word	0x2000102c
10007f68:	2001      	movs	r0, #1
10007f6a:	4659      	mov	r1, fp
10007f6c:	4684      	mov	ip, r0
10007f6e:	1949      	adds	r1, r1, r5
10007f70:	4305      	orrs	r5, r0
10007f72:	4658      	mov	r0, fp
10007f74:	6045      	str	r5, [r0, #4]
10007f76:	6885      	ldr	r5, [r0, #8]
10007f78:	4660      	mov	r0, ip
10007f7a:	60eb      	str	r3, [r5, #12]
10007f7c:	609d      	str	r5, [r3, #8]
10007f7e:	465b      	mov	r3, fp
10007f80:	6179      	str	r1, [r7, #20]
10007f82:	6139      	str	r1, [r7, #16]
10007f84:	4320      	orrs	r0, r4
10007f86:	3708      	adds	r7, #8
10007f88:	6048      	str	r0, [r1, #4]
10007f8a:	60cf      	str	r7, [r1, #12]
10007f8c:	0030      	movs	r0, r6
10007f8e:	608f      	str	r7, [r1, #8]
10007f90:	509c      	str	r4, [r3, r2]
10007f92:	f000 f8f7 	bl	10008184 <__malloc_unlock>
10007f96:	4658      	mov	r0, fp
10007f98:	3008      	adds	r0, #8
10007f9a:	e6e3      	b.n	10007d64 <_malloc_r+0x164>
10007f9c:	2001      	movs	r0, #1
10007f9e:	445a      	add	r2, fp
10007fa0:	6851      	ldr	r1, [r2, #4]
10007fa2:	4301      	orrs	r1, r0
10007fa4:	6051      	str	r1, [r2, #4]
10007fa6:	465a      	mov	r2, fp
10007fa8:	6892      	ldr	r2, [r2, #8]
10007faa:	0030      	movs	r0, r6
10007fac:	60d3      	str	r3, [r2, #12]
10007fae:	609a      	str	r2, [r3, #8]
10007fb0:	f000 f8e8 	bl	10008184 <__malloc_unlock>
10007fb4:	4658      	mov	r0, fp
10007fb6:	3008      	adds	r0, #8
10007fb8:	e6d4      	b.n	10007d64 <_malloc_r+0x164>
10007fba:	002b      	movs	r3, r5
10007fbc:	08e9      	lsrs	r1, r5, #3
10007fbe:	3308      	adds	r3, #8
10007fc0:	e632      	b.n	10007c28 <_malloc_r+0x28>
10007fc2:	2301      	movs	r3, #1
10007fc4:	1961      	adds	r1, r4, r5
10007fc6:	431d      	orrs	r5, r3
10007fc8:	6065      	str	r5, [r4, #4]
10007fca:	6179      	str	r1, [r7, #20]
10007fcc:	6139      	str	r1, [r7, #16]
10007fce:	60ca      	str	r2, [r1, #12]
10007fd0:	608a      	str	r2, [r1, #8]
10007fd2:	001a      	movs	r2, r3
10007fd4:	464b      	mov	r3, r9
10007fd6:	4302      	orrs	r2, r0
10007fd8:	604a      	str	r2, [r1, #4]
10007fda:	50e0      	str	r0, [r4, r3]
10007fdc:	0030      	movs	r0, r6
10007fde:	f000 f8d1 	bl	10008184 <__malloc_unlock>
10007fe2:	0020      	movs	r0, r4
10007fe4:	3008      	adds	r0, #8
10007fe6:	e6bd      	b.n	10007d64 <_malloc_r+0x164>
10007fe8:	099a      	lsrs	r2, r3, #6
10007fea:	0010      	movs	r0, r2
10007fec:	3239      	adds	r2, #57	; 0x39
10007fee:	3038      	adds	r0, #56	; 0x38
10007ff0:	00d2      	lsls	r2, r2, #3
10007ff2:	e780      	b.n	10007ef6 <_malloc_r+0x2f6>
10007ff4:	42bc      	cmp	r4, r7
10007ff6:	d060      	beq.n	100080ba <_malloc_r+0x4ba>
10007ff8:	68bc      	ldr	r4, [r7, #8]
10007ffa:	6862      	ldr	r2, [r4, #4]
10007ffc:	2303      	movs	r3, #3
10007ffe:	439a      	bics	r2, r3
10008000:	1b53      	subs	r3, r2, r5
10008002:	4295      	cmp	r5, r2
10008004:	d802      	bhi.n	1000800c <_malloc_r+0x40c>
10008006:	2b0f      	cmp	r3, #15
10008008:	dd00      	ble.n	1000800c <_malloc_r+0x40c>
1000800a:	e75b      	b.n	10007ec4 <_malloc_r+0x2c4>
1000800c:	0030      	movs	r0, r6
1000800e:	f000 f8b9 	bl	10008184 <__malloc_unlock>
10008012:	2000      	movs	r0, #0
10008014:	e6a6      	b.n	10007d64 <_malloc_r+0x164>
10008016:	235b      	movs	r3, #91	; 0x5b
10008018:	4698      	mov	r8, r3
1000801a:	4488      	add	r8, r1
1000801c:	315c      	adds	r1, #92	; 0x5c
1000801e:	00c8      	lsls	r0, r1, #3
10008020:	e634      	b.n	10007c8c <_malloc_r+0x8c>
10008022:	2308      	movs	r3, #8
10008024:	425b      	negs	r3, r3
10008026:	469c      	mov	ip, r3
10008028:	44e1      	add	r9, ip
1000802a:	464b      	mov	r3, r9
1000802c:	689b      	ldr	r3, [r3, #8]
1000802e:	3901      	subs	r1, #1
10008030:	454b      	cmp	r3, r9
10008032:	d000      	beq.n	10008036 <_malloc_r+0x436>
10008034:	e098      	b.n	10008168 <_malloc_r+0x568>
10008036:	4643      	mov	r3, r8
10008038:	420b      	tst	r3, r1
1000803a:	d1f2      	bne.n	10008022 <_malloc_r+0x422>
1000803c:	687b      	ldr	r3, [r7, #4]
1000803e:	4383      	bics	r3, r0
10008040:	607b      	str	r3, [r7, #4]
10008042:	0040      	lsls	r0, r0, #1
10008044:	4298      	cmp	r0, r3
10008046:	d900      	bls.n	1000804a <_malloc_r+0x44a>
10008048:	e6a9      	b.n	10007d9e <_malloc_r+0x19e>
1000804a:	2800      	cmp	r0, #0
1000804c:	d104      	bne.n	10008058 <_malloc_r+0x458>
1000804e:	e6a6      	b.n	10007d9e <_malloc_r+0x19e>
10008050:	2204      	movs	r2, #4
10008052:	4694      	mov	ip, r2
10008054:	0040      	lsls	r0, r0, #1
10008056:	44e2      	add	sl, ip
10008058:	4203      	tst	r3, r0
1000805a:	d0f9      	beq.n	10008050 <_malloc_r+0x450>
1000805c:	4651      	mov	r1, sl
1000805e:	e65d      	b.n	10007d1c <_malloc_r+0x11c>
10008060:	3310      	adds	r3, #16
10008062:	9300      	str	r3, [sp, #0]
10008064:	e6b8      	b.n	10007dd8 <_malloc_r+0x1d8>
10008066:	1080      	asrs	r0, r0, #2
10008068:	3b02      	subs	r3, #2
1000806a:	4083      	lsls	r3, r0
1000806c:	6878      	ldr	r0, [r7, #4]
1000806e:	4303      	orrs	r3, r0
10008070:	607b      	str	r3, [r7, #4]
10008072:	e757      	b.n	10007f24 <_malloc_r+0x324>
10008074:	9b00      	ldr	r3, [sp, #0]
10008076:	0030      	movs	r0, r6
10008078:	444b      	add	r3, r9
1000807a:	425b      	negs	r3, r3
1000807c:	051b      	lsls	r3, r3, #20
1000807e:	0d1b      	lsrs	r3, r3, #20
10008080:	0019      	movs	r1, r3
10008082:	4698      	mov	r8, r3
10008084:	f000 f886 	bl	10008194 <_sbrk_r>
10008088:	1c43      	adds	r3, r0, #1
1000808a:	d000      	beq.n	1000808e <_malloc_r+0x48e>
1000808c:	e6e5      	b.n	10007e5a <_malloc_r+0x25a>
1000808e:	2300      	movs	r3, #0
10008090:	4698      	mov	r8, r3
10008092:	e6e7      	b.n	10007e64 <_malloc_r+0x264>
10008094:	2a54      	cmp	r2, #84	; 0x54
10008096:	d82b      	bhi.n	100080f0 <_malloc_r+0x4f0>
10008098:	0b1a      	lsrs	r2, r3, #12
1000809a:	0010      	movs	r0, r2
1000809c:	326f      	adds	r2, #111	; 0x6f
1000809e:	306e      	adds	r0, #110	; 0x6e
100080a0:	00d2      	lsls	r2, r2, #3
100080a2:	e728      	b.n	10007ef6 <_malloc_r+0x2f6>
100080a4:	23aa      	movs	r3, #170	; 0xaa
100080a6:	005b      	lsls	r3, r3, #1
100080a8:	4299      	cmp	r1, r3
100080aa:	d82b      	bhi.n	10008104 <_malloc_r+0x504>
100080ac:	3bdd      	subs	r3, #221	; 0xdd
100080ae:	4698      	mov	r8, r3
100080b0:	0be9      	lsrs	r1, r5, #15
100080b2:	4488      	add	r8, r1
100080b4:	3178      	adds	r1, #120	; 0x78
100080b6:	00c8      	lsls	r0, r1, #3
100080b8:	e5e8      	b.n	10007c8c <_malloc_r+0x8c>
100080ba:	4b2c      	ldr	r3, [pc, #176]	; (1000816c <_malloc_r+0x56c>)
100080bc:	469b      	mov	fp, r3
100080be:	681a      	ldr	r2, [r3, #0]
100080c0:	9b00      	ldr	r3, [sp, #0]
100080c2:	469c      	mov	ip, r3
100080c4:	465b      	mov	r3, fp
100080c6:	4462      	add	r2, ip
100080c8:	601a      	str	r2, [r3, #0]
100080ca:	e69f      	b.n	10007e0c <_malloc_r+0x20c>
100080cc:	0509      	lsls	r1, r1, #20
100080ce:	d000      	beq.n	100080d2 <_malloc_r+0x4d2>
100080d0:	e69c      	b.n	10007e0c <_malloc_r+0x20c>
100080d2:	0002      	movs	r2, r0
100080d4:	68bc      	ldr	r4, [r7, #8]
100080d6:	4452      	add	r2, sl
100080d8:	3101      	adds	r1, #1
100080da:	430a      	orrs	r2, r1
100080dc:	6062      	str	r2, [r4, #4]
100080de:	e6e5      	b.n	10007eac <_malloc_r+0x2ac>
100080e0:	4643      	mov	r3, r8
100080e2:	464a      	mov	r2, r9
100080e4:	601a      	str	r2, [r3, #0]
100080e6:	e69c      	b.n	10007e22 <_malloc_r+0x222>
100080e8:	464c      	mov	r4, r9
100080ea:	e6df      	b.n	10007eac <_malloc_r+0x2ac>
100080ec:	6048      	str	r0, [r1, #4]
100080ee:	e78d      	b.n	1000800c <_malloc_r+0x40c>
100080f0:	20aa      	movs	r0, #170	; 0xaa
100080f2:	0040      	lsls	r0, r0, #1
100080f4:	4282      	cmp	r2, r0
100080f6:	d824      	bhi.n	10008142 <_malloc_r+0x542>
100080f8:	0bda      	lsrs	r2, r3, #15
100080fa:	0010      	movs	r0, r2
100080fc:	3278      	adds	r2, #120	; 0x78
100080fe:	3077      	adds	r0, #119	; 0x77
10008100:	00d2      	lsls	r2, r2, #3
10008102:	e6f8      	b.n	10007ef6 <_malloc_r+0x2f6>
10008104:	4b1a      	ldr	r3, [pc, #104]	; (10008170 <_malloc_r+0x570>)
10008106:	4299      	cmp	r1, r3
10008108:	d824      	bhi.n	10008154 <_malloc_r+0x554>
1000810a:	237c      	movs	r3, #124	; 0x7c
1000810c:	4698      	mov	r8, r3
1000810e:	0ca9      	lsrs	r1, r5, #18
10008110:	4488      	add	r8, r1
10008112:	317d      	adds	r1, #125	; 0x7d
10008114:	00c8      	lsls	r0, r1, #3
10008116:	e5b9      	b.n	10007c8c <_malloc_r+0x8c>
10008118:	9a00      	ldr	r2, [sp, #0]
1000811a:	9b01      	ldr	r3, [sp, #4]
1000811c:	4694      	mov	ip, r2
1000811e:	464a      	mov	r2, r9
10008120:	3b08      	subs	r3, #8
10008122:	4463      	add	r3, ip
10008124:	1a9b      	subs	r3, r3, r2
10008126:	9300      	str	r3, [sp, #0]
10008128:	2300      	movs	r3, #0
1000812a:	4698      	mov	r8, r3
1000812c:	e69a      	b.n	10007e64 <_malloc_r+0x264>
1000812e:	0021      	movs	r1, r4
10008130:	0030      	movs	r0, r6
10008132:	3108      	adds	r1, #8
10008134:	f000 f91e 	bl	10008374 <_free_r>
10008138:	465b      	mov	r3, fp
1000813a:	68bc      	ldr	r4, [r7, #8]
1000813c:	681b      	ldr	r3, [r3, #0]
1000813e:	6862      	ldr	r2, [r4, #4]
10008140:	e6b4      	b.n	10007eac <_malloc_r+0x2ac>
10008142:	480b      	ldr	r0, [pc, #44]	; (10008170 <_malloc_r+0x570>)
10008144:	4282      	cmp	r2, r0
10008146:	d80b      	bhi.n	10008160 <_malloc_r+0x560>
10008148:	0c9a      	lsrs	r2, r3, #18
1000814a:	0010      	movs	r0, r2
1000814c:	327d      	adds	r2, #125	; 0x7d
1000814e:	307c      	adds	r0, #124	; 0x7c
10008150:	00d2      	lsls	r2, r2, #3
10008152:	e6d0      	b.n	10007ef6 <_malloc_r+0x2f6>
10008154:	20fe      	movs	r0, #254	; 0xfe
10008156:	237e      	movs	r3, #126	; 0x7e
10008158:	217f      	movs	r1, #127	; 0x7f
1000815a:	4698      	mov	r8, r3
1000815c:	0080      	lsls	r0, r0, #2
1000815e:	e595      	b.n	10007c8c <_malloc_r+0x8c>
10008160:	22fe      	movs	r2, #254	; 0xfe
10008162:	207e      	movs	r0, #126	; 0x7e
10008164:	0092      	lsls	r2, r2, #2
10008166:	e6c6      	b.n	10007ef6 <_malloc_r+0x2f6>
10008168:	687b      	ldr	r3, [r7, #4]
1000816a:	e76a      	b.n	10008042 <_malloc_r+0x442>
1000816c:	20001000 	.word	0x20001000
10008170:	00000554 	.word	0x00000554

10008174 <__malloc_lock>:
10008174:	b510      	push	{r4, lr}
10008176:	4802      	ldr	r0, [pc, #8]	; (10008180 <__malloc_lock+0xc>)
10008178:	f000 f9e6 	bl	10008548 <__retarget_lock_acquire_recursive>
1000817c:	bd10      	pop	{r4, pc}
1000817e:	46c0      	nop			; (mov r8, r8)
10008180:	20000ffc 	.word	0x20000ffc

10008184 <__malloc_unlock>:
10008184:	b510      	push	{r4, lr}
10008186:	4802      	ldr	r0, [pc, #8]	; (10008190 <__malloc_unlock+0xc>)
10008188:	f000 f9e0 	bl	1000854c <__retarget_lock_release_recursive>
1000818c:	bd10      	pop	{r4, pc}
1000818e:	46c0      	nop			; (mov r8, r8)
10008190:	20000ffc 	.word	0x20000ffc

10008194 <_sbrk_r>:
10008194:	2300      	movs	r3, #0
10008196:	b570      	push	{r4, r5, r6, lr}
10008198:	4c06      	ldr	r4, [pc, #24]	; (100081b4 <_sbrk_r+0x20>)
1000819a:	0005      	movs	r5, r0
1000819c:	0008      	movs	r0, r1
1000819e:	6023      	str	r3, [r4, #0]
100081a0:	f7fa f804 	bl	100021ac <_sbrk>
100081a4:	1c43      	adds	r3, r0, #1
100081a6:	d000      	beq.n	100081aa <_sbrk_r+0x16>
100081a8:	bd70      	pop	{r4, r5, r6, pc}
100081aa:	6823      	ldr	r3, [r4, #0]
100081ac:	2b00      	cmp	r3, #0
100081ae:	d0fb      	beq.n	100081a8 <_sbrk_r+0x14>
100081b0:	602b      	str	r3, [r5, #0]
100081b2:	e7f9      	b.n	100081a8 <_sbrk_r+0x14>
100081b4:	2000161c 	.word	0x2000161c

100081b8 <strlen>:
100081b8:	b510      	push	{r4, lr}
100081ba:	0783      	lsls	r3, r0, #30
100081bc:	d00a      	beq.n	100081d4 <strlen+0x1c>
100081be:	0003      	movs	r3, r0
100081c0:	2103      	movs	r1, #3
100081c2:	e002      	b.n	100081ca <strlen+0x12>
100081c4:	3301      	adds	r3, #1
100081c6:	420b      	tst	r3, r1
100081c8:	d005      	beq.n	100081d6 <strlen+0x1e>
100081ca:	781a      	ldrb	r2, [r3, #0]
100081cc:	2a00      	cmp	r2, #0
100081ce:	d1f9      	bne.n	100081c4 <strlen+0xc>
100081d0:	1a18      	subs	r0, r3, r0
100081d2:	bd10      	pop	{r4, pc}
100081d4:	0003      	movs	r3, r0
100081d6:	6819      	ldr	r1, [r3, #0]
100081d8:	4a0c      	ldr	r2, [pc, #48]	; (1000820c <strlen+0x54>)
100081da:	4c0d      	ldr	r4, [pc, #52]	; (10008210 <strlen+0x58>)
100081dc:	188a      	adds	r2, r1, r2
100081de:	438a      	bics	r2, r1
100081e0:	4222      	tst	r2, r4
100081e2:	d10f      	bne.n	10008204 <strlen+0x4c>
100081e4:	6859      	ldr	r1, [r3, #4]
100081e6:	4a09      	ldr	r2, [pc, #36]	; (1000820c <strlen+0x54>)
100081e8:	3304      	adds	r3, #4
100081ea:	188a      	adds	r2, r1, r2
100081ec:	438a      	bics	r2, r1
100081ee:	4222      	tst	r2, r4
100081f0:	d108      	bne.n	10008204 <strlen+0x4c>
100081f2:	6859      	ldr	r1, [r3, #4]
100081f4:	4a05      	ldr	r2, [pc, #20]	; (1000820c <strlen+0x54>)
100081f6:	3304      	adds	r3, #4
100081f8:	188a      	adds	r2, r1, r2
100081fa:	438a      	bics	r2, r1
100081fc:	4222      	tst	r2, r4
100081fe:	d0f1      	beq.n	100081e4 <strlen+0x2c>
10008200:	e000      	b.n	10008204 <strlen+0x4c>
10008202:	3301      	adds	r3, #1
10008204:	781a      	ldrb	r2, [r3, #0]
10008206:	2a00      	cmp	r2, #0
10008208:	d1fb      	bne.n	10008202 <strlen+0x4a>
1000820a:	e7e1      	b.n	100081d0 <strlen+0x18>
1000820c:	fefefeff 	.word	0xfefefeff
10008210:	80808080 	.word	0x80808080

10008214 <__register_exitproc>:
10008214:	b5f0      	push	{r4, r5, r6, r7, lr}
10008216:	46d6      	mov	lr, sl
10008218:	464f      	mov	r7, r9
1000821a:	4646      	mov	r6, r8
1000821c:	4698      	mov	r8, r3
1000821e:	4b26      	ldr	r3, [pc, #152]	; (100082b8 <__register_exitproc+0xa4>)
10008220:	b5c0      	push	{r6, r7, lr}
10008222:	0006      	movs	r6, r0
10008224:	6818      	ldr	r0, [r3, #0]
10008226:	4691      	mov	r9, r2
10008228:	469a      	mov	sl, r3
1000822a:	000f      	movs	r7, r1
1000822c:	f000 f98c 	bl	10008548 <__retarget_lock_acquire_recursive>
10008230:	22a4      	movs	r2, #164	; 0xa4
10008232:	4b22      	ldr	r3, [pc, #136]	; (100082bc <__register_exitproc+0xa8>)
10008234:	0052      	lsls	r2, r2, #1
10008236:	681b      	ldr	r3, [r3, #0]
10008238:	589d      	ldr	r5, [r3, r2]
1000823a:	2d00      	cmp	r5, #0
1000823c:	d032      	beq.n	100082a4 <__register_exitproc+0x90>
1000823e:	4653      	mov	r3, sl
10008240:	686c      	ldr	r4, [r5, #4]
10008242:	6818      	ldr	r0, [r3, #0]
10008244:	2c1f      	cmp	r4, #31
10008246:	dc32      	bgt.n	100082ae <__register_exitproc+0x9a>
10008248:	2e00      	cmp	r6, #0
1000824a:	d10c      	bne.n	10008266 <__register_exitproc+0x52>
1000824c:	1c63      	adds	r3, r4, #1
1000824e:	3402      	adds	r4, #2
10008250:	00a4      	lsls	r4, r4, #2
10008252:	606b      	str	r3, [r5, #4]
10008254:	5167      	str	r7, [r4, r5]
10008256:	f000 f979 	bl	1000854c <__retarget_lock_release_recursive>
1000825a:	2000      	movs	r0, #0
1000825c:	bce0      	pop	{r5, r6, r7}
1000825e:	46ba      	mov	sl, r7
10008260:	46b1      	mov	r9, r6
10008262:	46a8      	mov	r8, r5
10008264:	bdf0      	pop	{r4, r5, r6, r7, pc}
10008266:	4649      	mov	r1, r9
10008268:	2288      	movs	r2, #136	; 0x88
1000826a:	00a3      	lsls	r3, r4, #2
1000826c:	18eb      	adds	r3, r5, r3
1000826e:	5099      	str	r1, [r3, r2]
10008270:	21c4      	movs	r1, #196	; 0xc4
10008272:	0049      	lsls	r1, r1, #1
10008274:	468c      	mov	ip, r1
10008276:	44ac      	add	ip, r5
10008278:	4661      	mov	r1, ip
1000827a:	3a87      	subs	r2, #135	; 0x87
1000827c:	40a2      	lsls	r2, r4
1000827e:	6809      	ldr	r1, [r1, #0]
10008280:	4691      	mov	r9, r2
10008282:	4311      	orrs	r1, r2
10008284:	4662      	mov	r2, ip
10008286:	6011      	str	r1, [r2, #0]
10008288:	2184      	movs	r1, #132	; 0x84
1000828a:	4642      	mov	r2, r8
1000828c:	0049      	lsls	r1, r1, #1
1000828e:	505a      	str	r2, [r3, r1]
10008290:	2e02      	cmp	r6, #2
10008292:	d1db      	bne.n	1000824c <__register_exitproc+0x38>
10008294:	0029      	movs	r1, r5
10008296:	464a      	mov	r2, r9
10008298:	318d      	adds	r1, #141	; 0x8d
1000829a:	31ff      	adds	r1, #255	; 0xff
1000829c:	680b      	ldr	r3, [r1, #0]
1000829e:	4313      	orrs	r3, r2
100082a0:	600b      	str	r3, [r1, #0]
100082a2:	e7d3      	b.n	1000824c <__register_exitproc+0x38>
100082a4:	001d      	movs	r5, r3
100082a6:	354d      	adds	r5, #77	; 0x4d
100082a8:	35ff      	adds	r5, #255	; 0xff
100082aa:	509d      	str	r5, [r3, r2]
100082ac:	e7c7      	b.n	1000823e <__register_exitproc+0x2a>
100082ae:	f000 f94d 	bl	1000854c <__retarget_lock_release_recursive>
100082b2:	2001      	movs	r0, #1
100082b4:	4240      	negs	r0, r0
100082b6:	e7d1      	b.n	1000825c <__register_exitproc+0x48>
100082b8:	20000c90 	.word	0x20000c90
100082bc:	10008bac 	.word	0x10008bac

100082c0 <register_fini>:
100082c0:	4b03      	ldr	r3, [pc, #12]	; (100082d0 <register_fini+0x10>)
100082c2:	b510      	push	{r4, lr}
100082c4:	2b00      	cmp	r3, #0
100082c6:	d002      	beq.n	100082ce <register_fini+0xe>
100082c8:	4802      	ldr	r0, [pc, #8]	; (100082d4 <register_fini+0x14>)
100082ca:	f7ff fc73 	bl	10007bb4 <atexit>
100082ce:	bd10      	pop	{r4, pc}
100082d0:	00000000 	.word	0x00000000
100082d4:	10007bc5 	.word	0x10007bc5

100082d8 <_malloc_trim_r>:
100082d8:	b5f8      	push	{r3, r4, r5, r6, r7, lr}
100082da:	000c      	movs	r4, r1
100082dc:	0005      	movs	r5, r0
100082de:	f7ff ff49 	bl	10008174 <__malloc_lock>
100082e2:	4f20      	ldr	r7, [pc, #128]	; (10008364 <_malloc_trim_r+0x8c>)
100082e4:	68bb      	ldr	r3, [r7, #8]
100082e6:	685e      	ldr	r6, [r3, #4]
100082e8:	2303      	movs	r3, #3
100082ea:	439e      	bics	r6, r3
100082ec:	4b1e      	ldr	r3, [pc, #120]	; (10008368 <_malloc_trim_r+0x90>)
100082ee:	1b34      	subs	r4, r6, r4
100082f0:	469c      	mov	ip, r3
100082f2:	4464      	add	r4, ip
100082f4:	0b24      	lsrs	r4, r4, #12
100082f6:	3c01      	subs	r4, #1
100082f8:	3311      	adds	r3, #17
100082fa:	0324      	lsls	r4, r4, #12
100082fc:	429c      	cmp	r4, r3
100082fe:	db07      	blt.n	10008310 <_malloc_trim_r+0x38>
10008300:	2100      	movs	r1, #0
10008302:	0028      	movs	r0, r5
10008304:	f7ff ff46 	bl	10008194 <_sbrk_r>
10008308:	68bb      	ldr	r3, [r7, #8]
1000830a:	199b      	adds	r3, r3, r6
1000830c:	4298      	cmp	r0, r3
1000830e:	d004      	beq.n	1000831a <_malloc_trim_r+0x42>
10008310:	0028      	movs	r0, r5
10008312:	f7ff ff37 	bl	10008184 <__malloc_unlock>
10008316:	2000      	movs	r0, #0
10008318:	bdf8      	pop	{r3, r4, r5, r6, r7, pc}
1000831a:	0028      	movs	r0, r5
1000831c:	4261      	negs	r1, r4
1000831e:	f7ff ff39 	bl	10008194 <_sbrk_r>
10008322:	3001      	adds	r0, #1
10008324:	d00d      	beq.n	10008342 <_malloc_trim_r+0x6a>
10008326:	2201      	movs	r2, #1
10008328:	1b36      	subs	r6, r6, r4
1000832a:	68bb      	ldr	r3, [r7, #8]
1000832c:	4316      	orrs	r6, r2
1000832e:	4a0f      	ldr	r2, [pc, #60]	; (1000836c <_malloc_trim_r+0x94>)
10008330:	605e      	str	r6, [r3, #4]
10008332:	6813      	ldr	r3, [r2, #0]
10008334:	0028      	movs	r0, r5
10008336:	1b1b      	subs	r3, r3, r4
10008338:	6013      	str	r3, [r2, #0]
1000833a:	f7ff ff23 	bl	10008184 <__malloc_unlock>
1000833e:	2001      	movs	r0, #1
10008340:	e7ea      	b.n	10008318 <_malloc_trim_r+0x40>
10008342:	2100      	movs	r1, #0
10008344:	0028      	movs	r0, r5
10008346:	f7ff ff25 	bl	10008194 <_sbrk_r>
1000834a:	68ba      	ldr	r2, [r7, #8]
1000834c:	1a83      	subs	r3, r0, r2
1000834e:	2b0f      	cmp	r3, #15
10008350:	ddde      	ble.n	10008310 <_malloc_trim_r+0x38>
10008352:	4c07      	ldr	r4, [pc, #28]	; (10008370 <_malloc_trim_r+0x98>)
10008354:	4905      	ldr	r1, [pc, #20]	; (1000836c <_malloc_trim_r+0x94>)
10008356:	6824      	ldr	r4, [r4, #0]
10008358:	1b00      	subs	r0, r0, r4
1000835a:	6008      	str	r0, [r1, #0]
1000835c:	2101      	movs	r1, #1
1000835e:	430b      	orrs	r3, r1
10008360:	6053      	str	r3, [r2, #4]
10008362:	e7d5      	b.n	10008310 <_malloc_trim_r+0x38>
10008364:	20000880 	.word	0x20000880
10008368:	00000fef 	.word	0x00000fef
1000836c:	20001000 	.word	0x20001000
10008370:	20000c88 	.word	0x20000c88

10008374 <_free_r>:
10008374:	b5f8      	push	{r3, r4, r5, r6, r7, lr}
10008376:	46ce      	mov	lr, r9
10008378:	4647      	mov	r7, r8
1000837a:	0005      	movs	r5, r0
1000837c:	000c      	movs	r4, r1
1000837e:	b580      	push	{r7, lr}
10008380:	2900      	cmp	r1, #0
10008382:	d059      	beq.n	10008438 <_free_r+0xc4>
10008384:	f7ff fef6 	bl	10008174 <__malloc_lock>
10008388:	0021      	movs	r1, r4
1000838a:	3908      	subs	r1, #8
1000838c:	6848      	ldr	r0, [r1, #4]
1000838e:	2301      	movs	r3, #1
10008390:	0002      	movs	r2, r0
10008392:	2403      	movs	r4, #3
10008394:	439a      	bics	r2, r3
10008396:	188f      	adds	r7, r1, r2
10008398:	469c      	mov	ip, r3
1000839a:	4e66      	ldr	r6, [pc, #408]	; (10008534 <_free_r+0x1c0>)
1000839c:	687b      	ldr	r3, [r7, #4]
1000839e:	43a3      	bics	r3, r4
100083a0:	68b4      	ldr	r4, [r6, #8]
100083a2:	42bc      	cmp	r4, r7
100083a4:	d100      	bne.n	100083a8 <_free_r+0x34>
100083a6:	e072      	b.n	1000848e <_free_r+0x11a>
100083a8:	18fc      	adds	r4, r7, r3
100083aa:	46a1      	mov	r9, r4
100083ac:	4664      	mov	r4, ip
100083ae:	607b      	str	r3, [r7, #4]
100083b0:	4204      	tst	r4, r0
100083b2:	d124      	bne.n	100083fe <_free_r+0x8a>
100083b4:	6808      	ldr	r0, [r1, #0]
100083b6:	1a09      	subs	r1, r1, r0
100083b8:	1812      	adds	r2, r2, r0
100083ba:	6888      	ldr	r0, [r1, #8]
100083bc:	4680      	mov	r8, r0
100083be:	4648      	mov	r0, r9
100083c0:	6840      	ldr	r0, [r0, #4]
100083c2:	4020      	ands	r0, r4
100083c4:	0034      	movs	r4, r6
100083c6:	3408      	adds	r4, #8
100083c8:	4681      	mov	r9, r0
100083ca:	45a0      	cmp	r8, r4
100083cc:	d053      	beq.n	10008476 <_free_r+0x102>
100083ce:	4640      	mov	r0, r8
100083d0:	68cc      	ldr	r4, [r1, #12]
100083d2:	60c4      	str	r4, [r0, #12]
100083d4:	60a0      	str	r0, [r4, #8]
100083d6:	4648      	mov	r0, r9
100083d8:	2800      	cmp	r0, #0
100083da:	d114      	bne.n	10008406 <_free_r+0x92>
100083dc:	18d2      	adds	r2, r2, r3
100083de:	2301      	movs	r3, #1
100083e0:	188c      	adds	r4, r1, r2
100083e2:	46a4      	mov	ip, r4
100083e4:	68b8      	ldr	r0, [r7, #8]
100083e6:	4c54      	ldr	r4, [pc, #336]	; (10008538 <_free_r+0x1c4>)
100083e8:	4313      	orrs	r3, r2
100083ea:	42a0      	cmp	r0, r4
100083ec:	d100      	bne.n	100083f0 <_free_r+0x7c>
100083ee:	e07d      	b.n	100084ec <_free_r+0x178>
100083f0:	68fc      	ldr	r4, [r7, #12]
100083f2:	60c4      	str	r4, [r0, #12]
100083f4:	60a0      	str	r0, [r4, #8]
100083f6:	604b      	str	r3, [r1, #4]
100083f8:	4663      	mov	r3, ip
100083fa:	601a      	str	r2, [r3, #0]
100083fc:	e007      	b.n	1000840e <_free_r+0x9a>
100083fe:	4648      	mov	r0, r9
10008400:	6840      	ldr	r0, [r0, #4]
10008402:	4220      	tst	r0, r4
10008404:	d0ea      	beq.n	100083dc <_free_r+0x68>
10008406:	4663      	mov	r3, ip
10008408:	4313      	orrs	r3, r2
1000840a:	604b      	str	r3, [r1, #4]
1000840c:	603a      	str	r2, [r7, #0]
1000840e:	2380      	movs	r3, #128	; 0x80
10008410:	009b      	lsls	r3, r3, #2
10008412:	429a      	cmp	r2, r3
10008414:	d214      	bcs.n	10008440 <_free_r+0xcc>
10008416:	0950      	lsrs	r0, r2, #5
10008418:	08d3      	lsrs	r3, r2, #3
1000841a:	2201      	movs	r2, #1
1000841c:	4082      	lsls	r2, r0
1000841e:	6870      	ldr	r0, [r6, #4]
10008420:	00db      	lsls	r3, r3, #3
10008422:	199b      	adds	r3, r3, r6
10008424:	4302      	orrs	r2, r0
10008426:	6072      	str	r2, [r6, #4]
10008428:	689a      	ldr	r2, [r3, #8]
1000842a:	60cb      	str	r3, [r1, #12]
1000842c:	608a      	str	r2, [r1, #8]
1000842e:	6099      	str	r1, [r3, #8]
10008430:	60d1      	str	r1, [r2, #12]
10008432:	0028      	movs	r0, r5
10008434:	f7ff fea6 	bl	10008184 <__malloc_unlock>
10008438:	bcc0      	pop	{r6, r7}
1000843a:	46b9      	mov	r9, r7
1000843c:	46b0      	mov	r8, r6
1000843e:	bdf8      	pop	{r3, r4, r5, r6, r7, pc}
10008440:	0a54      	lsrs	r4, r2, #9
10008442:	2c04      	cmp	r4, #4
10008444:	d83c      	bhi.n	100084c0 <_free_r+0x14c>
10008446:	0994      	lsrs	r4, r2, #6
10008448:	0020      	movs	r0, r4
1000844a:	3439      	adds	r4, #57	; 0x39
1000844c:	3038      	adds	r0, #56	; 0x38
1000844e:	00e4      	lsls	r4, r4, #3
10008450:	1934      	adds	r4, r6, r4
10008452:	6823      	ldr	r3, [r4, #0]
10008454:	3c08      	subs	r4, #8
10008456:	2703      	movs	r7, #3
10008458:	429c      	cmp	r4, r3
1000845a:	d040      	beq.n	100084de <_free_r+0x16a>
1000845c:	6858      	ldr	r0, [r3, #4]
1000845e:	43b8      	bics	r0, r7
10008460:	4290      	cmp	r0, r2
10008462:	d902      	bls.n	1000846a <_free_r+0xf6>
10008464:	689b      	ldr	r3, [r3, #8]
10008466:	429c      	cmp	r4, r3
10008468:	d1f8      	bne.n	1000845c <_free_r+0xe8>
1000846a:	68dc      	ldr	r4, [r3, #12]
1000846c:	60cc      	str	r4, [r1, #12]
1000846e:	608b      	str	r3, [r1, #8]
10008470:	60a1      	str	r1, [r4, #8]
10008472:	60d9      	str	r1, [r3, #12]
10008474:	e7dd      	b.n	10008432 <_free_r+0xbe>
10008476:	2800      	cmp	r0, #0
10008478:	d157      	bne.n	1000852a <_free_r+0x1b6>
1000847a:	68b8      	ldr	r0, [r7, #8]
1000847c:	189a      	adds	r2, r3, r2
1000847e:	68fb      	ldr	r3, [r7, #12]
10008480:	60c3      	str	r3, [r0, #12]
10008482:	6098      	str	r0, [r3, #8]
10008484:	4663      	mov	r3, ip
10008486:	4313      	orrs	r3, r2
10008488:	604b      	str	r3, [r1, #4]
1000848a:	508a      	str	r2, [r1, r2]
1000848c:	e7d1      	b.n	10008432 <_free_r+0xbe>
1000848e:	18d3      	adds	r3, r2, r3
10008490:	4662      	mov	r2, ip
10008492:	4202      	tst	r2, r0
10008494:	d106      	bne.n	100084a4 <_free_r+0x130>
10008496:	680a      	ldr	r2, [r1, #0]
10008498:	1a89      	subs	r1, r1, r2
1000849a:	6888      	ldr	r0, [r1, #8]
1000849c:	189b      	adds	r3, r3, r2
1000849e:	68ca      	ldr	r2, [r1, #12]
100084a0:	60c2      	str	r2, [r0, #12]
100084a2:	6090      	str	r0, [r2, #8]
100084a4:	2201      	movs	r2, #1
100084a6:	431a      	orrs	r2, r3
100084a8:	604a      	str	r2, [r1, #4]
100084aa:	4a24      	ldr	r2, [pc, #144]	; (1000853c <_free_r+0x1c8>)
100084ac:	60b1      	str	r1, [r6, #8]
100084ae:	6812      	ldr	r2, [r2, #0]
100084b0:	429a      	cmp	r2, r3
100084b2:	d8be      	bhi.n	10008432 <_free_r+0xbe>
100084b4:	4b22      	ldr	r3, [pc, #136]	; (10008540 <_free_r+0x1cc>)
100084b6:	0028      	movs	r0, r5
100084b8:	6819      	ldr	r1, [r3, #0]
100084ba:	f7ff ff0d 	bl	100082d8 <_malloc_trim_r>
100084be:	e7b8      	b.n	10008432 <_free_r+0xbe>
100084c0:	2c14      	cmp	r4, #20
100084c2:	d907      	bls.n	100084d4 <_free_r+0x160>
100084c4:	2c54      	cmp	r4, #84	; 0x54
100084c6:	d819      	bhi.n	100084fc <_free_r+0x188>
100084c8:	0b14      	lsrs	r4, r2, #12
100084ca:	0020      	movs	r0, r4
100084cc:	346f      	adds	r4, #111	; 0x6f
100084ce:	306e      	adds	r0, #110	; 0x6e
100084d0:	00e4      	lsls	r4, r4, #3
100084d2:	e7bd      	b.n	10008450 <_free_r+0xdc>
100084d4:	0020      	movs	r0, r4
100084d6:	345c      	adds	r4, #92	; 0x5c
100084d8:	305b      	adds	r0, #91	; 0x5b
100084da:	00e4      	lsls	r4, r4, #3
100084dc:	e7b8      	b.n	10008450 <_free_r+0xdc>
100084de:	2201      	movs	r2, #1
100084e0:	1080      	asrs	r0, r0, #2
100084e2:	4082      	lsls	r2, r0
100084e4:	6870      	ldr	r0, [r6, #4]
100084e6:	4302      	orrs	r2, r0
100084e8:	6072      	str	r2, [r6, #4]
100084ea:	e7bf      	b.n	1000846c <_free_r+0xf8>
100084ec:	60c1      	str	r1, [r0, #12]
100084ee:	6081      	str	r1, [r0, #8]
100084f0:	604b      	str	r3, [r1, #4]
100084f2:	4663      	mov	r3, ip
100084f4:	60c8      	str	r0, [r1, #12]
100084f6:	6088      	str	r0, [r1, #8]
100084f8:	601a      	str	r2, [r3, #0]
100084fa:	e79a      	b.n	10008432 <_free_r+0xbe>
100084fc:	20aa      	movs	r0, #170	; 0xaa
100084fe:	0040      	lsls	r0, r0, #1
10008500:	4284      	cmp	r4, r0
10008502:	d805      	bhi.n	10008510 <_free_r+0x19c>
10008504:	0bd4      	lsrs	r4, r2, #15
10008506:	0020      	movs	r0, r4
10008508:	3478      	adds	r4, #120	; 0x78
1000850a:	3077      	adds	r0, #119	; 0x77
1000850c:	00e4      	lsls	r4, r4, #3
1000850e:	e79f      	b.n	10008450 <_free_r+0xdc>
10008510:	480c      	ldr	r0, [pc, #48]	; (10008544 <_free_r+0x1d0>)
10008512:	4284      	cmp	r4, r0
10008514:	d805      	bhi.n	10008522 <_free_r+0x1ae>
10008516:	0c94      	lsrs	r4, r2, #18
10008518:	0020      	movs	r0, r4
1000851a:	347d      	adds	r4, #125	; 0x7d
1000851c:	307c      	adds	r0, #124	; 0x7c
1000851e:	00e4      	lsls	r4, r4, #3
10008520:	e796      	b.n	10008450 <_free_r+0xdc>
10008522:	24fe      	movs	r4, #254	; 0xfe
10008524:	207e      	movs	r0, #126	; 0x7e
10008526:	00a4      	lsls	r4, r4, #2
10008528:	e792      	b.n	10008450 <_free_r+0xdc>
1000852a:	4663      	mov	r3, ip
1000852c:	4313      	orrs	r3, r2
1000852e:	604b      	str	r3, [r1, #4]
10008530:	603a      	str	r2, [r7, #0]
10008532:	e77e      	b.n	10008432 <_free_r+0xbe>
10008534:	20000880 	.word	0x20000880
10008538:	20000888 	.word	0x20000888
1000853c:	20000c8c 	.word	0x20000c8c
10008540:	20001030 	.word	0x20001030
10008544:	00000554 	.word	0x00000554

10008548 <__retarget_lock_acquire_recursive>:
10008548:	4770      	bx	lr
1000854a:	46c0      	nop			; (mov r8, r8)

1000854c <__retarget_lock_release_recursive>:
1000854c:	4770      	bx	lr
1000854e:	46c0      	nop			; (mov r8, r8)

10008550 <_fini>:
10008550:	b5f8      	push	{r3, r4, r5, r6, r7, lr}
10008552:	46c0      	nop			; (mov r8, r8)
10008554:	0000      	movs	r0, r0
	...

10008558 <__flash_do_cmd_veneer>:
10008558:	b401      	push	{r0}
1000855a:	4802      	ldr	r0, [pc, #8]	; (10008564 <__flash_do_cmd_veneer+0xc>)
1000855c:	4684      	mov	ip, r0
1000855e:	bc01      	pop	{r0}
10008560:	4760      	bx	ip
10008562:	bf00      	nop
10008564:	20000285 	.word	0x20000285

10008568 <__mutex_exit_veneer>:
10008568:	b401      	push	{r0}
1000856a:	4802      	ldr	r0, [pc, #8]	; (10008574 <__mutex_exit_veneer+0xc>)
1000856c:	4684      	mov	ip, r0
1000856e:	bc01      	pop	{r0}
10008570:	4760      	bx	ip
10008572:	bf00      	nop
10008574:	200001e9 	.word	0x200001e9

10008578 <____aeabi_ldiv0_veneer>:
10008578:	b401      	push	{r0}
1000857a:	4802      	ldr	r0, [pc, #8]	; (10008584 <____aeabi_ldiv0_veneer+0xc>)
1000857c:	4684      	mov	ip, r0
1000857e:	bc01      	pop	{r0}
10008580:	4760      	bx	ip
10008582:	bf00      	nop
10008584:	20000345 	.word	0x20000345

10008588 <____aeabi_idiv0_veneer>:
10008588:	b401      	push	{r0}
1000858a:	4802      	ldr	r0, [pc, #8]	; (10008594 <____aeabi_idiv0_veneer+0xc>)
1000858c:	4684      	mov	ip, r0
1000858e:	bc01      	pop	{r0}
10008590:	4760      	bx	ip
10008592:	bf00      	nop
10008594:	20000345 	.word	0x20000345

10008598 <__mutex_try_enter_veneer>:
10008598:	b401      	push	{r0}
1000859a:	4802      	ldr	r0, [pc, #8]	; (100085a4 <__mutex_try_enter_veneer+0xc>)
1000859c:	4684      	mov	ip, r0
1000859e:	bc01      	pop	{r0}
100085a0:	4760      	bx	ip
100085a2:	bf00      	nop
100085a4:	20000109 	.word	0x20000109

100085a8 <__mutex_enter_timeout_ms_veneer>:
100085a8:	b401      	push	{r0}
100085aa:	4802      	ldr	r0, [pc, #8]	; (100085b4 <__mutex_enter_timeout_ms_veneer+0xc>)
100085ac:	4684      	mov	ip, r0
100085ae:	bc01      	pop	{r0}
100085b0:	4760      	bx	ip
100085b2:	bf00      	nop
100085b4:	20000149 	.word	0x20000149

100085b8 <__mutex_enter_blocking_veneer>:
100085b8:	b401      	push	{r0}
100085ba:	4802      	ldr	r0, [pc, #8]	; (100085c4 <__mutex_enter_blocking_veneer+0xc>)
100085bc:	4684      	mov	ip, r0
100085be:	bc01      	pop	{r0}
100085c0:	4760      	bx	ip
100085c2:	bf00      	nop
100085c4:	200000c1 	.word	0x200000c1

Disassembly of section .data:

200000c0 <mutex_enter_blocking>:
200000c0:	23d0      	movs	r3, #208	; 0xd0
200000c2:	b530      	push	{r4, r5, lr}
200000c4:	2500      	movs	r5, #0
200000c6:	061b      	lsls	r3, r3, #24
200000c8:	2400      	movs	r4, #0
200000ca:	575d      	ldrsb	r5, [r3, r5]
200000cc:	e006      	b.n	200000dc <mutex_enter_blocking+0x1c>
200000ce:	6803      	ldr	r3, [r0, #0]
200000d0:	f3bf 8f5f 	dmb	sy
200000d4:	601c      	str	r4, [r3, #0]
200000d6:	f381 8810 	msr	PRIMASK, r1
200000da:	bf20      	wfe
200000dc:	6802      	ldr	r2, [r0, #0]
200000de:	f3ef 8110 	mrs	r1, PRIMASK
200000e2:	b672      	cpsid	i
200000e4:	6813      	ldr	r3, [r2, #0]
200000e6:	2b00      	cmp	r3, #0
200000e8:	d0fc      	beq.n	200000e4 <mutex_enter_blocking+0x24>
200000ea:	f3bf 8f5f 	dmb	sy
200000ee:	7903      	ldrb	r3, [r0, #4]
200000f0:	2b7f      	cmp	r3, #127	; 0x7f
200000f2:	d9ec      	bls.n	200000ce <mutex_enter_blocking+0xe>
200000f4:	7105      	strb	r5, [r0, #4]
200000f6:	6803      	ldr	r3, [r0, #0]
200000f8:	f3bf 8f5f 	dmb	sy
200000fc:	2200      	movs	r2, #0
200000fe:	601a      	str	r2, [r3, #0]
20000100:	f381 8810 	msr	PRIMASK, r1
20000104:	bd30      	pop	{r4, r5, pc}
20000106:	46c0      	nop			; (mov r8, r8)

20000108 <mutex_try_enter>:
20000108:	0003      	movs	r3, r0
2000010a:	6800      	ldr	r0, [r0, #0]
2000010c:	f3ef 8c10 	mrs	ip, PRIMASK
20000110:	b672      	cpsid	i
20000112:	6802      	ldr	r2, [r0, #0]
20000114:	2a00      	cmp	r2, #0
20000116:	d0fc      	beq.n	20000112 <mutex_try_enter+0xa>
20000118:	f3bf 8f5f 	dmb	sy
2000011c:	2204      	movs	r2, #4
2000011e:	569a      	ldrsb	r2, [r3, r2]
20000120:	2a00      	cmp	r2, #0
20000122:	db04      	blt.n	2000012e <mutex_try_enter+0x26>
20000124:	2900      	cmp	r1, #0
20000126:	d000      	beq.n	2000012a <mutex_try_enter+0x22>
20000128:	600a      	str	r2, [r1, #0]
2000012a:	2000      	movs	r0, #0
2000012c:	e004      	b.n	20000138 <mutex_try_enter+0x30>
2000012e:	22d0      	movs	r2, #208	; 0xd0
20000130:	2001      	movs	r0, #1
20000132:	0612      	lsls	r2, r2, #24
20000134:	6812      	ldr	r2, [r2, #0]
20000136:	711a      	strb	r2, [r3, #4]
20000138:	681b      	ldr	r3, [r3, #0]
2000013a:	f3bf 8f5f 	dmb	sy
2000013e:	2200      	movs	r2, #0
20000140:	601a      	str	r2, [r3, #0]
20000142:	f38c 8810 	msr	PRIMASK, ip
20000146:	4770      	bx	lr

20000148 <mutex_enter_timeout_ms>:
20000148:	b5f0      	push	{r4, r5, r6, r7, lr}
2000014a:	46c6      	mov	lr, r8
2000014c:	b500      	push	{lr}
2000014e:	b082      	sub	sp, #8
20000150:	000c      	movs	r4, r1
20000152:	0007      	movs	r7, r0
20000154:	f000 f900 	bl	20000358 <__time_us_64_veneer>
20000158:	22fa      	movs	r2, #250	; 0xfa
2000015a:	2300      	movs	r3, #0
2000015c:	9000      	str	r0, [sp, #0]
2000015e:	9101      	str	r1, [sp, #4]
20000160:	0020      	movs	r0, r4
20000162:	0092      	lsls	r2, r2, #2
20000164:	2100      	movs	r1, #0
20000166:	f000 f8ef 	bl	20000348 <____wrap___aeabi_lmul_veneer>
2000016a:	9a00      	ldr	r2, [sp, #0]
2000016c:	9b01      	ldr	r3, [sp, #4]
2000016e:	0014      	movs	r4, r2
20000170:	001d      	movs	r5, r3
20000172:	1824      	adds	r4, r4, r0
20000174:	414d      	adcs	r5, r1
20000176:	42ab      	cmp	r3, r5
20000178:	d82f      	bhi.n	200001da <mutex_enter_timeout_ms+0x92>
2000017a:	d02b      	beq.n	200001d4 <mutex_enter_timeout_ms+0x8c>
2000017c:	23d0      	movs	r3, #208	; 0xd0
2000017e:	061b      	lsls	r3, r3, #24
20000180:	681b      	ldr	r3, [r3, #0]
20000182:	2600      	movs	r6, #0
20000184:	4698      	mov	r8, r3
20000186:	e00b      	b.n	200001a0 <mutex_enter_timeout_ms+0x58>
20000188:	683b      	ldr	r3, [r7, #0]
2000018a:	f3bf 8f5f 	dmb	sy
2000018e:	601e      	str	r6, [r3, #0]
20000190:	f381 8810 	msr	PRIMASK, r1
20000194:	0020      	movs	r0, r4
20000196:	0029      	movs	r1, r5
20000198:	f000 f8e6 	bl	20000368 <__best_effort_wfe_or_timeout_veneer>
2000019c:	2800      	cmp	r0, #0
2000019e:	d120      	bne.n	200001e2 <mutex_enter_timeout_ms+0x9a>
200001a0:	683a      	ldr	r2, [r7, #0]
200001a2:	f3ef 8110 	mrs	r1, PRIMASK
200001a6:	b672      	cpsid	i
200001a8:	6813      	ldr	r3, [r2, #0]
200001aa:	2b00      	cmp	r3, #0
200001ac:	d0fc      	beq.n	200001a8 <mutex_enter_timeout_ms+0x60>
200001ae:	f3bf 8f5f 	dmb	sy
200001b2:	793b      	ldrb	r3, [r7, #4]
200001b4:	2b7f      	cmp	r3, #127	; 0x7f
200001b6:	d9e7      	bls.n	20000188 <mutex_enter_timeout_ms+0x40>
200001b8:	4643      	mov	r3, r8
200001ba:	713b      	strb	r3, [r7, #4]
200001bc:	683b      	ldr	r3, [r7, #0]
200001be:	f3bf 8f5f 	dmb	sy
200001c2:	2200      	movs	r2, #0
200001c4:	601a      	str	r2, [r3, #0]
200001c6:	f381 8810 	msr	PRIMASK, r1
200001ca:	2001      	movs	r0, #1
200001cc:	b002      	add	sp, #8
200001ce:	bc80      	pop	{r7}
200001d0:	46b8      	mov	r8, r7
200001d2:	bdf0      	pop	{r4, r5, r6, r7, pc}
200001d4:	9b00      	ldr	r3, [sp, #0]
200001d6:	42a3      	cmp	r3, r4
200001d8:	d9d0      	bls.n	2000017c <mutex_enter_timeout_ms+0x34>
200001da:	2401      	movs	r4, #1
200001dc:	4264      	negs	r4, r4
200001de:	17e5      	asrs	r5, r4, #31
200001e0:	e7cc      	b.n	2000017c <mutex_enter_timeout_ms+0x34>
200001e2:	2000      	movs	r0, #0
200001e4:	e7f2      	b.n	200001cc <mutex_enter_timeout_ms+0x84>
200001e6:	46c0      	nop			; (mov r8, r8)

200001e8 <mutex_exit>:
200001e8:	6802      	ldr	r2, [r0, #0]
200001ea:	f3ef 8110 	mrs	r1, PRIMASK
200001ee:	b672      	cpsid	i
200001f0:	6813      	ldr	r3, [r2, #0]
200001f2:	2b00      	cmp	r3, #0
200001f4:	d0fc      	beq.n	200001f0 <mutex_exit+0x8>
200001f6:	f3bf 8f5f 	dmb	sy
200001fa:	23ff      	movs	r3, #255	; 0xff
200001fc:	7103      	strb	r3, [r0, #4]
200001fe:	6803      	ldr	r3, [r0, #0]
20000200:	f3bf 8f5f 	dmb	sy
20000204:	2200      	movs	r2, #0
20000206:	601a      	str	r2, [r3, #0]
20000208:	f381 8810 	msr	PRIMASK, r1
2000020c:	bf40      	sev
2000020e:	4770      	bx	lr

20000210 <flash_init_boot2_copyout>:
20000210:	b510      	push	{r4, lr}
20000212:	4c08      	ldr	r4, [pc, #32]	; (20000234 <flash_init_boot2_copyout+0x24>)
20000214:	7823      	ldrb	r3, [r4, #0]
20000216:	2b00      	cmp	r3, #0
20000218:	d10a      	bne.n	20000230 <flash_init_boot2_copyout+0x20>
2000021a:	2380      	movs	r3, #128	; 0x80
2000021c:	4806      	ldr	r0, [pc, #24]	; (20000238 <flash_init_boot2_copyout+0x28>)
2000021e:	4907      	ldr	r1, [pc, #28]	; (2000023c <flash_init_boot2_copyout+0x2c>)
20000220:	055b      	lsls	r3, r3, #21
20000222:	681a      	ldr	r2, [r3, #0]
20000224:	50c2      	str	r2, [r0, r3]
20000226:	3304      	adds	r3, #4
20000228:	428b      	cmp	r3, r1
2000022a:	d1fa      	bne.n	20000222 <flash_init_boot2_copyout+0x12>
2000022c:	2301      	movs	r3, #1
2000022e:	7023      	strb	r3, [r4, #0]
20000230:	bd10      	pop	{r4, pc}
20000232:	46c0      	nop			; (mov r8, r8)
20000234:	20001ab6 	.word	0x20001ab6
20000238:	100014a0 	.word	0x100014a0
2000023c:	10000100 	.word	0x10000100

20000240 <flash_enable_xip_via_boot2>:
20000240:	b510      	push	{r4, lr}
20000242:	4b01      	ldr	r3, [pc, #4]	; (20000248 <flash_enable_xip_via_boot2+0x8>)
20000244:	4798      	blx	r3
20000246:	bd10      	pop	{r4, pc}
20000248:	200014a1 	.word	0x200014a1

2000024c <flash_cs_force.constprop.0>:
2000024c:	4b03      	ldr	r3, [pc, #12]	; (2000025c <flash_cs_force.constprop.0+0x10>)
2000024e:	681a      	ldr	r2, [r3, #0]
20000250:	23c0      	movs	r3, #192	; 0xc0
20000252:	009b      	lsls	r3, r3, #2
20000254:	4393      	bics	r3, r2
20000256:	4a02      	ldr	r2, [pc, #8]	; (20000260 <flash_cs_force.constprop.0+0x14>)
20000258:	6013      	str	r3, [r2, #0]
2000025a:	4770      	bx	lr
2000025c:	4001800c 	.word	0x4001800c
20000260:	4001900c 	.word	0x4001900c

20000264 <flash_cs_force.constprop.1>:
20000264:	4b05      	ldr	r3, [pc, #20]	; (2000027c <flash_cs_force.constprop.1+0x18>)
20000266:	681a      	ldr	r2, [r3, #0]
20000268:	2380      	movs	r3, #128	; 0x80
2000026a:	009b      	lsls	r3, r3, #2
2000026c:	4053      	eors	r3, r2
2000026e:	22c0      	movs	r2, #192	; 0xc0
20000270:	0092      	lsls	r2, r2, #2
20000272:	4013      	ands	r3, r2
20000274:	4a02      	ldr	r2, [pc, #8]	; (20000280 <flash_cs_force.constprop.1+0x1c>)
20000276:	6013      	str	r3, [r2, #0]
20000278:	4770      	bx	lr
2000027a:	46c0      	nop			; (mov r8, r8)
2000027c:	4001800c 	.word	0x4001800c
20000280:	4001900c 	.word	0x4001900c

20000284 <flash_do_cmd>:
20000284:	2314      	movs	r3, #20
20000286:	b5f0      	push	{r4, r5, r6, r7, lr}
20000288:	46d6      	mov	lr, sl
2000028a:	464f      	mov	r7, r9
2000028c:	4646      	mov	r6, r8
2000028e:	469a      	mov	sl, r3
20000290:	4681      	mov	r9, r0
20000292:	8818      	ldrh	r0, [r3, #0]
20000294:	3304      	adds	r3, #4
20000296:	b5c0      	push	{r6, r7, lr}
20000298:	4698      	mov	r8, r3
2000029a:	000e      	movs	r6, r1
2000029c:	881b      	ldrh	r3, [r3, #0]
2000029e:	4926      	ldr	r1, [pc, #152]	; (20000338 <flash_do_cmd+0xb4>)
200002a0:	0014      	movs	r4, r2
200002a2:	4798      	blx	r3
200002a4:	4653      	mov	r3, sl
200002a6:	0007      	movs	r7, r0
200002a8:	8818      	ldrh	r0, [r3, #0]
200002aa:	4643      	mov	r3, r8
200002ac:	4923      	ldr	r1, [pc, #140]	; (2000033c <flash_do_cmd+0xb8>)
200002ae:	881b      	ldrh	r3, [r3, #0]
200002b0:	4798      	blx	r3
200002b2:	4653      	mov	r3, sl
200002b4:	0005      	movs	r5, r0
200002b6:	8818      	ldrh	r0, [r3, #0]
200002b8:	4643      	mov	r3, r8
200002ba:	4921      	ldr	r1, [pc, #132]	; (20000340 <flash_do_cmd+0xbc>)
200002bc:	881b      	ldrh	r3, [r3, #0]
200002be:	4798      	blx	r3
200002c0:	4680      	mov	r8, r0
200002c2:	f7ff ffa5 	bl	20000210 <flash_init_boot2_copyout>
200002c6:	47b8      	blx	r7
200002c8:	47a8      	blx	r5
200002ca:	f7ff ffcb 	bl	20000264 <flash_cs_force.constprop.1>
200002ce:	1e22      	subs	r2, r4, #0
200002d0:	d020      	beq.n	20000314 <flash_do_cmd+0x90>
200002d2:	21c0      	movs	r1, #192	; 0xc0
200002d4:	2708      	movs	r7, #8
200002d6:	2002      	movs	r0, #2
200002d8:	0549      	lsls	r1, r1, #21
200002da:	e011      	b.n	20000300 <flash_do_cmd+0x7c>
200002dc:	2c00      	cmp	r4, #0
200002de:	d014      	beq.n	2000030a <flash_do_cmd+0x86>
200002e0:	1b13      	subs	r3, r2, r4
200002e2:	2b0d      	cmp	r3, #13
200002e4:	d920      	bls.n	20000328 <flash_do_cmd+0xa4>
200002e6:	2d00      	cmp	r5, #0
200002e8:	d00a      	beq.n	20000300 <flash_do_cmd+0x7c>
200002ea:	0023      	movs	r3, r4
200002ec:	2a00      	cmp	r2, #0
200002ee:	d005      	beq.n	200002fc <flash_do_cmd+0x78>
200002f0:	6e0b      	ldr	r3, [r1, #96]	; 0x60
200002f2:	3a01      	subs	r2, #1
200002f4:	7033      	strb	r3, [r6, #0]
200002f6:	0013      	movs	r3, r2
200002f8:	3601      	adds	r6, #1
200002fa:	4323      	orrs	r3, r4
200002fc:	2b00      	cmp	r3, #0
200002fe:	d009      	beq.n	20000314 <flash_do_cmd+0x90>
20000300:	003d      	movs	r5, r7
20000302:	6a8b      	ldr	r3, [r1, #40]	; 0x28
20000304:	401d      	ands	r5, r3
20000306:	4218      	tst	r0, r3
20000308:	d1e8      	bne.n	200002dc <flash_do_cmd+0x58>
2000030a:	2d00      	cmp	r5, #0
2000030c:	d1ed      	bne.n	200002ea <flash_do_cmd+0x66>
2000030e:	0023      	movs	r3, r4
20000310:	4313      	orrs	r3, r2
20000312:	d1f5      	bne.n	20000300 <flash_do_cmd+0x7c>
20000314:	f7ff ff9a 	bl	2000024c <flash_cs_force.constprop.0>
20000318:	47c0      	blx	r8
2000031a:	f7ff ff91 	bl	20000240 <flash_enable_xip_via_boot2>
2000031e:	bce0      	pop	{r5, r6, r7}
20000320:	46ba      	mov	sl, r7
20000322:	46b1      	mov	r9, r6
20000324:	46a8      	mov	r8, r5
20000326:	bdf0      	pop	{r4, r5, r6, r7, pc}
20000328:	464b      	mov	r3, r9
2000032a:	781b      	ldrb	r3, [r3, #0]
2000032c:	3c01      	subs	r4, #1
2000032e:	660b      	str	r3, [r1, #96]	; 0x60
20000330:	2301      	movs	r3, #1
20000332:	469c      	mov	ip, r3
20000334:	44e1      	add	r9, ip
20000336:	e7e8      	b.n	2000030a <flash_do_cmd+0x86>
20000338:	00004649 	.word	0x00004649
2000033c:	00005845 	.word	0x00005845
20000340:	00004346 	.word	0x00004346

20000344 <__aeabi_idiv0>:
20000344:	4770      	bx	lr
20000346:	46c0      	nop			; (mov r8, r8)

20000348 <____wrap___aeabi_lmul_veneer>:
20000348:	b401      	push	{r0}
2000034a:	4802      	ldr	r0, [pc, #8]	; (20000354 <____wrap___aeabi_lmul_veneer+0xc>)
2000034c:	4684      	mov	ip, r0
2000034e:	bc01      	pop	{r0}
20000350:	4760      	bx	ip
20000352:	bf00      	nop
20000354:	10004bf5 	.word	0x10004bf5

20000358 <__time_us_64_veneer>:
20000358:	b401      	push	{r0}
2000035a:	4802      	ldr	r0, [pc, #8]	; (20000364 <__time_us_64_veneer+0xc>)
2000035c:	4684      	mov	ip, r0
2000035e:	bc01      	pop	{r0}
20000360:	4760      	bx	ip
20000362:	bf00      	nop
20000364:	10001aa1 	.word	0x10001aa1

20000368 <__best_effort_wfe_or_timeout_veneer>:
20000368:	b401      	push	{r0}
2000036a:	4802      	ldr	r0, [pc, #8]	; (20000374 <__best_effort_wfe_or_timeout_veneer+0xc>)
2000036c:	4684      	mov	ip, r0
2000036e:	bc01      	pop	{r0}
20000370:	4760      	bx	ip
20000372:	bf00      	nop
20000374:	10001921 	.word	0x10001921

20000378 <_ZZ4mainE3LED>:
20000378:	                                         .

20000379 <striped_spin_lock_num>:
20000379:	                                         ...

2000037c <irq_handler_chain_slots>:
2000037c:	00000000 	.word	0x00000000
20000380:	00010000 	.word	0x00010000
	...
2000038c:	00020000 	.word	0x00020000
	...
20000398:	00030000 	.word	0x00030000
	...
200003a4:	00ff0000 	.word	0x00ff0000
200003a8:	00000000 	.word	0x00000000

200003ac <irq_handler_chain_first_slot>:
200003ac:	b500      	push	{lr}
200003ae:	6848      	ldr	r0, [r1, #4]
200003b0:	3101      	adds	r1, #1
200003b2:	468e      	mov	lr, r1
200003b4:	4700      	bx	r0

200003b6 <irq_handler_chain_remove_tail>:
200003b6:	4670      	mov	r0, lr
200003b8:	3809      	subs	r0, #9
200003ba:	4901      	ldr	r1, [pc, #4]	; (200003c0 <irq_handler_chain_remove_tail+0xa>)
200003bc:	4788      	blx	r1
200003be:	bd00      	pop	{pc}
200003c0:	100010f1 	.word	0x100010f1

200003c4 <default_alarm_pool>:
200003c4:	200003dc 00000000 20000ce8 200015b0     ... ....... ... 
	...

200003dc <default_alarm_pool_heap>:
200003dc:	200015c0 00000000 00000000 00000010     ... ............
200003ec:	00000000                                ....

200003f0 <aeabi_bits_funcs>:
200003f0:	00003350 	.word	0x00003350
200003f4:	0000334c 	.word	0x0000334c
200003f8:	00003354 	.word	0x00003354
200003fc:	00003352 	.word	0x00003352

20000400 <aeabi_bits_funcs_end>:
20000400:	0000534d 	.word	0x0000534d
20000404:	0000434d 	.word	0x0000434d
20000408:	00003453 	.word	0x00003453
2000040c:	00003443 	.word	0x00003443

20000410 <stdio_usb>:
20000410:	1000529d 00000000 10005235 00000000     .R......5R......
20000420:	00000100                                ....

20000424 <ep_dir_string>:
20000424:	10008ac8 10008acc                       ........

2000042c <_usbd_qdef>:
2000042c:	200013c8 000c0010 ffe00000 0000001f     ... ............
	...

20000450 <_impure_ptr>:
20000450:	20000458 00000000                       X.. ....

20000458 <impure_data>:
20000458:	00000000 20000744 200007ac 20000814     ....D.. ... ... 
	...
20000500:	00000001 00000000 abcd330e e66d1234     .........3..4.m.
20000510:	0005deec 0000000b 00000000 00000000     ................
	...

20000880 <__malloc_av_>:
	...
20000888:	20000880 20000880 20000888 20000888     ... ... ... ... 
20000898:	20000890 20000890 20000898 20000898     ... ... ... ... 
200008a8:	200008a0 200008a0 200008a8 200008a8     ... ... ... ... 
200008b8:	200008b0 200008b0 200008b8 200008b8     ... ... ... ... 
200008c8:	200008c0 200008c0 200008c8 200008c8     ... ... ... ... 
200008d8:	200008d0 200008d0 200008d8 200008d8     ... ... ... ... 
200008e8:	200008e0 200008e0 200008e8 200008e8     ... ... ... ... 
200008f8:	200008f0 200008f0 200008f8 200008f8     ... ... ... ... 
20000908:	20000900 20000900 20000908 20000908     ... ... ... ... 
20000918:	20000910 20000910 20000918 20000918     ... ... ... ... 
20000928:	20000920 20000920 20000928 20000928      ..  .. (.. (.. 
20000938:	20000930 20000930 20000938 20000938     0.. 0.. 8.. 8.. 
20000948:	20000940 20000940 20000948 20000948     @.. @.. H.. H.. 
20000958:	20000950 20000950 20000958 20000958     P.. P.. X.. X.. 
20000968:	20000960 20000960 20000968 20000968     `.. `.. h.. h.. 
20000978:	20000970 20000970 20000978 20000978     p.. p.. x.. x.. 
20000988:	20000980 20000980 20000988 20000988     ... ... ... ... 
20000998:	20000990 20000990 20000998 20000998     ... ... ... ... 
200009a8:	200009a0 200009a0 200009a8 200009a8     ... ... ... ... 
200009b8:	200009b0 200009b0 200009b8 200009b8     ... ... ... ... 
200009c8:	200009c0 200009c0 200009c8 200009c8     ... ... ... ... 
200009d8:	200009d0 200009d0 200009d8 200009d8     ... ... ... ... 
200009e8:	200009e0 200009e0 200009e8 200009e8     ... ... ... ... 
200009f8:	200009f0 200009f0 200009f8 200009f8     ... ... ... ... 
20000a08:	20000a00 20000a00 20000a08 20000a08     ... ... ... ... 
20000a18:	20000a10 20000a10 20000a18 20000a18     ... ... ... ... 
20000a28:	20000a20 20000a20 20000a28 20000a28      ..  .. (.. (.. 
20000a38:	20000a30 20000a30 20000a38 20000a38     0.. 0.. 8.. 8.. 
20000a48:	20000a40 20000a40 20000a48 20000a48     @.. @.. H.. H.. 
20000a58:	20000a50 20000a50 20000a58 20000a58     P.. P.. X.. X.. 
20000a68:	20000a60 20000a60 20000a68 20000a68     `.. `.. h.. h.. 
20000a78:	20000a70 20000a70 20000a78 20000a78     p.. p.. x.. x.. 
20000a88:	20000a80 20000a80 20000a88 20000a88     ... ... ... ... 
20000a98:	20000a90 20000a90 20000a98 20000a98     ... ... ... ... 
20000aa8:	20000aa0 20000aa0 20000aa8 20000aa8     ... ... ... ... 
20000ab8:	20000ab0 20000ab0 20000ab8 20000ab8     ... ... ... ... 
20000ac8:	20000ac0 20000ac0 20000ac8 20000ac8     ... ... ... ... 
20000ad8:	20000ad0 20000ad0 20000ad8 20000ad8     ... ... ... ... 
20000ae8:	20000ae0 20000ae0 20000ae8 20000ae8     ... ... ... ... 
20000af8:	20000af0 20000af0 20000af8 20000af8     ... ... ... ... 
20000b08:	20000b00 20000b00 20000b08 20000b08     ... ... ... ... 
20000b18:	20000b10 20000b10 20000b18 20000b18     ... ... ... ... 
20000b28:	20000b20 20000b20 20000b28 20000b28      ..  .. (.. (.. 
20000b38:	20000b30 20000b30 20000b38 20000b38     0.. 0.. 8.. 8.. 
20000b48:	20000b40 20000b40 20000b48 20000b48     @.. @.. H.. H.. 
20000b58:	20000b50 20000b50 20000b58 20000b58     P.. P.. X.. X.. 
20000b68:	20000b60 20000b60 20000b68 20000b68     `.. `.. h.. h.. 
20000b78:	20000b70 20000b70 20000b78 20000b78     p.. p.. x.. x.. 
20000b88:	20000b80 20000b80 20000b88 20000b88     ... ... ... ... 
20000b98:	20000b90 20000b90 20000b98 20000b98     ... ... ... ... 
20000ba8:	20000ba0 20000ba0 20000ba8 20000ba8     ... ... ... ... 
20000bb8:	20000bb0 20000bb0 20000bb8 20000bb8     ... ... ... ... 
20000bc8:	20000bc0 20000bc0 20000bc8 20000bc8     ... ... ... ... 
20000bd8:	20000bd0 20000bd0 20000bd8 20000bd8     ... ... ... ... 
20000be8:	20000be0 20000be0 20000be8 20000be8     ... ... ... ... 
20000bf8:	20000bf0 20000bf0 20000bf8 20000bf8     ... ... ... ... 
20000c08:	20000c00 20000c00 20000c08 20000c08     ... ... ... ... 
20000c18:	20000c10 20000c10 20000c18 20000c18     ... ... ... ... 
20000c28:	20000c20 20000c20 20000c28 20000c28      ..  .. (.. (.. 
20000c38:	20000c30 20000c30 20000c38 20000c38     0.. 0.. 8.. 8.. 
20000c48:	20000c40 20000c40 20000c48 20000c48     @.. @.. H.. H.. 
20000c58:	20000c50 20000c50 20000c58 20000c58     P.. P.. X.. X.. 
20000c68:	20000c60 20000c60 20000c68 20000c68     `.. `.. h.. h.. 
20000c78:	20000c70 20000c70 20000c78 20000c78     p.. p.. x.. x.. 

20000c88 <__malloc_sbrk_base>:
20000c88:	ffffffff                                ....

20000c8c <__malloc_trim_threshold>:
20000c8c:	00020000                                ....

20000c90 <__atexit_recursive_mutex>:
20000c90:	20000ff8                                ... 

20000c94 <print_mutex>:
	...

20000c9c <__mutex_array_end>:
20000c9c:	10004d81 	.word	0x10004d81
20000ca0:	10003ef1 	.word	0x10003ef1
20000ca4:	100045fd 	.word	0x100045fd
20000ca8:	10004ccd 	.word	0x10004ccd

20000cac <__init_array_start>:
20000cac:	100082c1 	.word	0x100082c1

20000cb0 <__frame_dummy_init_array_entry>:
20000cb0:	100002c5 100007f1 100077f5              .........w..
