
/home/mitch/code/typewriter-hacking/pi-pico/blink.elf:     file format elf32-littlearm

Sections:
Idx Name          Size      VMA       LMA       File off  Algn
  0 .boot2        00000100  10000000  10000000  00001000  2**0
                  CONTENTS, ALLOC, LOAD, READONLY, CODE
  1 .text         00002aa8  10000100  10000100  00001100  2**3
                  CONTENTS, ALLOC, LOAD, READONLY, CODE
  2 .rodata       00000184  10002ba8  10002ba8  00003ba8  2**2
                  CONTENTS, ALLOC, LOAD, READONLY, DATA
  3 .binary_info  00000024  10002d2c  10002d2c  00003d2c  2**2
                  CONTENTS, ALLOC, LOAD, DATA
  4 .ram_vector_table 000000c0  20000000  20000000  00004674  2**2
                  CONTENTS
  5 .data         000005b4  200000c0  10002d50  000040c0  2**4
                  CONTENTS, ALLOC, LOAD, CODE
  6 .uninitialized_data 00000000  20000674  20000674  00004734  2**0
                  CONTENTS
  7 .scratch_x    00000000  20040000  20040000  00004734  2**0
                  CONTENTS
  8 .scratch_y    00000000  20041000  20041000  00004734  2**0
                  CONTENTS
  9 .bss          000003ec  20000678  20000678  00004678  2**3
                  ALLOC
 10 .heap         00000800  20000a64  20000a64  00004734  2**2
                  CONTENTS, READONLY
 11 .stack_dummy  00000800  20041000  20041000  00004f40  2**5
                  CONTENTS, READONLY
 12 .ARM.attributes 00000028  00000000  00000000  00005740  2**0
                  CONTENTS, READONLY
 13 .comment      0000003c  00000000  00000000  00005768  2**0
                  CONTENTS, READONLY
 14 .debug_line   00000a8c  00000000  00000000  000057a4  2**0
                  CONTENTS, READONLY, DEBUGGING, OCTETS
 15 .debug_line_str 00000092  00000000  00000000  00006230  2**0
                  CONTENTS, READONLY, DEBUGGING, OCTETS
 16 .debug_info   000021cf  00000000  00000000  000062c2  2**0
                  CONTENTS, READONLY, DEBUGGING, OCTETS
 17 .debug_abbrev 00000a61  00000000  00000000  00008491  2**0
                  CONTENTS, READONLY, DEBUGGING, OCTETS
 18 .debug_aranges 00000108  00000000  00000000  00008ef8  2**3
                  CONTENTS, READONLY, DEBUGGING, OCTETS
 19 .debug_str    00000bc9  00000000  00000000  00009000  2**0
                  CONTENTS, READONLY, DEBUGGING, OCTETS
 20 .debug_loclists 0000030f  00000000  00000000  00009bc9  2**0
                  CONTENTS, READONLY, DEBUGGING, OCTETS
 21 .debug_rnglists 00000093  00000000  00000000  00009ed8  2**0
                  CONTENTS, READONLY, DEBUGGING, OCTETS
 22 .debug_frame  000001b8  00000000  00000000  00009f6c  2**2
                  CONTENTS, READONLY, DEBUGGING, OCTETS

/home/mitch/code/typewriter-hacking/pi-pico/blink.elf:     file format elf32-littlearm


Disassembly of section .boot2:

10000000 <__boot2_start__>:
10000000:	4b32b500 	.word	0x4b32b500
10000004:	60582021 	.word	0x60582021
10000008:	21026898 	.word	0x21026898
1000000c:	60984388 	.word	0x60984388
10000010:	611860d8 	.word	0x611860d8
10000014:	4b2e6158 	.word	0x4b2e6158
10000018:	60992100 	.word	0x60992100
1000001c:	61592102 	.word	0x61592102
10000020:	22f02101 	.word	0x22f02101
10000024:	492b5099 	.word	0x492b5099
10000028:	21016019 	.word	0x21016019
1000002c:	20356099 	.word	0x20356099
10000030:	f844f000 	.word	0xf844f000
10000034:	42902202 	.word	0x42902202
10000038:	2106d014 	.word	0x2106d014
1000003c:	f0006619 	.word	0xf0006619
10000040:	6e19f834 	.word	0x6e19f834
10000044:	66192101 	.word	0x66192101
10000048:	66182000 	.word	0x66182000
1000004c:	f000661a 	.word	0xf000661a
10000050:	6e19f82c 	.word	0x6e19f82c
10000054:	6e196e19 	.word	0x6e196e19
10000058:	f0002005 	.word	0xf0002005
1000005c:	2101f82f 	.word	0x2101f82f
10000060:	d1f94208 	.word	0xd1f94208
10000064:	60992100 	.word	0x60992100
10000068:	6019491b 	.word	0x6019491b
1000006c:	60592100 	.word	0x60592100
10000070:	481b491a 	.word	0x481b491a
10000074:	21016001 	.word	0x21016001
10000078:	21eb6099 	.word	0x21eb6099
1000007c:	21a06619 	.word	0x21a06619
10000080:	f0006619 	.word	0xf0006619
10000084:	2100f812 	.word	0x2100f812
10000088:	49166099 	.word	0x49166099
1000008c:	60014814 	.word	0x60014814
10000090:	60992101 	.word	0x60992101
10000094:	2800bc01 	.word	0x2800bc01
10000098:	4700d000 	.word	0x4700d000
1000009c:	49134812 	.word	0x49134812
100000a0:	c8036008 	.word	0xc8036008
100000a4:	8808f380 	.word	0x8808f380
100000a8:	b5034708 	.word	0xb5034708
100000ac:	20046a99 	.word	0x20046a99
100000b0:	d0fb4201 	.word	0xd0fb4201
100000b4:	42012001 	.word	0x42012001
100000b8:	bd03d1f8 	.word	0xbd03d1f8
100000bc:	6618b502 	.word	0x6618b502
100000c0:	f7ff6618 	.word	0xf7ff6618
100000c4:	6e18fff2 	.word	0x6e18fff2
100000c8:	bd026e18 	.word	0xbd026e18
100000cc:	40020000 	.word	0x40020000
100000d0:	18000000 	.word	0x18000000
100000d4:	00070000 	.word	0x00070000
100000d8:	005f0300 	.word	0x005f0300
100000dc:	00002221 	.word	0x00002221
100000e0:	180000f4 	.word	0x180000f4
100000e4:	a0002022 	.word	0xa0002022
100000e8:	10000100 	.word	0x10000100
100000ec:	e000ed08 	.word	0xe000ed08
	...
100000fc:	7a4eb274 	.word	0x7a4eb274

Disassembly of section .text:

10000100 <__VECTOR_TABLE>:
10000100:	20042000 	.word	0x20042000
10000104:	100001f7 	.word	0x100001f7
10000108:	100001c3 	.word	0x100001c3
1000010c:	100001c5 	.word	0x100001c5
10000110:	100001c1 	.word	0x100001c1
10000114:	100001c1 	.word	0x100001c1
10000118:	100001c1 	.word	0x100001c1
1000011c:	100001c1 	.word	0x100001c1
10000120:	100001c1 	.word	0x100001c1
10000124:	100001c1 	.word	0x100001c1
10000128:	100001c1 	.word	0x100001c1
1000012c:	100001c7 	.word	0x100001c7
10000130:	100001c1 	.word	0x100001c1
10000134:	100001c1 	.word	0x100001c1
10000138:	100001c9 	.word	0x100001c9
1000013c:	100001cb 	.word	0x100001cb
10000140:	100001cd 	.word	0x100001cd
10000144:	100001cd 	.word	0x100001cd
10000148:	100001cd 	.word	0x100001cd
1000014c:	100001cd 	.word	0x100001cd
10000150:	100001cd 	.word	0x100001cd
10000154:	100001cd 	.word	0x100001cd
10000158:	100001cd 	.word	0x100001cd
1000015c:	100001cd 	.word	0x100001cd
10000160:	100001cd 	.word	0x100001cd
10000164:	100001cd 	.word	0x100001cd
10000168:	100001cd 	.word	0x100001cd
1000016c:	100001cd 	.word	0x100001cd
10000170:	100001cd 	.word	0x100001cd
10000174:	100001cd 	.word	0x100001cd
10000178:	100001cd 	.word	0x100001cd
1000017c:	100001cd 	.word	0x100001cd
10000180:	100001cd 	.word	0x100001cd
10000184:	100001cd 	.word	0x100001cd
10000188:	100001cd 	.word	0x100001cd
1000018c:	100001cd 	.word	0x100001cd
10000190:	100001cd 	.word	0x100001cd
10000194:	100001cd 	.word	0x100001cd
10000198:	100001cd 	.word	0x100001cd
1000019c:	100001cd 	.word	0x100001cd
100001a0:	100001cd 	.word	0x100001cd
100001a4:	100001cd 	.word	0x100001cd
100001a8:	100001cd 	.word	0x100001cd
100001ac:	100001cd 	.word	0x100001cd
100001b0:	100001cd 	.word	0x100001cd
100001b4:	100001cd 	.word	0x100001cd
100001b8:	100001cd 	.word	0x100001cd
100001bc:	100001cd 	.word	0x100001cd

100001c0 <isr_invalid>:
100001c0:	be00      	bkpt	0x0000

100001c2 <isr_nmi>:
100001c2:	be00      	bkpt	0x0000

100001c4 <isr_hardfault>:
100001c4:	be00      	bkpt	0x0000

100001c6 <isr_svcall>:
100001c6:	be00      	bkpt	0x0000

100001c8 <isr_pendsv>:
100001c8:	be00      	bkpt	0x0000

100001ca <isr_systick>:
100001ca:	be00      	bkpt	0x0000

100001cc <__unhandled_user_irq>:
100001cc:	f000 f84b 	bl	10000266 <__get_current_exception>
100001d0:	3810      	subs	r0, #16

100001d2 <unhandled_user_irq_num_in_r0>:
100001d2:	be00      	bkpt	0x0000

100001d4 <binary_info_header>:
100001d4:	7188ebf2 	.word	0x7188ebf2
100001d8:	10002d2c 	.word	0x10002d2c
100001dc:	10002d50 	.word	0x10002d50
100001e0:	10000234 	.word	0x10000234
100001e4:	e71aa390 	.word	0xe71aa390

100001e8 <_entry_point>:
100001e8:	2000      	movs	r0, #0
100001ea:	4921      	ldr	r1, [pc, #132]	; (10000270 <__get_current_exception+0xa>)
100001ec:	6008      	str	r0, [r1, #0]
100001ee:	c806      	ldmia	r0!, {r1, r2}
100001f0:	f381 8808 	msr	MSP, r1
100001f4:	4710      	bx	r2

100001f6 <_reset_handler>:
100001f6:	481f      	ldr	r0, [pc, #124]	; (10000274 <__get_current_exception+0xe>)
100001f8:	6800      	ldr	r0, [r0, #0]
100001fa:	2800      	cmp	r0, #0
100001fc:	d12f      	bne.n	1000025e <hold_non_core0_in_bootrom>
100001fe:	a40d      	add	r4, pc, #52	; (adr r4, 10000234 <data_cpy_table>)
10000200:	cc0e      	ldmia	r4!, {r1, r2, r3}
10000202:	2900      	cmp	r1, #0
10000204:	d002      	beq.n	1000020c <_reset_handler+0x16>
10000206:	f000 f812 	bl	1000022e <data_cpy>
1000020a:	e7f9      	b.n	10000200 <_reset_handler+0xa>
1000020c:	491a      	ldr	r1, [pc, #104]	; (10000278 <__get_current_exception+0x12>)
1000020e:	4a1b      	ldr	r2, [pc, #108]	; (1000027c <__get_current_exception+0x16>)
10000210:	2000      	movs	r0, #0
10000212:	e000      	b.n	10000216 <bss_fill_test>

10000214 <bss_fill_loop>:
10000214:	c101      	stmia	r1!, {r0}

10000216 <bss_fill_test>:
10000216:	4291      	cmp	r1, r2
10000218:	d1fc      	bne.n	10000214 <bss_fill_loop>

1000021a <platform_entry>:
1000021a:	4919      	ldr	r1, [pc, #100]	; (10000280 <__get_current_exception+0x1a>)
1000021c:	4788      	blx	r1
1000021e:	4919      	ldr	r1, [pc, #100]	; (10000284 <__get_current_exception+0x1e>)
10000220:	4788      	blx	r1
10000222:	4919      	ldr	r1, [pc, #100]	; (10000288 <__get_current_exception+0x22>)
10000224:	4788      	blx	r1
10000226:	be00      	bkpt	0x0000
10000228:	e7fd      	b.n	10000226 <platform_entry+0xc>

1000022a <data_cpy_loop>:
1000022a:	c901      	ldmia	r1!, {r0}
1000022c:	c201      	stmia	r2!, {r0}

1000022e <data_cpy>:
1000022e:	429a      	cmp	r2, r3
10000230:	d3fb      	bcc.n	1000022a <data_cpy_loop>
10000232:	4770      	bx	lr

10000234 <data_cpy_table>:
10000234:	10002d50 	.word	0x10002d50
10000238:	200000c0 	.word	0x200000c0
1000023c:	20000674 	.word	0x20000674
10000240:	10003304 	.word	0x10003304
10000244:	20040000 	.word	0x20040000
10000248:	20040000 	.word	0x20040000
1000024c:	10003304 	.word	0x10003304
10000250:	20041000 	.word	0x20041000
10000254:	20041000 	.word	0x20041000
10000258:	00000000 	.word	0x00000000
1000025c:	4770      	bx	lr

1000025e <hold_non_core0_in_bootrom>:
1000025e:	480b      	ldr	r0, [pc, #44]	; (1000028c <__get_current_exception+0x26>)
10000260:	f001 fdd4 	bl	10001e0c <rom_func_lookup>
10000264:	4700      	bx	r0

10000266 <__get_current_exception>:
10000266:	f3ef 8005 	mrs	r0, IPSR
1000026a:	b2c0      	uxtb	r0, r0
1000026c:	4770      	bx	lr
1000026e:	0000      	.short	0x0000
10000270:	e000ed08 	.word	0xe000ed08
10000274:	d0000000 	.word	0xd0000000
10000278:	20000678 	.word	0x20000678
1000027c:	20000a64 	.word	0x20000a64
10000280:	100017a9 	.word	0x100017a9
10000284:	1000043d 	.word	0x1000043d
10000288:	10001895 	.word	0x10001895
1000028c:	00005657 	.word	0x00005657

10000290 <__bi_50>:
10000290:	50520006 5360b3ab 10002c64              ..RP..`Sd,..

1000029c <__bi_38>:
1000029c:	50520006 02031c86 10002c74              ..RP....t,..

100002a8 <__bi_30>:
100002a8:	50520006 9da22254 10002c7c              ..RPT"..|,..

100002b4 <__bi_22>:
100002b4:	50520005 68f465de 10003304              ..RP.e.h.3..

100002c0 <_init>:
100002c0:	b5f8      	push	{r3, r4, r5, r6, r7, lr}
100002c2:	46c0      	nop			; (mov r8, r8)

100002c4 <frame_dummy>:
100002c4:	4b04      	ldr	r3, [pc, #16]	; (100002d8 <frame_dummy+0x14>)
100002c6:	b510      	push	{r4, lr}
100002c8:	2b00      	cmp	r3, #0
100002ca:	d003      	beq.n	100002d4 <frame_dummy+0x10>
100002cc:	4903      	ldr	r1, [pc, #12]	; (100002dc <frame_dummy+0x18>)
100002ce:	4804      	ldr	r0, [pc, #16]	; (100002e0 <frame_dummy+0x1c>)
100002d0:	e000      	b.n	100002d4 <frame_dummy+0x10>
100002d2:	bf00      	nop
100002d4:	bd10      	pop	{r4, pc}
100002d6:	46c0      	nop			; (mov r8, r8)
100002d8:	00000000 	.word	0x00000000
100002dc:	20000a14 	.word	0x20000a14
100002e0:	10002ba8 	.word	0x10002ba8

100002e4 <_Z14baudIRQHandlerv>:
100002e4:	b530      	push	{r4, r5, lr}
100002e6:	2401      	movs	r4, #1
100002e8:	2500      	movs	r5, #0
100002ea:	490c      	ldr	r1, [pc, #48]	; (1000031c <_Z14baudIRQHandlerv+0x38>)
100002ec:	680a      	ldr	r2, [r1, #0]
100002ee:	684b      	ldr	r3, [r1, #4]
100002f0:	1912      	adds	r2, r2, r4
100002f2:	416b      	adcs	r3, r5
100002f4:	600a      	str	r2, [r1, #0]
100002f6:	604b      	str	r3, [r1, #4]
100002f8:	4a09      	ldr	r2, [pc, #36]	; (10000320 <_Z14baudIRQHandlerv+0x3c>)
100002fa:	490a      	ldr	r1, [pc, #40]	; (10000324 <_Z14baudIRQHandlerv+0x40>)
100002fc:	6813      	ldr	r3, [r2, #0]
100002fe:	3301      	adds	r3, #1
10000300:	6013      	str	r3, [r2, #0]
10000302:	428b      	cmp	r3, r1
10000304:	d906      	bls.n	10000314 <_Z14baudIRQHandlerv+0x30>
10000306:	2001      	movs	r0, #1
10000308:	4907      	ldr	r1, [pc, #28]	; (10000328 <_Z14baudIRQHandlerv+0x44>)
1000030a:	780b      	ldrb	r3, [r1, #0]
1000030c:	4043      	eors	r3, r0
1000030e:	700b      	strb	r3, [r1, #0]
10000310:	2300      	movs	r3, #0
10000312:	6013      	str	r3, [r2, #0]
10000314:	2202      	movs	r2, #2
10000316:	4b05      	ldr	r3, [pc, #20]	; (1000032c <_Z14baudIRQHandlerv+0x48>)
10000318:	601a      	str	r2, [r3, #0]
1000031a:	bd30      	pop	{r4, r5, pc}
1000031c:	200007a0 	.word	0x200007a0
10000320:	200009a8 	.word	0x200009a8
10000324:	0002bf1f 	.word	0x0002bf1f
10000328:	20000a5c 	.word	0x20000a5c
1000032c:	50202030 	.word	0x50202030

10000330 <_Z25edgedetector_program_initP8pio_hw_tjjjf>:
10000330:	b5f0      	push	{r4, r5, r6, r7, lr}
10000332:	001c      	movs	r4, r3
10000334:	2300      	movs	r3, #0
10000336:	b085      	sub	sp, #20
10000338:	9303      	str	r3, [sp, #12]
1000033a:	2380      	movs	r3, #128	; 0x80
1000033c:	025b      	lsls	r3, r3, #9
1000033e:	9300      	str	r3, [sp, #0]
10000340:	23c0      	movs	r3, #192	; 0xc0
10000342:	031b      	lsls	r3, r3, #12
10000344:	9302      	str	r3, [sp, #8]
10000346:	1dd3      	adds	r3, r2, #7
10000348:	0015      	movs	r5, r2
1000034a:	031b      	lsls	r3, r3, #12
1000034c:	01d2      	lsls	r2, r2, #7
1000034e:	4313      	orrs	r3, r2
10000350:	9301      	str	r3, [sp, #4]
10000352:	4b1c      	ldr	r3, [pc, #112]	; (100003c4 <_Z25edgedetector_program_initP8pio_hw_tjjjf+0x94>)
10000354:	000f      	movs	r7, r1
10000356:	18c1      	adds	r1, r0, r3
10000358:	1e4b      	subs	r3, r1, #1
1000035a:	4199      	sbcs	r1, r3
1000035c:	0006      	movs	r6, r0
1000035e:	3106      	adds	r1, #6
10000360:	0020      	movs	r0, r4
10000362:	f000 fa31 	bl	100007c8 <gpio_set_function>
10000366:	9b03      	ldr	r3, [sp, #12]
10000368:	4a17      	ldr	r2, [pc, #92]	; (100003c8 <_Z25edgedetector_program_initP8pio_hw_tjjjf+0x98>)
1000036a:	03e4      	lsls	r4, r4, #15
1000036c:	4013      	ands	r3, r2
1000036e:	431c      	orrs	r4, r3
10000370:	9a02      	ldr	r2, [sp, #8]
10000372:	4b16      	ldr	r3, [pc, #88]	; (100003cc <_Z25edgedetector_program_initP8pio_hw_tjjjf+0x9c>)
10000374:	980a      	ldr	r0, [sp, #40]	; 0x28
10000376:	401a      	ands	r2, r3
10000378:	2380      	movs	r3, #128	; 0x80
1000037a:	031b      	lsls	r3, r3, #12
1000037c:	4313      	orrs	r3, r2
1000037e:	9403      	str	r4, [sp, #12]
10000380:	9302      	str	r3, [sp, #8]
10000382:	f002 f863 	bl	1000244c <__wrap___aeabi_f2uiz>
10000386:	b284      	uxth	r4, r0
10000388:	2000      	movs	r0, #0
1000038a:	2c00      	cmp	r4, #0
1000038c:	d00e      	beq.n	100003ac <_Z25edgedetector_program_initP8pio_hw_tjjjf+0x7c>
1000038e:	0020      	movs	r0, r4
10000390:	f002 f834 	bl	100023fc <__wrap___aeabi_ui2f>
10000394:	1c01      	adds	r1, r0, #0
10000396:	980a      	ldr	r0, [sp, #40]	; 0x28
10000398:	f002 f80f 	bl	100023ba <__wrap___aeabi_fsub>
1000039c:	2187      	movs	r1, #135	; 0x87
1000039e:	05c9      	lsls	r1, r1, #23
100003a0:	f002 f825 	bl	100023ee <__wrap___aeabi_fmul>
100003a4:	f002 f852 	bl	1000244c <__wrap___aeabi_f2uiz>
100003a8:	b2c0      	uxtb	r0, r0
100003aa:	0200      	lsls	r0, r0, #8
100003ac:	0424      	lsls	r4, r4, #16
100003ae:	4304      	orrs	r4, r0
100003b0:	466b      	mov	r3, sp
100003b2:	002a      	movs	r2, r5
100003b4:	0039      	movs	r1, r7
100003b6:	0030      	movs	r0, r6
100003b8:	9400      	str	r4, [sp, #0]
100003ba:	f002 facb 	bl	10002954 <pio_sm_init>
100003be:	b005      	add	sp, #20
100003c0:	bdf0      	pop	{r4, r5, r6, r7, pc}
100003c2:	46c0      	nop			; (mov r8, r8)
100003c4:	afe00000 	.word	0xafe00000
100003c8:	fff07fff 	.word	0xfff07fff
100003cc:	c000ffff 	.word	0xc000ffff

100003d0 <_Z23clkdivider_program_initP8pio_hw_tjjf>:
100003d0:	b5f0      	push	{r4, r5, r6, r7, lr}
100003d2:	46c6      	mov	lr, r8
100003d4:	0015      	movs	r5, r2
100003d6:	4698      	mov	r8, r3
100003d8:	2300      	movs	r3, #0
100003da:	b500      	push	{lr}
100003dc:	3204      	adds	r2, #4
100003de:	b084      	sub	sp, #16
100003e0:	9303      	str	r3, [sp, #12]
100003e2:	0312      	lsls	r2, r2, #12
100003e4:	01eb      	lsls	r3, r5, #7
100003e6:	431a      	orrs	r2, r3
100003e8:	2380      	movs	r3, #128	; 0x80
100003ea:	0006      	movs	r6, r0
100003ec:	031b      	lsls	r3, r3, #12
100003ee:	4640      	mov	r0, r8
100003f0:	000f      	movs	r7, r1
100003f2:	9201      	str	r2, [sp, #4]
100003f4:	9302      	str	r3, [sp, #8]
100003f6:	f002 f829 	bl	1000244c <__wrap___aeabi_f2uiz>
100003fa:	b284      	uxth	r4, r0
100003fc:	2000      	movs	r0, #0
100003fe:	2c00      	cmp	r4, #0
10000400:	d00e      	beq.n	10000420 <_Z23clkdivider_program_initP8pio_hw_tjjf+0x50>
10000402:	0020      	movs	r0, r4
10000404:	f001 fffa 	bl	100023fc <__wrap___aeabi_ui2f>
10000408:	1c01      	adds	r1, r0, #0
1000040a:	4640      	mov	r0, r8
1000040c:	f001 ffd5 	bl	100023ba <__wrap___aeabi_fsub>
10000410:	2187      	movs	r1, #135	; 0x87
10000412:	05c9      	lsls	r1, r1, #23
10000414:	f001 ffeb 	bl	100023ee <__wrap___aeabi_fmul>
10000418:	f002 f818 	bl	1000244c <__wrap___aeabi_f2uiz>
1000041c:	b2c0      	uxtb	r0, r0
1000041e:	0200      	lsls	r0, r0, #8
10000420:	0424      	lsls	r4, r4, #16
10000422:	4304      	orrs	r4, r0
10000424:	466b      	mov	r3, sp
10000426:	002a      	movs	r2, r5
10000428:	0039      	movs	r1, r7
1000042a:	0030      	movs	r0, r6
1000042c:	9400      	str	r4, [sp, #0]
1000042e:	f002 fa91 	bl	10002954 <pio_sm_init>
10000432:	b004      	add	sp, #16
10000434:	bc80      	pop	{r7}
10000436:	46b8      	mov	r8, r7
10000438:	bdf0      	pop	{r4, r5, r6, r7, pc}
1000043a:	46c0      	nop			; (mov r8, r8)

1000043c <main>:
1000043c:	b5f0      	push	{r4, r5, r6, r7, lr}
1000043e:	46d6      	mov	lr, sl
10000440:	464f      	mov	r7, r9
10000442:	4646      	mov	r6, r8
10000444:	b5c0      	push	{r6, r7, lr}
10000446:	b086      	sub	sp, #24
10000448:	4836      	ldr	r0, [pc, #216]	; (10000524 <main+0xe8>)
1000044a:	ab05      	add	r3, sp, #20
1000044c:	aa04      	add	r2, sp, #16
1000044e:	a903      	add	r1, sp, #12
10000450:	f000 f8b4 	bl	100005bc <check_sys_clock_khz>
10000454:	2800      	cmp	r0, #0
10000456:	d103      	bne.n	10000460 <main+0x24>
10000458:	4833      	ldr	r0, [pc, #204]	; (10000528 <main+0xec>)
1000045a:	4932      	ldr	r1, [pc, #200]	; (10000524 <main+0xe8>)
1000045c:	f001 fa1c 	bl	10001898 <panic>
10000460:	24d0      	movs	r4, #208	; 0xd0
10000462:	2580      	movs	r5, #128	; 0x80
10000464:	2680      	movs	r6, #128	; 0x80
10000466:	9a05      	ldr	r2, [sp, #20]
10000468:	9904      	ldr	r1, [sp, #16]
1000046a:	9803      	ldr	r0, [sp, #12]
1000046c:	4f2f      	ldr	r7, [pc, #188]	; (1000052c <main+0xf0>)
1000046e:	f000 f869 	bl	10000544 <set_sys_clock_pll>
10000472:	0624      	lsls	r4, r4, #24
10000474:	2019      	movs	r0, #25
10000476:	04ad      	lsls	r5, r5, #18
10000478:	0276      	lsls	r6, r6, #9
1000047a:	f000 f9bd 	bl	100007f8 <gpio_init>
1000047e:	6265      	str	r5, [r4, #36]	; 0x24
10000480:	6266      	str	r6, [r4, #36]	; 0x24
10000482:	6165      	str	r5, [r4, #20]
10000484:	f002 f966 	bl	10002754 <stdio_init_all>
10000488:	2101      	movs	r1, #1
1000048a:	0038      	movs	r0, r7
1000048c:	f002 f9cc 	bl	10002828 <pio_claim_unused_sm>
10000490:	4927      	ldr	r1, [pc, #156]	; (10000530 <main+0xf4>)
10000492:	4681      	mov	r9, r0
10000494:	0038      	movs	r0, r7
10000496:	f002 f9e5 	bl	10002864 <pio_add_program>
1000049a:	23fe      	movs	r3, #254	; 0xfe
1000049c:	059b      	lsls	r3, r3, #22
1000049e:	0002      	movs	r2, r0
100004a0:	4649      	mov	r1, r9
100004a2:	469a      	mov	sl, r3
100004a4:	0038      	movs	r0, r7
100004a6:	9300      	str	r3, [sp, #0]
100004a8:	2300      	movs	r3, #0
100004aa:	f7ff ff41 	bl	10000330 <_Z25edgedetector_program_initP8pio_hw_tjjjf>
100004ae:	4649      	mov	r1, r9
100004b0:	2301      	movs	r3, #1
100004b2:	4698      	mov	r8, r3
100004b4:	408b      	lsls	r3, r1
100004b6:	683a      	ldr	r2, [r7, #0]
100004b8:	4641      	mov	r1, r8
100004ba:	4313      	orrs	r3, r2
100004bc:	603b      	str	r3, [r7, #0]
100004be:	0038      	movs	r0, r7
100004c0:	f002 f9b2 	bl	10002828 <pio_claim_unused_sm>
100004c4:	491b      	ldr	r1, [pc, #108]	; (10000534 <main+0xf8>)
100004c6:	4681      	mov	r9, r0
100004c8:	0038      	movs	r0, r7
100004ca:	f002 f9cb 	bl	10002864 <pio_add_program>
100004ce:	4653      	mov	r3, sl
100004d0:	0002      	movs	r2, r0
100004d2:	4649      	mov	r1, r9
100004d4:	0038      	movs	r0, r7
100004d6:	f7ff ff7b 	bl	100003d0 <_Z23clkdivider_program_initP8pio_hw_tjjf>
100004da:	4649      	mov	r1, r9
100004dc:	4643      	mov	r3, r8
100004de:	408b      	lsls	r3, r1
100004e0:	683a      	ldr	r2, [r7, #0]
100004e2:	4641      	mov	r1, r8
100004e4:	4313      	orrs	r3, r2
100004e6:	2280      	movs	r2, #128	; 0x80
100004e8:	603b      	str	r3, [r7, #0]
100004ea:	4b13      	ldr	r3, [pc, #76]	; (10000538 <main+0xfc>)
100004ec:	0092      	lsls	r2, r2, #2
100004ee:	601a      	str	r2, [r3, #0]
100004f0:	2008      	movs	r0, #8
100004f2:	f000 fa47 	bl	10000984 <irq_set_enabled>
100004f6:	2008      	movs	r0, #8
100004f8:	4910      	ldr	r1, [pc, #64]	; (1000053c <main+0x100>)
100004fa:	f000 fa5d 	bl	100009b8 <irq_set_exclusive_handler>
100004fe:	4b10      	ldr	r3, [pc, #64]	; (10000540 <main+0x104>)
10000500:	781a      	ldrb	r2, [r3, #0]
10000502:	2a00      	cmp	r2, #0
10000504:	d007      	beq.n	10000516 <main+0xda>
10000506:	6165      	str	r5, [r4, #20]
10000508:	781a      	ldrb	r2, [r3, #0]
1000050a:	2a00      	cmp	r2, #0
1000050c:	d007      	beq.n	1000051e <main+0xe2>
1000050e:	6166      	str	r6, [r4, #20]
10000510:	781a      	ldrb	r2, [r3, #0]
10000512:	2a00      	cmp	r2, #0
10000514:	d1f7      	bne.n	10000506 <main+0xca>
10000516:	61a5      	str	r5, [r4, #24]
10000518:	781a      	ldrb	r2, [r3, #0]
1000051a:	2a00      	cmp	r2, #0
1000051c:	d1f7      	bne.n	1000050e <main+0xd2>
1000051e:	61a6      	str	r6, [r4, #24]
10000520:	e7ee      	b.n	10000500 <main+0xc4>
10000522:	46c0      	nop			; (mov r8, r8)
10000524:	00020788 	.word	0x00020788
10000528:	10002ba8 	.word	0x10002ba8
1000052c:	50200000 	.word	0x50200000
10000530:	10002bf0 	.word	0x10002bf0
10000534:	10002bdc 	.word	0x10002bdc
10000538:	50202138 	.word	0x50202138
1000053c:	100002e5 	.word	0x100002e5
10000540:	20000a5c 	.word	0x20000a5c

10000544 <set_sys_clock_pll>:
10000544:	b5f0      	push	{r4, r5, r6, r7, lr}
10000546:	b083      	sub	sp, #12
10000548:	0005      	movs	r5, r0
1000054a:	000e      	movs	r6, r1
1000054c:	0014      	movs	r4, r2
1000054e:	f000 f9f7 	bl	10000940 <running_on_fpga>
10000552:	2800      	cmp	r0, #0
10000554:	d001      	beq.n	1000055a <set_sys_clock_pll+0x16>
10000556:	b003      	add	sp, #12
10000558:	bdf0      	pop	{r4, r5, r6, r7, pc}
1000055a:	4f15      	ldr	r7, [pc, #84]	; (100005b0 <set_sys_clock_pll+0x6c>)
1000055c:	2201      	movs	r2, #1
1000055e:	003b      	movs	r3, r7
10000560:	2101      	movs	r1, #1
10000562:	9700      	str	r7, [sp, #0]
10000564:	3005      	adds	r0, #5
10000566:	f001 f9b5 	bl	100018d4 <clock_configure>
1000056a:	0033      	movs	r3, r6
1000056c:	002a      	movs	r2, r5
1000056e:	9400      	str	r4, [sp, #0]
10000570:	2101      	movs	r1, #1
10000572:	4810      	ldr	r0, [pc, #64]	; (100005b4 <set_sys_clock_pll+0x70>)
10000574:	f001 fbb2 	bl	10001cdc <pll_init>
10000578:	0021      	movs	r1, r4
1000057a:	0028      	movs	r0, r5
1000057c:	4371      	muls	r1, r6
1000057e:	f001 fc77 	bl	10001e70 <__wrap___aeabi_uidiv>
10000582:	0004      	movs	r4, r0
10000584:	4b0c      	ldr	r3, [pc, #48]	; (100005b8 <set_sys_clock_pll+0x74>)
10000586:	2200      	movs	r2, #0
10000588:	9300      	str	r3, [sp, #0]
1000058a:	2102      	movs	r1, #2
1000058c:	2004      	movs	r0, #4
1000058e:	f001 f9a1 	bl	100018d4 <clock_configure>
10000592:	0023      	movs	r3, r4
10000594:	2200      	movs	r2, #0
10000596:	2101      	movs	r1, #1
10000598:	9400      	str	r4, [sp, #0]
1000059a:	2005      	movs	r0, #5
1000059c:	f001 f99a 	bl	100018d4 <clock_configure>
100005a0:	003b      	movs	r3, r7
100005a2:	2202      	movs	r2, #2
100005a4:	2100      	movs	r1, #0
100005a6:	9700      	str	r7, [sp, #0]
100005a8:	2006      	movs	r0, #6
100005aa:	f001 f993 	bl	100018d4 <clock_configure>
100005ae:	e7d2      	b.n	10000556 <set_sys_clock_pll+0x12>
100005b0:	02dc6c00 	.word	0x02dc6c00
100005b4:	40028000 	.word	0x40028000
100005b8:	00b71b00 	.word	0x00b71b00

100005bc <check_sys_clock_khz>:
100005bc:	b5f0      	push	{r4, r5, r6, r7, lr}
100005be:	46de      	mov	lr, fp
100005c0:	4657      	mov	r7, sl
100005c2:	464e      	mov	r6, r9
100005c4:	4645      	mov	r5, r8
100005c6:	b5e0      	push	{r5, r6, r7, lr}
100005c8:	0007      	movs	r7, r0
100005ca:	b083      	sub	sp, #12
100005cc:	2004      	movs	r0, #4
100005ce:	4692      	mov	sl, r2
100005d0:	4689      	mov	r9, r1
100005d2:	469b      	mov	fp, r3
100005d4:	f001 fb7c 	bl	10001cd0 <clock_get_hz>
100005d8:	21fa      	movs	r1, #250	; 0xfa
100005da:	0089      	lsls	r1, r1, #2
100005dc:	f001 fc48 	bl	10001e70 <__wrap___aeabi_uidiv>
100005e0:	2332      	movs	r3, #50	; 0x32
100005e2:	33ff      	adds	r3, #255	; 0xff
100005e4:	9300      	str	r3, [sp, #0]
100005e6:	4653      	mov	r3, sl
100005e8:	46c8      	mov	r8, r9
100005ea:	4682      	mov	sl, r0
100005ec:	0086      	lsls	r6, r0, #2
100005ee:	1836      	adds	r6, r6, r0
100005f0:	01b6      	lsls	r6, r6, #6
100005f2:	9301      	str	r3, [sp, #4]
100005f4:	4b72      	ldr	r3, [pc, #456]	; (100007c0 <check_sys_clock_khz+0x204>)
100005f6:	4a73      	ldr	r2, [pc, #460]	; (100007c4 <check_sys_clock_khz+0x208>)
100005f8:	18f3      	adds	r3, r6, r3
100005fa:	4293      	cmp	r3, r2
100005fc:	d908      	bls.n	10000610 <check_sys_clock_khz+0x54>
100005fe:	4652      	mov	r2, sl
10000600:	9b00      	ldr	r3, [sp, #0]
10000602:	1ab6      	subs	r6, r6, r2
10000604:	3b01      	subs	r3, #1
10000606:	9300      	str	r3, [sp, #0]
10000608:	2b00      	cmp	r3, #0
1000060a:	d1f3      	bne.n	100005f4 <check_sys_clock_khz+0x38>
1000060c:	2000      	movs	r0, #0
1000060e:	e06e      	b.n	100006ee <check_sys_clock_khz+0x132>
10000610:	2131      	movs	r1, #49	; 0x31
10000612:	0030      	movs	r0, r6
10000614:	f001 fc2c 	bl	10001e70 <__wrap___aeabi_uidiv>
10000618:	4287      	cmp	r7, r0
1000061a:	d06f      	beq.n	100006fc <check_sys_clock_khz+0x140>
1000061c:	2507      	movs	r5, #7
1000061e:	1e6c      	subs	r4, r5, #1
10000620:	46a1      	mov	r9, r4
10000622:	464c      	mov	r4, r9
10000624:	436c      	muls	r4, r5
10000626:	0030      	movs	r0, r6
10000628:	0021      	movs	r1, r4
1000062a:	f001 fc21 	bl	10001e70 <__wrap___aeabi_uidiv>
1000062e:	4287      	cmp	r7, r0
10000630:	d04a      	beq.n	100006c8 <check_sys_clock_khz+0x10c>
10000632:	1eab      	subs	r3, r5, #2
10000634:	4699      	mov	r9, r3
10000636:	2d02      	cmp	r5, #2
10000638:	d100      	bne.n	1000063c <check_sys_clock_khz+0x80>
1000063a:	e0b1      	b.n	100007a0 <check_sys_clock_khz+0x1e4>
1000063c:	1b64      	subs	r4, r4, r5
1000063e:	0021      	movs	r1, r4
10000640:	0030      	movs	r0, r6
10000642:	f001 fc15 	bl	10001e70 <__wrap___aeabi_uidiv>
10000646:	4287      	cmp	r7, r0
10000648:	d066      	beq.n	10000718 <check_sys_clock_khz+0x15c>
1000064a:	1eeb      	subs	r3, r5, #3
1000064c:	4699      	mov	r9, r3
1000064e:	2d03      	cmp	r5, #3
10000650:	d068      	beq.n	10000724 <check_sys_clock_khz+0x168>
10000652:	1b64      	subs	r4, r4, r5
10000654:	0021      	movs	r1, r4
10000656:	0030      	movs	r0, r6
10000658:	f001 fc0a 	bl	10001e70 <__wrap___aeabi_uidiv>
1000065c:	4287      	cmp	r7, r0
1000065e:	d069      	beq.n	10000734 <check_sys_clock_khz+0x178>
10000660:	1f2b      	subs	r3, r5, #4
10000662:	4699      	mov	r9, r3
10000664:	2d04      	cmp	r5, #4
10000666:	d06b      	beq.n	10000740 <check_sys_clock_khz+0x184>
10000668:	1b64      	subs	r4, r4, r5
1000066a:	0021      	movs	r1, r4
1000066c:	0030      	movs	r0, r6
1000066e:	f001 fbff 	bl	10001e70 <__wrap___aeabi_uidiv>
10000672:	4287      	cmp	r7, r0
10000674:	d06f      	beq.n	10000756 <check_sys_clock_khz+0x19a>
10000676:	1f6b      	subs	r3, r5, #5
10000678:	4699      	mov	r9, r3
1000067a:	2d05      	cmp	r5, #5
1000067c:	d100      	bne.n	10000680 <check_sys_clock_khz+0xc4>
1000067e:	e071      	b.n	10000764 <check_sys_clock_khz+0x1a8>
10000680:	1b64      	subs	r4, r4, r5
10000682:	0021      	movs	r1, r4
10000684:	0030      	movs	r0, r6
10000686:	f001 fbf3 	bl	10001e70 <__wrap___aeabi_uidiv>
1000068a:	4287      	cmp	r7, r0
1000068c:	d100      	bne.n	10000690 <check_sys_clock_khz+0xd4>
1000068e:	e071      	b.n	10000774 <check_sys_clock_khz+0x1b8>
10000690:	2d06      	cmp	r5, #6
10000692:	d100      	bne.n	10000696 <check_sys_clock_khz+0xda>
10000694:	e073      	b.n	1000077e <check_sys_clock_khz+0x1c2>
10000696:	0030      	movs	r0, r6
10000698:	1fe1      	subs	r1, r4, #7
1000069a:	f001 fbe9 	bl	10001e70 <__wrap___aeabi_uidiv>
1000069e:	42b8      	cmp	r0, r7
100006a0:	d100      	bne.n	100006a4 <check_sys_clock_khz+0xe8>
100006a2:	e077      	b.n	10000794 <check_sys_clock_khz+0x1d8>
100006a4:	2124      	movs	r1, #36	; 0x24
100006a6:	0030      	movs	r0, r6
100006a8:	2506      	movs	r5, #6
100006aa:	2424      	movs	r4, #36	; 0x24
100006ac:	f001 fbe0 	bl	10001e70 <__wrap___aeabi_uidiv>
100006b0:	4287      	cmp	r7, r0
100006b2:	d025      	beq.n	10000700 <check_sys_clock_khz+0x144>
100006b4:	2305      	movs	r3, #5
100006b6:	4699      	mov	r9, r3
100006b8:	464c      	mov	r4, r9
100006ba:	436c      	muls	r4, r5
100006bc:	0030      	movs	r0, r6
100006be:	0021      	movs	r1, r4
100006c0:	f001 fbd6 	bl	10001e70 <__wrap___aeabi_uidiv>
100006c4:	4287      	cmp	r7, r0
100006c6:	d1b4      	bne.n	10000632 <check_sys_clock_khz+0x76>
100006c8:	2900      	cmp	r1, #0
100006ca:	d1b2      	bne.n	10000632 <check_sys_clock_khz+0x76>
100006cc:	9b01      	ldr	r3, [sp, #4]
100006ce:	002c      	movs	r4, r5
100006d0:	469a      	mov	sl, r3
100006d2:	464d      	mov	r5, r9
100006d4:	46c1      	mov	r9, r8
100006d6:	464b      	mov	r3, r9
100006d8:	0172      	lsls	r2, r6, #5
100006da:	1b92      	subs	r2, r2, r6
100006dc:	0092      	lsls	r2, r2, #2
100006de:	1992      	adds	r2, r2, r6
100006e0:	00d2      	lsls	r2, r2, #3
100006e2:	601a      	str	r2, [r3, #0]
100006e4:	4653      	mov	r3, sl
100006e6:	601c      	str	r4, [r3, #0]
100006e8:	465b      	mov	r3, fp
100006ea:	2001      	movs	r0, #1
100006ec:	601d      	str	r5, [r3, #0]
100006ee:	b003      	add	sp, #12
100006f0:	bcf0      	pop	{r4, r5, r6, r7}
100006f2:	46bb      	mov	fp, r7
100006f4:	46b2      	mov	sl, r6
100006f6:	46a9      	mov	r9, r5
100006f8:	46a0      	mov	r8, r4
100006fa:	bdf0      	pop	{r4, r5, r6, r7, pc}
100006fc:	2431      	movs	r4, #49	; 0x31
100006fe:	2507      	movs	r5, #7
10000700:	0021      	movs	r1, r4
10000702:	0030      	movs	r0, r6
10000704:	f001 fbb4 	bl	10001e70 <__wrap___aeabi_uidiv>
10000708:	2900      	cmp	r1, #0
1000070a:	d000      	beq.n	1000070e <check_sys_clock_khz+0x152>
1000070c:	e787      	b.n	1000061e <check_sys_clock_khz+0x62>
1000070e:	9b01      	ldr	r3, [sp, #4]
10000710:	002c      	movs	r4, r5
10000712:	46c1      	mov	r9, r8
10000714:	469a      	mov	sl, r3
10000716:	e7de      	b.n	100006d6 <check_sys_clock_khz+0x11a>
10000718:	2900      	cmp	r1, #0
1000071a:	d0d7      	beq.n	100006cc <check_sys_clock_khz+0x110>
1000071c:	1eeb      	subs	r3, r5, #3
1000071e:	4699      	mov	r9, r3
10000720:	2d03      	cmp	r5, #3
10000722:	d196      	bne.n	10000652 <check_sys_clock_khz+0x96>
10000724:	2502      	movs	r5, #2
10000726:	2404      	movs	r4, #4
10000728:	08b3      	lsrs	r3, r6, #2
1000072a:	429f      	cmp	r7, r3
1000072c:	d0e8      	beq.n	10000700 <check_sys_clock_khz+0x144>
1000072e:	2301      	movs	r3, #1
10000730:	4699      	mov	r9, r3
10000732:	e776      	b.n	10000622 <check_sys_clock_khz+0x66>
10000734:	2900      	cmp	r1, #0
10000736:	d0c9      	beq.n	100006cc <check_sys_clock_khz+0x110>
10000738:	1f2b      	subs	r3, r5, #4
1000073a:	4699      	mov	r9, r3
1000073c:	2d04      	cmp	r5, #4
1000073e:	d193      	bne.n	10000668 <check_sys_clock_khz+0xac>
10000740:	2109      	movs	r1, #9
10000742:	0030      	movs	r0, r6
10000744:	2503      	movs	r5, #3
10000746:	2409      	movs	r4, #9
10000748:	f001 fb92 	bl	10001e70 <__wrap___aeabi_uidiv>
1000074c:	4287      	cmp	r7, r0
1000074e:	d0d7      	beq.n	10000700 <check_sys_clock_khz+0x144>
10000750:	2302      	movs	r3, #2
10000752:	4699      	mov	r9, r3
10000754:	e765      	b.n	10000622 <check_sys_clock_khz+0x66>
10000756:	2900      	cmp	r1, #0
10000758:	d0b8      	beq.n	100006cc <check_sys_clock_khz+0x110>
1000075a:	1f6b      	subs	r3, r5, #5
1000075c:	4699      	mov	r9, r3
1000075e:	2d05      	cmp	r5, #5
10000760:	d000      	beq.n	10000764 <check_sys_clock_khz+0x1a8>
10000762:	e78d      	b.n	10000680 <check_sys_clock_khz+0xc4>
10000764:	2504      	movs	r5, #4
10000766:	2410      	movs	r4, #16
10000768:	0933      	lsrs	r3, r6, #4
1000076a:	429f      	cmp	r7, r3
1000076c:	d0c8      	beq.n	10000700 <check_sys_clock_khz+0x144>
1000076e:	2303      	movs	r3, #3
10000770:	4699      	mov	r9, r3
10000772:	e756      	b.n	10000622 <check_sys_clock_khz+0x66>
10000774:	2900      	cmp	r1, #0
10000776:	d0a9      	beq.n	100006cc <check_sys_clock_khz+0x110>
10000778:	2d06      	cmp	r5, #6
1000077a:	d000      	beq.n	1000077e <check_sys_clock_khz+0x1c2>
1000077c:	e78b      	b.n	10000696 <check_sys_clock_khz+0xda>
1000077e:	2119      	movs	r1, #25
10000780:	0030      	movs	r0, r6
10000782:	2505      	movs	r5, #5
10000784:	2419      	movs	r4, #25
10000786:	f001 fb73 	bl	10001e70 <__wrap___aeabi_uidiv>
1000078a:	4287      	cmp	r7, r0
1000078c:	d0b8      	beq.n	10000700 <check_sys_clock_khz+0x144>
1000078e:	2304      	movs	r3, #4
10000790:	4699      	mov	r9, r3
10000792:	e746      	b.n	10000622 <check_sys_clock_khz+0x66>
10000794:	2900      	cmp	r1, #0
10000796:	d00c      	beq.n	100007b2 <check_sys_clock_khz+0x1f6>
10000798:	2305      	movs	r3, #5
1000079a:	2506      	movs	r5, #6
1000079c:	4699      	mov	r9, r3
1000079e:	e740      	b.n	10000622 <check_sys_clock_khz+0x66>
100007a0:	42b7      	cmp	r7, r6
100007a2:	d000      	beq.n	100007a6 <check_sys_clock_khz+0x1ea>
100007a4:	e72b      	b.n	100005fe <check_sys_clock_khz+0x42>
100007a6:	9b01      	ldr	r3, [sp, #4]
100007a8:	46c1      	mov	r9, r8
100007aa:	469a      	mov	sl, r3
100007ac:	2401      	movs	r4, #1
100007ae:	2501      	movs	r5, #1
100007b0:	e791      	b.n	100006d6 <check_sys_clock_khz+0x11a>
100007b2:	9b01      	ldr	r3, [sp, #4]
100007b4:	46c1      	mov	r9, r8
100007b6:	469a      	mov	sl, r3
100007b8:	2407      	movs	r4, #7
100007ba:	2501      	movs	r5, #1
100007bc:	e78b      	b.n	100006d6 <check_sys_clock_khz+0x11a>
100007be:	46c0      	nop			; (mov r8, r8)
100007c0:	fff48e50 	.word	0xfff48e50
100007c4:	000cf850 	.word	0x000cf850

100007c8 <gpio_set_function>:
100007c8:	4a09      	ldr	r2, [pc, #36]	; (100007f0 <gpio_set_function+0x28>)
100007ca:	b510      	push	{r4, lr}
100007cc:	4694      	mov	ip, r2
100007ce:	2440      	movs	r4, #64	; 0x40
100007d0:	0083      	lsls	r3, r0, #2
100007d2:	4463      	add	r3, ip
100007d4:	681a      	ldr	r2, [r3, #0]
100007d6:	00c0      	lsls	r0, r0, #3
100007d8:	4062      	eors	r2, r4
100007da:	3480      	adds	r4, #128	; 0x80
100007dc:	4014      	ands	r4, r2
100007de:	2280      	movs	r2, #128	; 0x80
100007e0:	0152      	lsls	r2, r2, #5
100007e2:	4313      	orrs	r3, r2
100007e4:	601c      	str	r4, [r3, #0]
100007e6:	4b03      	ldr	r3, [pc, #12]	; (100007f4 <gpio_set_function+0x2c>)
100007e8:	469c      	mov	ip, r3
100007ea:	4460      	add	r0, ip
100007ec:	6041      	str	r1, [r0, #4]
100007ee:	bd10      	pop	{r4, pc}
100007f0:	4001c004 	.word	0x4001c004
100007f4:	40014000 	.word	0x40014000

100007f8 <gpio_init>:
100007f8:	2301      	movs	r3, #1
100007fa:	22d0      	movs	r2, #208	; 0xd0
100007fc:	4083      	lsls	r3, r0
100007fe:	0612      	lsls	r2, r2, #24
10000800:	6293      	str	r3, [r2, #40]	; 0x28
10000802:	6193      	str	r3, [r2, #24]
10000804:	4a09      	ldr	r2, [pc, #36]	; (1000082c <gpio_init+0x34>)
10000806:	2140      	movs	r1, #64	; 0x40
10000808:	4694      	mov	ip, r2
1000080a:	0083      	lsls	r3, r0, #2
1000080c:	4463      	add	r3, ip
1000080e:	681a      	ldr	r2, [r3, #0]
10000810:	00c0      	lsls	r0, r0, #3
10000812:	404a      	eors	r2, r1
10000814:	3180      	adds	r1, #128	; 0x80
10000816:	4011      	ands	r1, r2
10000818:	2280      	movs	r2, #128	; 0x80
1000081a:	0152      	lsls	r2, r2, #5
1000081c:	4313      	orrs	r3, r2
1000081e:	6019      	str	r1, [r3, #0]
10000820:	4b03      	ldr	r3, [pc, #12]	; (10000830 <gpio_init+0x38>)
10000822:	469c      	mov	ip, r3
10000824:	2305      	movs	r3, #5
10000826:	4460      	add	r0, ip
10000828:	6043      	str	r3, [r0, #4]
1000082a:	4770      	bx	lr
1000082c:	4001c004 	.word	0x4001c004
10000830:	40014000 	.word	0x40014000

10000834 <hw_claim_lock>:
10000834:	f3ef 8010 	mrs	r0, PRIMASK
10000838:	b672      	cpsid	i
1000083a:	4a03      	ldr	r2, [pc, #12]	; (10000848 <hw_claim_lock+0x14>)
1000083c:	6813      	ldr	r3, [r2, #0]
1000083e:	2b00      	cmp	r3, #0
10000840:	d0fc      	beq.n	1000083c <hw_claim_lock+0x8>
10000842:	f3bf 8f5f 	dmb	sy
10000846:	4770      	bx	lr
10000848:	d000012c 	.word	0xd000012c

1000084c <hw_claim_unlock>:
1000084c:	f3bf 8f5f 	dmb	sy
10000850:	2200      	movs	r2, #0
10000852:	4b02      	ldr	r3, [pc, #8]	; (1000085c <hw_claim_unlock+0x10>)
10000854:	601a      	str	r2, [r3, #0]
10000856:	f380 8810 	msr	PRIMASK, r0
1000085a:	4770      	bx	lr
1000085c:	d000012c 	.word	0xd000012c

10000860 <hw_claim_or_assert>:
10000860:	b570      	push	{r4, r5, r6, lr}
10000862:	f3ef 8c10 	mrs	ip, PRIMASK
10000866:	b672      	cpsid	i
10000868:	4d0d      	ldr	r5, [pc, #52]	; (100008a0 <hw_claim_or_assert+0x40>)
1000086a:	682b      	ldr	r3, [r5, #0]
1000086c:	2b00      	cmp	r3, #0
1000086e:	d0fc      	beq.n	1000086a <hw_claim_or_assert+0xa>
10000870:	f3bf 8f5f 	dmb	sy
10000874:	2407      	movs	r4, #7
10000876:	08cb      	lsrs	r3, r1, #3
10000878:	18c6      	adds	r6, r0, r3
1000087a:	5cc0      	ldrb	r0, [r0, r3]
1000087c:	2301      	movs	r3, #1
1000087e:	400c      	ands	r4, r1
10000880:	40a3      	lsls	r3, r4
10000882:	001c      	movs	r4, r3
10000884:	4004      	ands	r4, r0
10000886:	4203      	tst	r3, r0
10000888:	d107      	bne.n	1000089a <hw_claim_or_assert+0x3a>
1000088a:	4318      	orrs	r0, r3
1000088c:	7030      	strb	r0, [r6, #0]
1000088e:	f3bf 8f5f 	dmb	sy
10000892:	602c      	str	r4, [r5, #0]
10000894:	f38c 8810 	msr	PRIMASK, ip
10000898:	bd70      	pop	{r4, r5, r6, pc}
1000089a:	0010      	movs	r0, r2
1000089c:	f000 fffc 	bl	10001898 <panic>
100008a0:	d000012c 	.word	0xd000012c

100008a4 <hw_claim_unused_from_range>:
100008a4:	b5f8      	push	{r3, r4, r5, r6, r7, lr}
100008a6:	4647      	mov	r7, r8
100008a8:	46ce      	mov	lr, r9
100008aa:	4688      	mov	r8, r1
100008ac:	b580      	push	{r7, lr}
100008ae:	f3ef 8c10 	mrs	ip, PRIMASK
100008b2:	b672      	cpsid	i
100008b4:	4d21      	ldr	r5, [pc, #132]	; (1000093c <hw_claim_unused_from_range+0x98>)
100008b6:	682c      	ldr	r4, [r5, #0]
100008b8:	2c00      	cmp	r4, #0
100008ba:	d0fc      	beq.n	100008b6 <hw_claim_unused_from_range+0x12>
100008bc:	f3bf 8f5f 	dmb	sy
100008c0:	429a      	cmp	r2, r3
100008c2:	d82c      	bhi.n	1000091e <hw_claim_unused_from_range+0x7a>
100008c4:	08d4      	lsrs	r4, r2, #3
100008c6:	2707      	movs	r7, #7
100008c8:	5d05      	ldrb	r5, [r0, r4]
100008ca:	1906      	adds	r6, r0, r4
100008cc:	2401      	movs	r4, #1
100008ce:	4017      	ands	r7, r2
100008d0:	40bc      	lsls	r4, r7
100008d2:	422c      	tst	r4, r5
100008d4:	d01f      	beq.n	10000916 <hw_claim_unused_from_range+0x72>
100008d6:	2107      	movs	r1, #7
100008d8:	2701      	movs	r7, #1
100008da:	4689      	mov	r9, r1
100008dc:	e009      	b.n	100008f2 <hw_claim_unused_from_range+0x4e>
100008de:	08d4      	lsrs	r4, r2, #3
100008e0:	5d05      	ldrb	r5, [r0, r4]
100008e2:	1906      	adds	r6, r0, r4
100008e4:	464c      	mov	r4, r9
100008e6:	0039      	movs	r1, r7
100008e8:	4014      	ands	r4, r2
100008ea:	40a1      	lsls	r1, r4
100008ec:	000c      	movs	r4, r1
100008ee:	4229      	tst	r1, r5
100008f0:	d011      	beq.n	10000916 <hw_claim_unused_from_range+0x72>
100008f2:	3201      	adds	r2, #1
100008f4:	4293      	cmp	r3, r2
100008f6:	d2f2      	bcs.n	100008de <hw_claim_unused_from_range+0x3a>
100008f8:	2001      	movs	r0, #1
100008fa:	4240      	negs	r0, r0
100008fc:	f3bf 8f5f 	dmb	sy
10000900:	2200      	movs	r2, #0
10000902:	4b0e      	ldr	r3, [pc, #56]	; (1000093c <hw_claim_unused_from_range+0x98>)
10000904:	601a      	str	r2, [r3, #0]
10000906:	f38c 8810 	msr	PRIMASK, ip
1000090a:	2800      	cmp	r0, #0
1000090c:	db0f      	blt.n	1000092e <hw_claim_unused_from_range+0x8a>
1000090e:	bcc0      	pop	{r6, r7}
10000910:	46b9      	mov	r9, r7
10000912:	46b0      	mov	r8, r6
10000914:	bdf8      	pop	{r3, r4, r5, r6, r7, pc}
10000916:	4325      	orrs	r5, r4
10000918:	0010      	movs	r0, r2
1000091a:	7035      	strb	r5, [r6, #0]
1000091c:	e7ee      	b.n	100008fc <hw_claim_unused_from_range+0x58>
1000091e:	f3bf 8f5f 	dmb	sy
10000922:	2300      	movs	r3, #0
10000924:	602b      	str	r3, [r5, #0]
10000926:	f38c 8810 	msr	PRIMASK, ip
1000092a:	2001      	movs	r0, #1
1000092c:	4240      	negs	r0, r0
1000092e:	4643      	mov	r3, r8
10000930:	2b00      	cmp	r3, #0
10000932:	d0ec      	beq.n	1000090e <hw_claim_unused_from_range+0x6a>
10000934:	9808      	ldr	r0, [sp, #32]
10000936:	f000 ffaf 	bl	10001898 <panic>
1000093a:	46c0      	nop			; (mov r8, r8)
1000093c:	d000012c 	.word	0xd000012c

10000940 <running_on_fpga>:
10000940:	4b02      	ldr	r3, [pc, #8]	; (1000094c <running_on_fpga+0xc>)
10000942:	6818      	ldr	r0, [r3, #0]
10000944:	0780      	lsls	r0, r0, #30
10000946:	0fc0      	lsrs	r0, r0, #31
10000948:	4770      	bx	lr
1000094a:	46c0      	nop			; (mov r8, r8)
1000094c:	4006c000 	.word	0x4006c000

10000950 <spin_locks_reset>:
10000950:	2100      	movs	r1, #0
10000952:	4b04      	ldr	r3, [pc, #16]	; (10000964 <spin_locks_reset+0x14>)
10000954:	4a04      	ldr	r2, [pc, #16]	; (10000968 <spin_locks_reset+0x18>)
10000956:	f3bf 8f5f 	dmb	sy
1000095a:	c302      	stmia	r3!, {r1}
1000095c:	4293      	cmp	r3, r2
1000095e:	d1fa      	bne.n	10000956 <spin_locks_reset+0x6>
10000960:	4770      	bx	lr
10000962:	46c0      	nop			; (mov r8, r8)
10000964:	d0000100 	.word	0xd0000100
10000968:	d0000180 	.word	0xd0000180

1000096c <next_striped_spin_lock_num>:
1000096c:	4a04      	ldr	r2, [pc, #16]	; (10000980 <next_striped_spin_lock_num+0x14>)
1000096e:	7810      	ldrb	r0, [r2, #0]
10000970:	1c43      	adds	r3, r0, #1
10000972:	b2db      	uxtb	r3, r3
10000974:	2b17      	cmp	r3, #23
10000976:	d900      	bls.n	1000097a <next_striped_spin_lock_num+0xe>
10000978:	2310      	movs	r3, #16
1000097a:	7013      	strb	r3, [r2, #0]
1000097c:	4770      	bx	lr
1000097e:	46c0      	nop			; (mov r8, r8)
10000980:	20000174 	.word	0x20000174

10000984 <irq_set_enabled>:
10000984:	2301      	movs	r3, #1
10000986:	4083      	lsls	r3, r0
10000988:	2900      	cmp	r1, #0
1000098a:	d004      	beq.n	10000996 <irq_set_enabled+0x12>
1000098c:	4a03      	ldr	r2, [pc, #12]	; (1000099c <irq_set_enabled+0x18>)
1000098e:	6013      	str	r3, [r2, #0]
10000990:	4a03      	ldr	r2, [pc, #12]	; (100009a0 <irq_set_enabled+0x1c>)
10000992:	6013      	str	r3, [r2, #0]
10000994:	4770      	bx	lr
10000996:	4a03      	ldr	r2, [pc, #12]	; (100009a4 <irq_set_enabled+0x20>)
10000998:	6013      	str	r3, [r2, #0]
1000099a:	e7fb      	b.n	10000994 <irq_set_enabled+0x10>
1000099c:	e000e280 	.word	0xe000e280
100009a0:	e000e100 	.word	0xe000e100
100009a4:	e000e180 	.word	0xe000e180

100009a8 <irq_get_vtable_handler>:
100009a8:	4b02      	ldr	r3, [pc, #8]	; (100009b4 <irq_get_vtable_handler+0xc>)
100009aa:	3010      	adds	r0, #16
100009ac:	689b      	ldr	r3, [r3, #8]
100009ae:	0080      	lsls	r0, r0, #2
100009b0:	58c0      	ldr	r0, [r0, r3]
100009b2:	4770      	bx	lr
100009b4:	e000ed00 	.word	0xe000ed00

100009b8 <irq_set_exclusive_handler>:
100009b8:	b570      	push	{r4, r5, r6, lr}
100009ba:	000d      	movs	r5, r1
100009bc:	f3ef 8610 	mrs	r6, PRIMASK
100009c0:	b672      	cpsid	i
100009c2:	4a0f      	ldr	r2, [pc, #60]	; (10000a00 <irq_set_exclusive_handler+0x48>)
100009c4:	6813      	ldr	r3, [r2, #0]
100009c6:	2b00      	cmp	r3, #0
100009c8:	d0fc      	beq.n	100009c4 <irq_set_exclusive_handler+0xc>
100009ca:	f3bf 8f5f 	dmb	sy
100009ce:	4b0d      	ldr	r3, [pc, #52]	; (10000a04 <irq_set_exclusive_handler+0x4c>)
100009d0:	3010      	adds	r0, #16
100009d2:	689b      	ldr	r3, [r3, #8]
100009d4:	0084      	lsls	r4, r0, #2
100009d6:	591b      	ldr	r3, [r3, r4]
100009d8:	4a0b      	ldr	r2, [pc, #44]	; (10000a08 <irq_set_exclusive_handler+0x50>)
100009da:	4293      	cmp	r3, r2
100009dc:	d003      	beq.n	100009e6 <irq_set_exclusive_handler+0x2e>
100009de:	429d      	cmp	r5, r3
100009e0:	d001      	beq.n	100009e6 <irq_set_exclusive_handler+0x2e>
100009e2:	f000 ff71 	bl	100018c8 <hard_assertion_failure>
100009e6:	4b07      	ldr	r3, [pc, #28]	; (10000a04 <irq_set_exclusive_handler+0x4c>)
100009e8:	689b      	ldr	r3, [r3, #8]
100009ea:	511d      	str	r5, [r3, r4]
100009ec:	f3bf 8f5f 	dmb	sy
100009f0:	f3bf 8f5f 	dmb	sy
100009f4:	2200      	movs	r2, #0
100009f6:	4b02      	ldr	r3, [pc, #8]	; (10000a00 <irq_set_exclusive_handler+0x48>)
100009f8:	601a      	str	r2, [r3, #0]
100009fa:	f386 8810 	msr	PRIMASK, r6
100009fe:	bd70      	pop	{r4, r5, r6, pc}
10000a00:	d0000124 	.word	0xd0000124
10000a04:	e000ed00 	.word	0xe000ed00
10000a08:	100001cd 	.word	0x100001cd

10000a0c <irq_remove_handler>:
10000a0c:	b5f0      	push	{r4, r5, r6, r7, lr}
10000a0e:	46de      	mov	lr, fp
10000a10:	4657      	mov	r7, sl
10000a12:	464e      	mov	r6, r9
10000a14:	4645      	mov	r5, r8
10000a16:	b5e0      	push	{r5, r6, r7, lr}
10000a18:	000c      	movs	r4, r1
10000a1a:	b083      	sub	sp, #12
10000a1c:	f3ef 8a10 	mrs	sl, PRIMASK
10000a20:	b672      	cpsid	i
10000a22:	4a60      	ldr	r2, [pc, #384]	; (10000ba4 <irq_remove_handler+0x198>)
10000a24:	6813      	ldr	r3, [r2, #0]
10000a26:	2b00      	cmp	r3, #0
10000a28:	d0fc      	beq.n	10000a24 <irq_remove_handler+0x18>
10000a2a:	f3bf 8f5f 	dmb	sy
10000a2e:	2210      	movs	r2, #16
10000a30:	4691      	mov	r9, r2
10000a32:	4481      	add	r9, r0
10000a34:	464a      	mov	r2, r9
10000a36:	4b5c      	ldr	r3, [pc, #368]	; (10000ba8 <irq_remove_handler+0x19c>)
10000a38:	0096      	lsls	r6, r2, #2
10000a3a:	689b      	ldr	r3, [r3, #8]
10000a3c:	599d      	ldr	r5, [r3, r6]
10000a3e:	4b5b      	ldr	r3, [pc, #364]	; (10000bac <irq_remove_handler+0x1a0>)
10000a40:	4698      	mov	r8, r3
10000a42:	429d      	cmp	r5, r3
10000a44:	d005      	beq.n	10000a52 <irq_remove_handler+0x46>
10000a46:	42a5      	cmp	r5, r4
10000a48:	d016      	beq.n	10000a78 <irq_remove_handler+0x6c>
10000a4a:	4f59      	ldr	r7, [pc, #356]	; (10000bb0 <irq_remove_handler+0x1a4>)
10000a4c:	1beb      	subs	r3, r5, r7
10000a4e:	2b2f      	cmp	r3, #47	; 0x2f
10000a50:	d914      	bls.n	10000a7c <irq_remove_handler+0x70>
10000a52:	4b55      	ldr	r3, [pc, #340]	; (10000ba8 <irq_remove_handler+0x19c>)
10000a54:	689b      	ldr	r3, [r3, #8]
10000a56:	519d      	str	r5, [r3, r6]
10000a58:	f3bf 8f5f 	dmb	sy
10000a5c:	f3bf 8f5f 	dmb	sy
10000a60:	2200      	movs	r2, #0
10000a62:	4b50      	ldr	r3, [pc, #320]	; (10000ba4 <irq_remove_handler+0x198>)
10000a64:	601a      	str	r2, [r3, #0]
10000a66:	f38a 8810 	msr	PRIMASK, sl
10000a6a:	b003      	add	sp, #12
10000a6c:	bcf0      	pop	{r4, r5, r6, r7}
10000a6e:	46bb      	mov	fp, r7
10000a70:	46b2      	mov	sl, r6
10000a72:	46a9      	mov	r9, r5
10000a74:	46a0      	mov	r8, r4
10000a76:	bdf0      	pop	{r4, r5, r6, r7, pc}
10000a78:	001d      	movs	r5, r3
10000a7a:	e7ea      	b.n	10000a52 <irq_remove_handler+0x46>
10000a7c:	2301      	movs	r3, #1
10000a7e:	4083      	lsls	r3, r0
10000a80:	469b      	mov	fp, r3
10000a82:	465a      	mov	r2, fp
10000a84:	4b4b      	ldr	r3, [pc, #300]	; (10000bb4 <irq_remove_handler+0x1a8>)
10000a86:	681b      	ldr	r3, [r3, #0]
10000a88:	401a      	ands	r2, r3
10000a8a:	9200      	str	r2, [sp, #0]
10000a8c:	465a      	mov	r2, fp
10000a8e:	4b4a      	ldr	r3, [pc, #296]	; (10000bb8 <irq_remove_handler+0x1ac>)
10000a90:	601a      	str	r2, [r3, #0]
10000a92:	f3bf 8f5f 	dmb	sy
10000a96:	f7ff fbe6 	bl	10000266 <__get_current_exception>
10000a9a:	1e03      	subs	r3, r0, #0
10000a9c:	9001      	str	r0, [sp, #4]
10000a9e:	d11d      	bne.n	10000adc <irq_remove_handler+0xd0>
10000aa0:	002a      	movs	r2, r5
10000aa2:	3301      	adds	r3, #1
10000aa4:	439a      	bics	r2, r3
10000aa6:	6890      	ldr	r0, [r2, #8]
10000aa8:	4284      	cmp	r4, r0
10000aaa:	d108      	bne.n	10000abe <irq_remove_handler+0xb2>
10000aac:	e071      	b.n	10000b92 <irq_remove_handler+0x186>
10000aae:	004b      	lsls	r3, r1, #1
10000ab0:	185b      	adds	r3, r3, r1
10000ab2:	009b      	lsls	r3, r3, #2
10000ab4:	18fb      	adds	r3, r7, r3
10000ab6:	6898      	ldr	r0, [r3, #8]
10000ab8:	42a0      	cmp	r0, r4
10000aba:	d045      	beq.n	10000b48 <irq_remove_handler+0x13c>
10000abc:	001a      	movs	r2, r3
10000abe:	2106      	movs	r1, #6
10000ac0:	5651      	ldrsb	r1, [r2, r1]
10000ac2:	2900      	cmp	r1, #0
10000ac4:	daf3      	bge.n	10000aae <irq_remove_handler+0xa2>
10000ac6:	4284      	cmp	r4, r0
10000ac8:	d06a      	beq.n	10000ba0 <irq_remove_handler+0x194>
10000aca:	9b00      	ldr	r3, [sp, #0]
10000acc:	2b00      	cmp	r3, #0
10000ace:	d034      	beq.n	10000b3a <irq_remove_handler+0x12e>
10000ad0:	465a      	mov	r2, fp
10000ad2:	4b3a      	ldr	r3, [pc, #232]	; (10000bbc <irq_remove_handler+0x1b0>)
10000ad4:	601a      	str	r2, [r3, #0]
10000ad6:	4b37      	ldr	r3, [pc, #220]	; (10000bb4 <irq_remove_handler+0x1a8>)
10000ad8:	601a      	str	r2, [r3, #0]
10000ada:	e7ba      	b.n	10000a52 <irq_remove_handler+0x46>
10000adc:	4581      	cmp	r9, r0
10000ade:	d130      	bne.n	10000b42 <irq_remove_handler+0x136>
10000ae0:	002a      	movs	r2, r5
10000ae2:	2301      	movs	r3, #1
10000ae4:	439a      	bics	r2, r3
10000ae6:	6890      	ldr	r0, [r2, #8]
10000ae8:	4284      	cmp	r4, r0
10000aea:	d1e8      	bne.n	10000abe <irq_remove_handler+0xb2>
10000aec:	2106      	movs	r1, #6
10000aee:	5651      	ldrsb	r1, [r2, r1]
10000af0:	0013      	movs	r3, r2
10000af2:	2900      	cmp	r1, #0
10000af4:	db40      	blt.n	10000b78 <irq_remove_handler+0x16c>
10000af6:	004a      	lsls	r2, r1, #1
10000af8:	1850      	adds	r0, r2, r1
10000afa:	0080      	lsls	r0, r0, #2
10000afc:	183c      	adds	r4, r7, r0
10000afe:	4680      	mov	r8, r0
10000b00:	68a0      	ldr	r0, [r4, #8]
10000b02:	6098      	str	r0, [r3, #8]
10000b04:	79e0      	ldrb	r0, [r4, #7]
10000b06:	71d8      	strb	r0, [r3, #7]
10000b08:	2006      	movs	r0, #6
10000b0a:	5620      	ldrsb	r0, [r4, r0]
10000b0c:	7198      	strb	r0, [r3, #6]
10000b0e:	2800      	cmp	r0, #0
10000b10:	db2f      	blt.n	10000b72 <irq_remove_handler+0x166>
10000b12:	88a4      	ldrh	r4, [r4, #4]
10000b14:	1af8      	subs	r0, r7, r3
10000b16:	0564      	lsls	r4, r4, #21
10000b18:	1524      	asrs	r4, r4, #20
10000b1a:	4444      	add	r4, r8
10000b1c:	1900      	adds	r0, r0, r4
10000b1e:	24e0      	movs	r4, #224	; 0xe0
10000b20:	0500      	lsls	r0, r0, #20
10000b22:	0d40      	lsrs	r0, r0, #21
10000b24:	0224      	lsls	r4, r4, #8
10000b26:	4320      	orrs	r0, r4
10000b28:	8098      	strh	r0, [r3, #4]
10000b2a:	1853      	adds	r3, r2, r1
10000b2c:	4a24      	ldr	r2, [pc, #144]	; (10000bc0 <irq_remove_handler+0x1b4>)
10000b2e:	009b      	lsls	r3, r3, #2
10000b30:	7810      	ldrb	r0, [r2, #0]
10000b32:	18fb      	adds	r3, r7, r3
10000b34:	7198      	strb	r0, [r3, #6]
10000b36:	7011      	strb	r1, [r2, #0]
10000b38:	e7c7      	b.n	10000aca <irq_remove_handler+0xbe>
10000b3a:	465a      	mov	r2, fp
10000b3c:	4b1e      	ldr	r3, [pc, #120]	; (10000bb8 <irq_remove_handler+0x1ac>)
10000b3e:	601a      	str	r2, [r3, #0]
10000b40:	e787      	b.n	10000a52 <irq_remove_handler+0x46>
10000b42:	f000 fec1 	bl	100018c8 <hard_assertion_failure>
10000b46:	e7cb      	b.n	10000ae0 <irq_remove_handler+0xd4>
10000b48:	2106      	movs	r1, #6
10000b4a:	5659      	ldrsb	r1, [r3, r1]
10000b4c:	2900      	cmp	r1, #0
10000b4e:	dad2      	bge.n	10000af6 <irq_remove_handler+0xea>
10000b50:	9901      	ldr	r1, [sp, #4]
10000b52:	2900      	cmp	r1, #0
10000b54:	d110      	bne.n	10000b78 <irq_remove_handler+0x16c>
10000b56:	31ff      	adds	r1, #255	; 0xff
10000b58:	7191      	strb	r1, [r2, #6]
10000b5a:	491a      	ldr	r1, [pc, #104]	; (10000bc4 <irq_remove_handler+0x1b8>)
10000b5c:	8091      	strh	r1, [r2, #4]
10000b5e:	4918      	ldr	r1, [pc, #96]	; (10000bc0 <irq_remove_handler+0x1b4>)
10000b60:	780a      	ldrb	r2, [r1, #0]
10000b62:	719a      	strb	r2, [r3, #6]
10000b64:	4a18      	ldr	r2, [pc, #96]	; (10000bc8 <irq_remove_handler+0x1bc>)
10000b66:	1bdb      	subs	r3, r3, r7
10000b68:	415b      	adcs	r3, r3
10000b6a:	435a      	muls	r2, r3
10000b6c:	0d12      	lsrs	r2, r2, #20
10000b6e:	700a      	strb	r2, [r1, #0]
10000b70:	e7ab      	b.n	10000aca <irq_remove_handler+0xbe>
10000b72:	20bd      	movs	r0, #189	; 0xbd
10000b74:	0200      	lsls	r0, r0, #8
10000b76:	e7d7      	b.n	10000b28 <irq_remove_handler+0x11c>
10000b78:	4a14      	ldr	r2, [pc, #80]	; (10000bcc <irq_remove_handler+0x1c0>)
10000b7a:	4915      	ldr	r1, [pc, #84]	; (10000bd0 <irq_remove_handler+0x1c4>)
10000b7c:	1ad2      	subs	r2, r2, r3
10000b7e:	3a08      	subs	r2, #8
10000b80:	0250      	lsls	r0, r2, #9
10000b82:	0d40      	lsrs	r0, r0, #21
10000b84:	4301      	orrs	r1, r0
10000b86:	8099      	strh	r1, [r3, #4]
10000b88:	4912      	ldr	r1, [pc, #72]	; (10000bd4 <irq_remove_handler+0x1c8>)
10000b8a:	0852      	lsrs	r2, r2, #1
10000b8c:	430a      	orrs	r2, r1
10000b8e:	80da      	strh	r2, [r3, #6]
10000b90:	e79b      	b.n	10000aca <irq_remove_handler+0xbe>
10000b92:	2106      	movs	r1, #6
10000b94:	5651      	ldrsb	r1, [r2, r1]
10000b96:	0013      	movs	r3, r2
10000b98:	2900      	cmp	r1, #0
10000b9a:	daac      	bge.n	10000af6 <irq_remove_handler+0xea>
10000b9c:	4645      	mov	r5, r8
10000b9e:	e7de      	b.n	10000b5e <irq_remove_handler+0x152>
10000ba0:	0013      	movs	r3, r2
10000ba2:	e7d5      	b.n	10000b50 <irq_remove_handler+0x144>
10000ba4:	d0000124 	.word	0xd0000124
10000ba8:	e000ed00 	.word	0xe000ed00
10000bac:	100001cd 	.word	0x100001cd
10000bb0:	20000178 	.word	0x20000178
10000bb4:	e000e100 	.word	0xe000e100
10000bb8:	e000e180 	.word	0xe000e180
10000bbc:	e000e280 	.word	0xe000e280
10000bc0:	20000a5f 	.word	0x20000a5f
10000bc4:	ffffbd00 	.word	0xffffbd00
10000bc8:	0000aaaa 	.word	0x0000aaaa
10000bcc:	200001b2 	.word	0x200001b2
10000bd0:	fffff000 	.word	0xfffff000
10000bd4:	fffff800 	.word	0xfffff800

10000bd8 <irq_add_tail_to_free_list>:
10000bd8:	b5f8      	push	{r3, r4, r5, r6, r7, lr}
10000bda:	2501      	movs	r5, #1
10000bdc:	0004      	movs	r4, r0
10000bde:	4305      	orrs	r5, r0
10000be0:	f7ff fb41 	bl	10000266 <__get_current_exception>
10000be4:	f3ef 8c10 	mrs	ip, PRIMASK
10000be8:	b672      	cpsid	i
10000bea:	4a21      	ldr	r2, [pc, #132]	; (10000c70 <irq_add_tail_to_free_list+0x98>)
10000bec:	6813      	ldr	r3, [r2, #0]
10000bee:	2b00      	cmp	r3, #0
10000bf0:	d0fc      	beq.n	10000bec <irq_add_tail_to_free_list+0x14>
10000bf2:	f3bf 8f5f 	dmb	sy
10000bf6:	4e1f      	ldr	r6, [pc, #124]	; (10000c74 <irq_add_tail_to_free_list+0x9c>)
10000bf8:	0021      	movs	r1, r4
10000bfa:	68b7      	ldr	r7, [r6, #8]
10000bfc:	4a1e      	ldr	r2, [pc, #120]	; (10000c78 <irq_add_tail_to_free_list+0xa0>)
10000bfe:	4b1f      	ldr	r3, [pc, #124]	; (10000c7c <irq_add_tail_to_free_list+0xa4>)
10000c00:	1a89      	subs	r1, r1, r2
10000c02:	4149      	adcs	r1, r1
10000c04:	434b      	muls	r3, r1
10000c06:	0d1b      	lsrs	r3, r3, #20
10000c08:	b259      	sxtb	r1, r3
10000c0a:	0083      	lsls	r3, r0, #2
10000c0c:	58f8      	ldr	r0, [r7, r3]
10000c0e:	42a8      	cmp	r0, r5
10000c10:	d01c      	beq.n	10000c4c <irq_add_tail_to_free_list+0x74>
10000c12:	2306      	movs	r3, #6
10000c14:	56d3      	ldrsb	r3, [r2, r3]
10000c16:	428b      	cmp	r3, r1
10000c18:	d01c      	beq.n	10000c54 <irq_add_tail_to_free_list+0x7c>
10000c1a:	2312      	movs	r3, #18
10000c1c:	56d3      	ldrsb	r3, [r2, r3]
10000c1e:	428b      	cmp	r3, r1
10000c20:	d022      	beq.n	10000c68 <irq_add_tail_to_free_list+0x90>
10000c22:	231e      	movs	r3, #30
10000c24:	56d3      	ldrsb	r3, [r2, r3]
10000c26:	428b      	cmp	r3, r1
10000c28:	d020      	beq.n	10000c6c <irq_add_tail_to_free_list+0x94>
10000c2a:	232a      	movs	r3, #42	; 0x2a
10000c2c:	56d3      	ldrsb	r3, [r2, r3]
10000c2e:	2003      	movs	r0, #3
10000c30:	428b      	cmp	r3, r1
10000c32:	d010      	beq.n	10000c56 <irq_add_tail_to_free_list+0x7e>
10000c34:	4b12      	ldr	r3, [pc, #72]	; (10000c80 <irq_add_tail_to_free_list+0xa8>)
10000c36:	781a      	ldrb	r2, [r3, #0]
10000c38:	7019      	strb	r1, [r3, #0]
10000c3a:	71a2      	strb	r2, [r4, #6]
10000c3c:	f3bf 8f5f 	dmb	sy
10000c40:	2200      	movs	r2, #0
10000c42:	4b0b      	ldr	r3, [pc, #44]	; (10000c70 <irq_add_tail_to_free_list+0x98>)
10000c44:	601a      	str	r2, [r3, #0]
10000c46:	f38c 8810 	msr	PRIMASK, ip
10000c4a:	bdf8      	pop	{r3, r4, r5, r6, r7, pc}
10000c4c:	68b2      	ldr	r2, [r6, #8]
10000c4e:	480d      	ldr	r0, [pc, #52]	; (10000c84 <irq_add_tail_to_free_list+0xac>)
10000c50:	50d0      	str	r0, [r2, r3]
10000c52:	e7ef      	b.n	10000c34 <irq_add_tail_to_free_list+0x5c>
10000c54:	2000      	movs	r0, #0
10000c56:	0043      	lsls	r3, r0, #1
10000c58:	181b      	adds	r3, r3, r0
10000c5a:	009b      	lsls	r3, r3, #2
10000c5c:	18d2      	adds	r2, r2, r3
10000c5e:	23ff      	movs	r3, #255	; 0xff
10000c60:	7193      	strb	r3, [r2, #6]
10000c62:	4b09      	ldr	r3, [pc, #36]	; (10000c88 <irq_add_tail_to_free_list+0xb0>)
10000c64:	8093      	strh	r3, [r2, #4]
10000c66:	e7e5      	b.n	10000c34 <irq_add_tail_to_free_list+0x5c>
10000c68:	2001      	movs	r0, #1
10000c6a:	e7f4      	b.n	10000c56 <irq_add_tail_to_free_list+0x7e>
10000c6c:	2002      	movs	r0, #2
10000c6e:	e7f2      	b.n	10000c56 <irq_add_tail_to_free_list+0x7e>
10000c70:	d0000124 	.word	0xd0000124
10000c74:	e000ed00 	.word	0xe000ed00
10000c78:	20000178 	.word	0x20000178
10000c7c:	0000aaaa 	.word	0x0000aaaa
10000c80:	20000a5f 	.word	0x20000a5f
10000c84:	100001cd 	.word	0x100001cd
10000c88:	ffffbd00 	.word	0xffffbd00

10000c8c <irq_init_priorities>:
10000c8c:	4b05      	ldr	r3, [pc, #20]	; (10000ca4 <irq_init_priorities+0x18>)
10000c8e:	4a06      	ldr	r2, [pc, #24]	; (10000ca8 <irq_init_priorities+0x1c>)
10000c90:	6013      	str	r3, [r2, #0]
10000c92:	4a06      	ldr	r2, [pc, #24]	; (10000cac <irq_init_priorities+0x20>)
10000c94:	6013      	str	r3, [r2, #0]
10000c96:	6053      	str	r3, [r2, #4]
10000c98:	6093      	str	r3, [r2, #8]
10000c9a:	60d3      	str	r3, [r2, #12]
10000c9c:	6113      	str	r3, [r2, #16]
10000c9e:	6153      	str	r3, [r2, #20]
10000ca0:	6193      	str	r3, [r2, #24]
10000ca2:	4770      	bx	lr
10000ca4:	80808080 	.word	0x80808080
10000ca8:	e000e400 	.word	0xe000e400
10000cac:	e000e404 	.word	0xe000e404

10000cb0 <lock_init>:
10000cb0:	4b02      	ldr	r3, [pc, #8]	; (10000cbc <lock_init+0xc>)
10000cb2:	469c      	mov	ip, r3
10000cb4:	4461      	add	r1, ip
10000cb6:	0089      	lsls	r1, r1, #2
10000cb8:	6001      	str	r1, [r0, #0]
10000cba:	4770      	bx	lr
10000cbc:	34000040 	.word	0x34000040

10000cc0 <timer_pool_entry_comparator>:
10000cc0:	6883      	ldr	r3, [r0, #8]
10000cc2:	480b      	ldr	r0, [pc, #44]	; (10000cf0 <timer_pool_entry_comparator+0x30>)
10000cc4:	b510      	push	{r4, lr}
10000cc6:	4684      	mov	ip, r0
10000cc8:	4461      	add	r1, ip
10000cca:	4462      	add	r2, ip
10000ccc:	0112      	lsls	r2, r2, #4
10000cce:	0109      	lsls	r1, r1, #4
10000cd0:	1859      	adds	r1, r3, r1
10000cd2:	189b      	adds	r3, r3, r2
10000cd4:	685c      	ldr	r4, [r3, #4]
10000cd6:	684a      	ldr	r2, [r1, #4]
10000cd8:	2001      	movs	r0, #1
10000cda:	4294      	cmp	r4, r2
10000cdc:	d801      	bhi.n	10000ce2 <timer_pool_entry_comparator+0x22>
10000cde:	d002      	beq.n	10000ce6 <timer_pool_entry_comparator+0x26>
10000ce0:	2000      	movs	r0, #0
10000ce2:	b2c0      	uxtb	r0, r0
10000ce4:	bd10      	pop	{r4, pc}
10000ce6:	681a      	ldr	r2, [r3, #0]
10000ce8:	680b      	ldr	r3, [r1, #0]
10000cea:	429a      	cmp	r2, r3
10000cec:	d8f9      	bhi.n	10000ce2 <timer_pool_entry_comparator+0x22>
10000cee:	e7f7      	b.n	10000ce0 <timer_pool_entry_comparator+0x20>
10000cf0:	0fffffff 	.word	0x0fffffff

10000cf4 <add_alarm_under_lock.isra.0>:
10000cf4:	b5f8      	push	{r3, r4, r5, r6, r7, lr}
10000cf6:	4657      	mov	r7, sl
10000cf8:	4645      	mov	r5, r8
10000cfa:	464e      	mov	r6, r9
10000cfc:	46de      	mov	lr, fp
10000cfe:	b5e0      	push	{r5, r6, r7, lr}
10000d00:	4698      	mov	r8, r3
10000d02:	ab0c      	add	r3, sp, #48	; 0x30
10000d04:	781c      	ldrb	r4, [r3, #0]
10000d06:	ab0d      	add	r3, sp, #52	; 0x34
10000d08:	781b      	ldrb	r3, [r3, #0]
10000d0a:	0007      	movs	r7, r0
10000d0c:	4691      	mov	r9, r2
10000d0e:	469a      	mov	sl, r3
10000d10:	6805      	ldr	r5, [r0, #0]
10000d12:	2c00      	cmp	r4, #0
10000d14:	d15a      	bne.n	10000dcc <add_alarm_under_lock.isra.0+0xd8>
10000d16:	7bac      	ldrb	r4, [r5, #14]
10000d18:	2c00      	cmp	r4, #0
10000d1a:	d03b      	beq.n	10000d94 <add_alarm_under_lock.isra.0+0xa0>
10000d1c:	0066      	lsls	r6, r4, #1
10000d1e:	6829      	ldr	r1, [r5, #0]
10000d20:	1936      	adds	r6, r6, r4
10000d22:	3e03      	subs	r6, #3
10000d24:	1989      	adds	r1, r1, r6
10000d26:	784b      	ldrb	r3, [r1, #1]
10000d28:	73ab      	strb	r3, [r5, #14]
10000d2a:	2b00      	cmp	r3, #0
10000d2c:	d100      	bne.n	10000d30 <add_alarm_under_lock.isra.0+0x3c>
10000d2e:	73eb      	strb	r3, [r5, #15]
10000d30:	2300      	movs	r3, #0
10000d32:	708b      	strb	r3, [r1, #2]
10000d34:	704b      	strb	r3, [r1, #1]
10000d36:	700b      	strb	r3, [r1, #0]
10000d38:	4b2b      	ldr	r3, [pc, #172]	; (10000de8 <add_alarm_under_lock.isra.0+0xf4>)
10000d3a:	18e2      	adds	r2, r4, r3
10000d3c:	68bb      	ldr	r3, [r7, #8]
10000d3e:	0112      	lsls	r2, r2, #4
10000d40:	189b      	adds	r3, r3, r2
10000d42:	464a      	mov	r2, r9
10000d44:	601a      	str	r2, [r3, #0]
10000d46:	4642      	mov	r2, r8
10000d48:	605a      	str	r2, [r3, #4]
10000d4a:	9a0a      	ldr	r2, [sp, #40]	; 0x28
10000d4c:	609a      	str	r2, [r3, #8]
10000d4e:	9a0b      	ldr	r2, [sp, #44]	; 0x2c
10000d50:	60da      	str	r2, [r3, #12]
10000d52:	2300      	movs	r3, #0
10000d54:	708b      	strb	r3, [r1, #2]
10000d56:	704b      	strb	r3, [r1, #1]
10000d58:	700b      	strb	r3, [r1, #0]
10000d5a:	7b6b      	ldrb	r3, [r5, #13]
10000d5c:	469b      	mov	fp, r3
10000d5e:	2b00      	cmp	r3, #0
10000d60:	d027      	beq.n	10000db2 <add_alarm_under_lock.isra.0+0xbe>
10000d62:	0022      	movs	r2, r4
10000d64:	686b      	ldr	r3, [r5, #4]
10000d66:	4659      	mov	r1, fp
10000d68:	68a8      	ldr	r0, [r5, #8]
10000d6a:	4798      	blx	r3
10000d6c:	465b      	mov	r3, fp
10000d6e:	005b      	lsls	r3, r3, #1
10000d70:	445b      	add	r3, fp
10000d72:	682a      	ldr	r2, [r5, #0]
10000d74:	3b03      	subs	r3, #3
10000d76:	2800      	cmp	r0, #0
10000d78:	d012      	beq.n	10000da0 <add_alarm_under_lock.isra.0+0xac>
10000d7a:	4658      	mov	r0, fp
10000d7c:	1996      	adds	r6, r2, r6
10000d7e:	70b0      	strb	r0, [r6, #2]
10000d80:	18d1      	adds	r1, r2, r3
10000d82:	5cd3      	ldrb	r3, [r2, r3]
10000d84:	2b00      	cmp	r3, #0
10000d86:	d000      	beq.n	10000d8a <add_alarm_under_lock.isra.0+0x96>
10000d88:	7073      	strb	r3, [r6, #1]
10000d8a:	465b      	mov	r3, fp
10000d8c:	700c      	strb	r4, [r1, #0]
10000d8e:	736b      	strb	r3, [r5, #13]
10000d90:	455c      	cmp	r4, fp
10000d92:	d00f      	beq.n	10000db4 <add_alarm_under_lock.isra.0+0xc0>
10000d94:	bcf0      	pop	{r4, r5, r6, r7}
10000d96:	46bb      	mov	fp, r7
10000d98:	46b2      	mov	sl, r6
10000d9a:	46a9      	mov	r9, r5
10000d9c:	46a0      	mov	r8, r4
10000d9e:	bdf8      	pop	{r3, r4, r5, r6, r7, pc}
10000da0:	18d3      	adds	r3, r2, r3
10000da2:	709c      	strb	r4, [r3, #2]
10000da4:	1991      	adds	r1, r2, r6
10000da6:	5d92      	ldrb	r2, [r2, r6]
10000da8:	2a00      	cmp	r2, #0
10000daa:	d000      	beq.n	10000dae <add_alarm_under_lock.isra.0+0xba>
10000dac:	705a      	strb	r2, [r3, #1]
10000dae:	465b      	mov	r3, fp
10000db0:	700b      	strb	r3, [r1, #0]
10000db2:	736c      	strb	r4, [r5, #13]
10000db4:	464a      	mov	r2, r9
10000db6:	4643      	mov	r3, r8
10000db8:	7d38      	ldrb	r0, [r7, #20]
10000dba:	f000 f9e3 	bl	10001184 <hardware_alarm_set_target>
10000dbe:	1e05      	subs	r5, r0, #0
10000dc0:	d10a      	bne.n	10000dd8 <add_alarm_under_lock.isra.0+0xe4>
10000dc2:	9b0e      	ldr	r3, [sp, #56]	; 0x38
10000dc4:	2b00      	cmp	r3, #0
10000dc6:	d0e5      	beq.n	10000d94 <add_alarm_under_lock.isra.0+0xa0>
10000dc8:	701d      	strb	r5, [r3, #0]
10000dca:	e7e3      	b.n	10000d94 <add_alarm_under_lock.isra.0+0xa0>
10000dcc:	0066      	lsls	r6, r4, #1
10000dce:	6829      	ldr	r1, [r5, #0]
10000dd0:	1936      	adds	r6, r6, r4
10000dd2:	3e03      	subs	r6, #3
10000dd4:	1989      	adds	r1, r1, r6
10000dd6:	e7af      	b.n	10000d38 <add_alarm_under_lock.isra.0+0x44>
10000dd8:	4653      	mov	r3, sl
10000dda:	2b00      	cmp	r3, #0
10000ddc:	d1f1      	bne.n	10000dc2 <add_alarm_under_lock.isra.0+0xce>
10000dde:	0021      	movs	r1, r4
10000de0:	6838      	ldr	r0, [r7, #0]
10000de2:	f000 fc19 	bl	10001618 <ph_remove_and_free_node>
10000de6:	e7ec      	b.n	10000dc2 <add_alarm_under_lock.isra.0+0xce>
10000de8:	0fffffff 	.word	0x0fffffff

10000dec <alarm_pool_alarm_callback>:
10000dec:	b5f0      	push	{r4, r5, r6, r7, lr}
10000dee:	46de      	mov	lr, fp
10000df0:	4657      	mov	r7, sl
10000df2:	464e      	mov	r6, r9
10000df4:	4645      	mov	r5, r8
10000df6:	2300      	movs	r3, #0
10000df8:	b5e0      	push	{r5, r6, r7, lr}
10000dfa:	b08d      	sub	sp, #52	; 0x34
10000dfc:	930a      	str	r3, [sp, #40]	; 0x28
10000dfe:	4b6a      	ldr	r3, [pc, #424]	; (10000fa8 <alarm_pool_alarm_callback+0x1bc>)
10000e00:	0082      	lsls	r2, r0, #2
10000e02:	58d7      	ldr	r7, [r2, r3]
10000e04:	2300      	movs	r3, #0
10000e06:	469b      	mov	fp, r3
10000e08:	900b      	str	r0, [sp, #44]	; 0x2c
10000e0a:	f000 f96b 	bl	100010e4 <time_us_64>
10000e0e:	0002      	movs	r2, r0
10000e10:	000b      	movs	r3, r1
10000e12:	6878      	ldr	r0, [r7, #4]
10000e14:	f3ef 8910 	mrs	r9, PRIMASK
10000e18:	b672      	cpsid	i
10000e1a:	464d      	mov	r5, r9
10000e1c:	6801      	ldr	r1, [r0, #0]
10000e1e:	2900      	cmp	r1, #0
10000e20:	d0fc      	beq.n	10000e1c <alarm_pool_alarm_callback+0x30>
10000e22:	46a9      	mov	r9, r5
10000e24:	f3bf 8f5f 	dmb	sy
10000e28:	6839      	ldr	r1, [r7, #0]
10000e2a:	7b4e      	ldrb	r6, [r1, #13]
10000e2c:	468c      	mov	ip, r1
10000e2e:	2e00      	cmp	r6, #0
10000e30:	d02e      	beq.n	10000e90 <alarm_pool_alarm_callback+0xa4>
10000e32:	68bc      	ldr	r4, [r7, #8]
10000e34:	495d      	ldr	r1, [pc, #372]	; (10000fac <alarm_pool_alarm_callback+0x1c0>)
10000e36:	46a2      	mov	sl, r4
10000e38:	1871      	adds	r1, r6, r1
10000e3a:	0109      	lsls	r1, r1, #4
10000e3c:	448a      	add	sl, r1
10000e3e:	4651      	mov	r1, sl
10000e40:	6808      	ldr	r0, [r1, #0]
10000e42:	6849      	ldr	r1, [r1, #4]
10000e44:	0004      	movs	r4, r0
10000e46:	000d      	movs	r5, r1
10000e48:	1aa4      	subs	r4, r4, r2
10000e4a:	419d      	sbcs	r5, r3
10000e4c:	2d00      	cmp	r5, #0
10000e4e:	dd5e      	ble.n	10000f0e <alarm_pool_alarm_callback+0x122>
10000e50:	0002      	movs	r2, r0
10000e52:	000b      	movs	r3, r1
10000e54:	980b      	ldr	r0, [sp, #44]	; 0x2c
10000e56:	f000 f995 	bl	10001184 <hardware_alarm_set_target>
10000e5a:	2300      	movs	r3, #0
10000e5c:	2200      	movs	r2, #0
10000e5e:	469a      	mov	sl, r3
10000e60:	2300      	movs	r3, #0
10000e62:	9208      	str	r2, [sp, #32]
10000e64:	9309      	str	r3, [sp, #36]	; 0x24
10000e66:	2300      	movs	r3, #0
10000e68:	4698      	mov	r8, r3
10000e6a:	687b      	ldr	r3, [r7, #4]
10000e6c:	f3bf 8f5f 	dmb	sy
10000e70:	465a      	mov	r2, fp
10000e72:	601a      	str	r2, [r3, #0]
10000e74:	f389 8810 	msr	PRIMASK, r9
10000e78:	4643      	mov	r3, r8
10000e7a:	2b00      	cmp	r3, #0
10000e7c:	d112      	bne.n	10000ea4 <alarm_pool_alarm_callback+0xb8>
10000e7e:	2800      	cmp	r0, #0
10000e80:	d1c3      	bne.n	10000e0a <alarm_pool_alarm_callback+0x1e>
10000e82:	b00d      	add	sp, #52	; 0x34
10000e84:	bcf0      	pop	{r4, r5, r6, r7}
10000e86:	46bb      	mov	fp, r7
10000e88:	46b2      	mov	sl, r6
10000e8a:	46a9      	mov	r9, r5
10000e8c:	46a0      	mov	r8, r4
10000e8e:	bdf0      	pop	{r4, r5, r6, r7, pc}
10000e90:	2300      	movs	r3, #0
10000e92:	2200      	movs	r2, #0
10000e94:	469a      	mov	sl, r3
10000e96:	2300      	movs	r3, #0
10000e98:	9208      	str	r2, [sp, #32]
10000e9a:	9309      	str	r3, [sp, #36]	; 0x24
10000e9c:	2300      	movs	r3, #0
10000e9e:	2000      	movs	r0, #0
10000ea0:	4698      	mov	r8, r3
10000ea2:	e7e2      	b.n	10000e6a <alarm_pool_alarm_callback+0x7e>
10000ea4:	9b0a      	ldr	r3, [sp, #40]	; 0x28
10000ea6:	4651      	mov	r1, sl
10000ea8:	0218      	lsls	r0, r3, #8
10000eaa:	4330      	orrs	r0, r6
10000eac:	47c0      	blx	r8
10000eae:	9006      	str	r0, [sp, #24]
10000eb0:	9107      	str	r1, [sp, #28]
10000eb2:	687a      	ldr	r2, [r7, #4]
10000eb4:	f3ef 8510 	mrs	r5, PRIMASK
10000eb8:	b672      	cpsid	i
10000eba:	4654      	mov	r4, sl
10000ebc:	6813      	ldr	r3, [r2, #0]
10000ebe:	2b00      	cmp	r3, #0
10000ec0:	d0fc      	beq.n	10000ebc <alarm_pool_alarm_callback+0xd0>
10000ec2:	46a2      	mov	sl, r4
10000ec4:	f3bf 8f5f 	dmb	sy
10000ec8:	9906      	ldr	r1, [sp, #24]
10000eca:	9a07      	ldr	r2, [sp, #28]
10000ecc:	2a00      	cmp	r2, #0
10000ece:	db3b      	blt.n	10000f48 <alarm_pool_alarm_callback+0x15c>
10000ed0:	4311      	orrs	r1, r2
10000ed2:	d002      	beq.n	10000eda <alarm_pool_alarm_callback+0xee>
10000ed4:	693b      	ldr	r3, [r7, #16]
10000ed6:	2b00      	cmp	r3, #0
10000ed8:	d152      	bne.n	10000f80 <alarm_pool_alarm_callback+0x194>
10000eda:	683b      	ldr	r3, [r7, #0]
10000edc:	7bd9      	ldrb	r1, [r3, #15]
10000ede:	2900      	cmp	r1, #0
10000ee0:	d005      	beq.n	10000eee <alarm_pool_alarm_callback+0x102>
10000ee2:	681a      	ldr	r2, [r3, #0]
10000ee4:	0048      	lsls	r0, r1, #1
10000ee6:	1841      	adds	r1, r0, r1
10000ee8:	1852      	adds	r2, r2, r1
10000eea:	3a03      	subs	r2, #3
10000eec:	7056      	strb	r6, [r2, #1]
10000eee:	73de      	strb	r6, [r3, #15]
10000ef0:	68fa      	ldr	r2, [r7, #12]
10000ef2:	3e01      	subs	r6, #1
10000ef4:	5d93      	ldrb	r3, [r2, r6]
10000ef6:	3301      	adds	r3, #1
10000ef8:	5593      	strb	r3, [r2, r6]
10000efa:	465b      	mov	r3, fp
10000efc:	613b      	str	r3, [r7, #16]
10000efe:	687b      	ldr	r3, [r7, #4]
10000f00:	f3bf 8f5f 	dmb	sy
10000f04:	465a      	mov	r2, fp
10000f06:	601a      	str	r2, [r3, #0]
10000f08:	f385 8810 	msr	PRIMASK, r5
10000f0c:	e77d      	b.n	10000e0a <alarm_pool_alarm_callback+0x1e>
10000f0e:	2d00      	cmp	r5, #0
10000f10:	d101      	bne.n	10000f16 <alarm_pool_alarm_callback+0x12a>
10000f12:	2c00      	cmp	r4, #0
10000f14:	d19c      	bne.n	10000e50 <alarm_pool_alarm_callback+0x64>
10000f16:	2100      	movs	r1, #0
10000f18:	4660      	mov	r0, ip
10000f1a:	f000 fae5 	bl	100014e8 <ph_remove_head>
10000f1e:	4653      	mov	r3, sl
10000f20:	685c      	ldr	r4, [r3, #4]
10000f22:	681b      	ldr	r3, [r3, #0]
10000f24:	9308      	str	r3, [sp, #32]
10000f26:	9409      	str	r4, [sp, #36]	; 0x24
10000f28:	4653      	mov	r3, sl
10000f2a:	689b      	ldr	r3, [r3, #8]
10000f2c:	4698      	mov	r8, r3
10000f2e:	4653      	mov	r3, sl
10000f30:	68db      	ldr	r3, [r3, #12]
10000f32:	469a      	mov	sl, r3
10000f34:	68fb      	ldr	r3, [r7, #12]
10000f36:	199b      	adds	r3, r3, r6
10000f38:	3b01      	subs	r3, #1
10000f3a:	781b      	ldrb	r3, [r3, #0]
10000f3c:	930a      	str	r3, [sp, #40]	; 0x28
10000f3e:	021b      	lsls	r3, r3, #8
10000f40:	4303      	orrs	r3, r0
10000f42:	613b      	str	r3, [r7, #16]
10000f44:	2000      	movs	r0, #0
10000f46:	e790      	b.n	10000e6a <alarm_pool_alarm_callback+0x7e>
10000f48:	693b      	ldr	r3, [r7, #16]
10000f4a:	2b00      	cmp	r3, #0
10000f4c:	d0c5      	beq.n	10000eda <alarm_pool_alarm_callback+0xee>
10000f4e:	9b08      	ldr	r3, [sp, #32]
10000f50:	9c09      	ldr	r4, [sp, #36]	; 0x24
10000f52:	1a5b      	subs	r3, r3, r1
10000f54:	4194      	sbcs	r4, r2
10000f56:	9808      	ldr	r0, [sp, #32]
10000f58:	9909      	ldr	r1, [sp, #36]	; 0x24
10000f5a:	001a      	movs	r2, r3
10000f5c:	0023      	movs	r3, r4
10000f5e:	42a1      	cmp	r1, r4
10000f60:	d819      	bhi.n	10000f96 <alarm_pool_alarm_callback+0x1aa>
10000f62:	4299      	cmp	r1, r3
10000f64:	d01b      	beq.n	10000f9e <alarm_pool_alarm_callback+0x1b2>
10000f66:	2100      	movs	r1, #0
10000f68:	9104      	str	r1, [sp, #16]
10000f6a:	3101      	adds	r1, #1
10000f6c:	9103      	str	r1, [sp, #12]
10000f6e:	4651      	mov	r1, sl
10000f70:	9101      	str	r1, [sp, #4]
10000f72:	4641      	mov	r1, r8
10000f74:	0038      	movs	r0, r7
10000f76:	9602      	str	r6, [sp, #8]
10000f78:	9100      	str	r1, [sp, #0]
10000f7a:	f7ff febb 	bl	10000cf4 <add_alarm_under_lock.isra.0>
10000f7e:	e7bc      	b.n	10000efa <alarm_pool_alarm_callback+0x10e>
10000f80:	f000 f8b0 	bl	100010e4 <time_us_64>
10000f84:	9a06      	ldr	r2, [sp, #24]
10000f86:	9b07      	ldr	r3, [sp, #28]
10000f88:	1812      	adds	r2, r2, r0
10000f8a:	414b      	adcs	r3, r1
10000f8c:	4299      	cmp	r1, r3
10000f8e:	d802      	bhi.n	10000f96 <alarm_pool_alarm_callback+0x1aa>
10000f90:	d1e9      	bne.n	10000f66 <alarm_pool_alarm_callback+0x17a>
10000f92:	4290      	cmp	r0, r2
10000f94:	d9e7      	bls.n	10000f66 <alarm_pool_alarm_callback+0x17a>
10000f96:	2201      	movs	r2, #1
10000f98:	4252      	negs	r2, r2
10000f9a:	17d3      	asrs	r3, r2, #31
10000f9c:	e7e3      	b.n	10000f66 <alarm_pool_alarm_callback+0x17a>
10000f9e:	9908      	ldr	r1, [sp, #32]
10000fa0:	4291      	cmp	r1, r2
10000fa2:	d9e0      	bls.n	10000f66 <alarm_pool_alarm_callback+0x17a>
10000fa4:	e7f7      	b.n	10000f96 <alarm_pool_alarm_callback+0x1aa>
10000fa6:	46c0      	nop			; (mov r8, r8)
10000fa8:	20000a2c 	.word	0x20000a2c
10000fac:	0fffffff 	.word	0x0fffffff

10000fb0 <alarm_pool_init_default>:
10000fb0:	b510      	push	{r4, lr}
10000fb2:	4c12      	ldr	r4, [pc, #72]	; (10000ffc <alarm_pool_init_default+0x4c>)
10000fb4:	6863      	ldr	r3, [r4, #4]
10000fb6:	2b00      	cmp	r3, #0
10000fb8:	d004      	beq.n	10000fc4 <alarm_pool_init_default+0x14>
10000fba:	210a      	movs	r1, #10
10000fbc:	4810      	ldr	r0, [pc, #64]	; (10001000 <alarm_pool_init_default+0x50>)
10000fbe:	f7ff fe77 	bl	10000cb0 <lock_init>
10000fc2:	bd10      	pop	{r4, pc}
10000fc4:	0023      	movs	r3, r4
10000fc6:	4a0f      	ldr	r2, [pc, #60]	; (10001004 <alarm_pool_init_default+0x54>)
10000fc8:	2110      	movs	r1, #16
10000fca:	6820      	ldr	r0, [r4, #0]
10000fcc:	f000 f992 	bl	100012f4 <ph_post_alloc_init>
10000fd0:	2003      	movs	r0, #3
10000fd2:	f000 f87b 	bl	100010cc <hardware_alarm_claim>
10000fd6:	2003      	movs	r0, #3
10000fd8:	f000 f942 	bl	10001260 <hardware_alarm_cancel>
10000fdc:	2003      	movs	r0, #3
10000fde:	490a      	ldr	r1, [pc, #40]	; (10001008 <alarm_pool_init_default+0x58>)
10000fe0:	f000 f88a 	bl	100010f8 <hardware_alarm_set_callback>
10000fe4:	f7ff fcc2 	bl	1000096c <next_striped_spin_lock_num>
10000fe8:	4b08      	ldr	r3, [pc, #32]	; (1000100c <alarm_pool_init_default+0x5c>)
10000fea:	469c      	mov	ip, r3
10000fec:	2303      	movs	r3, #3
10000fee:	4460      	add	r0, ip
10000ff0:	7523      	strb	r3, [r4, #20]
10000ff2:	4b07      	ldr	r3, [pc, #28]	; (10001010 <alarm_pool_init_default+0x60>)
10000ff4:	0080      	lsls	r0, r0, #2
10000ff6:	6060      	str	r0, [r4, #4]
10000ff8:	60dc      	str	r4, [r3, #12]
10000ffa:	e7de      	b.n	10000fba <alarm_pool_init_default+0xa>
10000ffc:	200001c0 	.word	0x200001c0
10001000:	20000a40 	.word	0x20000a40
10001004:	10000cc1 	.word	0x10000cc1
10001008:	10000ded 	.word	0x10000ded
1000100c:	34000040 	.word	0x34000040
10001010:	20000a2c 	.word	0x20000a2c

10001014 <hardware_alarm_irq_handler>:
10001014:	b5f0      	push	{r4, r5, r6, r7, lr}
10001016:	46d6      	mov	lr, sl
10001018:	464f      	mov	r7, r9
1000101a:	4646      	mov	r6, r8
1000101c:	b5c0      	push	{r6, r7, lr}
1000101e:	f3ef 8205 	mrs	r2, IPSR
10001022:	233f      	movs	r3, #63	; 0x3f
10001024:	4013      	ands	r3, r2
10001026:	0018      	movs	r0, r3
10001028:	3810      	subs	r0, #16
1000102a:	f3ef 8c10 	mrs	ip, PRIMASK
1000102e:	b672      	cpsid	i
10001030:	4920      	ldr	r1, [pc, #128]	; (100010b4 <hardware_alarm_irq_handler+0xa0>)
10001032:	680a      	ldr	r2, [r1, #0]
10001034:	2a00      	cmp	r2, #0
10001036:	d0fc      	beq.n	10001032 <hardware_alarm_irq_handler+0x1e>
10001038:	f3bf 8f5f 	dmb	sy
1000103c:	2201      	movs	r2, #1
1000103e:	0017      	movs	r7, r2
10001040:	4087      	lsls	r7, r0
10001042:	4c1d      	ldr	r4, [pc, #116]	; (100010b8 <hardware_alarm_irq_handler+0xa4>)
10001044:	0016      	movs	r6, r2
10001046:	46a2      	mov	sl, r4
10001048:	6367      	str	r7, [r4, #52]	; 0x34
1000104a:	4c1c      	ldr	r4, [pc, #112]	; (100010bc <hardware_alarm_irq_handler+0xa8>)
1000104c:	7825      	ldrb	r5, [r4, #0]
1000104e:	46a0      	mov	r8, r4
10001050:	002c      	movs	r4, r5
10001052:	40c4      	lsrs	r4, r0
10001054:	4026      	ands	r6, r4
10001056:	4222      	tst	r2, r4
10001058:	d015      	beq.n	10001086 <hardware_alarm_irq_handler+0x72>
1000105a:	4652      	mov	r2, sl
1000105c:	6a56      	ldr	r6, [r2, #36]	; 0x24
1000105e:	4a18      	ldr	r2, [pc, #96]	; (100010c0 <hardware_alarm_irq_handler+0xac>)
10001060:	0084      	lsls	r4, r0, #2
10001062:	58a2      	ldr	r2, [r4, r2]
10001064:	4296      	cmp	r6, r2
10001066:	d318      	bcc.n	1000109a <hardware_alarm_irq_handler+0x86>
10001068:	4642      	mov	r2, r8
1000106a:	4b16      	ldr	r3, [pc, #88]	; (100010c4 <hardware_alarm_irq_handler+0xb0>)
1000106c:	43bd      	bics	r5, r7
1000106e:	58e3      	ldr	r3, [r4, r3]
10001070:	7015      	strb	r5, [r2, #0]
10001072:	f3bf 8f5f 	dmb	sy
10001076:	2200      	movs	r2, #0
10001078:	600a      	str	r2, [r1, #0]
1000107a:	f38c 8810 	msr	PRIMASK, ip
1000107e:	2b00      	cmp	r3, #0
10001080:	d006      	beq.n	10001090 <hardware_alarm_irq_handler+0x7c>
10001082:	4798      	blx	r3
10001084:	e004      	b.n	10001090 <hardware_alarm_irq_handler+0x7c>
10001086:	f3bf 8f5f 	dmb	sy
1000108a:	600e      	str	r6, [r1, #0]
1000108c:	f38c 8810 	msr	PRIMASK, ip
10001090:	bce0      	pop	{r5, r6, r7}
10001092:	46ba      	mov	sl, r7
10001094:	46b1      	mov	r9, r6
10001096:	46a8      	mov	r8, r5
10001098:	bdf0      	pop	{r4, r5, r6, r7, pc}
1000109a:	4a0b      	ldr	r2, [pc, #44]	; (100010c8 <hardware_alarm_irq_handler+0xb4>)
1000109c:	009b      	lsls	r3, r3, #2
1000109e:	4690      	mov	r8, r2
100010a0:	4443      	add	r3, r8
100010a2:	681a      	ldr	r2, [r3, #0]
100010a4:	601a      	str	r2, [r3, #0]
100010a6:	f3bf 8f5f 	dmb	sy
100010aa:	2300      	movs	r3, #0
100010ac:	600b      	str	r3, [r1, #0]
100010ae:	f38c 8810 	msr	PRIMASK, ip
100010b2:	e7ed      	b.n	10001090 <hardware_alarm_irq_handler+0x7c>
100010b4:	d0000128 	.word	0xd0000128
100010b8:	40054000 	.word	0x40054000
100010bc:	20000a60 	.word	0x20000a60
100010c0:	20000a44 	.word	0x20000a44
100010c4:	200009b8 	.word	0x200009b8
100010c8:	40053fd0 	.word	0x40053fd0

100010cc <hardware_alarm_claim>:
100010cc:	b510      	push	{r4, lr}
100010ce:	4b03      	ldr	r3, [pc, #12]	; (100010dc <hardware_alarm_claim+0x10>)
100010d0:	0001      	movs	r1, r0
100010d2:	0018      	movs	r0, r3
100010d4:	4a02      	ldr	r2, [pc, #8]	; (100010e0 <hardware_alarm_claim+0x14>)
100010d6:	f7ff fbc3 	bl	10000860 <hw_claim_or_assert>
100010da:	bd10      	pop	{r4, pc}
100010dc:	20000a5d 	.word	0x20000a5d
100010e0:	10002c08 	.word	0x10002c08

100010e4 <time_us_64>:
100010e4:	4b03      	ldr	r3, [pc, #12]	; (100010f4 <time_us_64+0x10>)
100010e6:	6a59      	ldr	r1, [r3, #36]	; 0x24
100010e8:	000a      	movs	r2, r1
100010ea:	6a98      	ldr	r0, [r3, #40]	; 0x28
100010ec:	6a59      	ldr	r1, [r3, #36]	; 0x24
100010ee:	428a      	cmp	r2, r1
100010f0:	d1fa      	bne.n	100010e8 <time_us_64+0x4>
100010f2:	4770      	bx	lr
100010f4:	40054000 	.word	0x40054000

100010f8 <hardware_alarm_set_callback>:
100010f8:	b570      	push	{r4, r5, r6, lr}
100010fa:	0004      	movs	r4, r0
100010fc:	000d      	movs	r5, r1
100010fe:	f3ef 8610 	mrs	r6, PRIMASK
10001102:	b672      	cpsid	i
10001104:	4a1a      	ldr	r2, [pc, #104]	; (10001170 <hardware_alarm_set_callback+0x78>)
10001106:	6813      	ldr	r3, [r2, #0]
10001108:	2b00      	cmp	r3, #0
1000110a:	d0fc      	beq.n	10001106 <hardware_alarm_set_callback+0xe>
1000110c:	f3bf 8f5f 	dmb	sy
10001110:	2d00      	cmp	r5, #0
10001112:	d01b      	beq.n	1000114c <hardware_alarm_set_callback+0x54>
10001114:	0020      	movs	r0, r4
10001116:	f7ff fc47 	bl	100009a8 <irq_get_vtable_handler>
1000111a:	4916      	ldr	r1, [pc, #88]	; (10001174 <hardware_alarm_set_callback+0x7c>)
1000111c:	4281      	cmp	r1, r0
1000111e:	d00a      	beq.n	10001136 <hardware_alarm_set_callback+0x3e>
10001120:	0020      	movs	r0, r4
10001122:	f7ff fc49 	bl	100009b8 <irq_set_exclusive_handler>
10001126:	2101      	movs	r1, #1
10001128:	0020      	movs	r0, r4
1000112a:	f7ff fc2b 	bl	10000984 <irq_set_enabled>
1000112e:	2301      	movs	r3, #1
10001130:	40a3      	lsls	r3, r4
10001132:	4a11      	ldr	r2, [pc, #68]	; (10001178 <hardware_alarm_set_callback+0x80>)
10001134:	6013      	str	r3, [r2, #0]
10001136:	4b11      	ldr	r3, [pc, #68]	; (1000117c <hardware_alarm_set_callback+0x84>)
10001138:	00a4      	lsls	r4, r4, #2
1000113a:	50e5      	str	r5, [r4, r3]
1000113c:	f3bf 8f5f 	dmb	sy
10001140:	2200      	movs	r2, #0
10001142:	4b0b      	ldr	r3, [pc, #44]	; (10001170 <hardware_alarm_set_callback+0x78>)
10001144:	601a      	str	r2, [r3, #0]
10001146:	f386 8810 	msr	PRIMASK, r6
1000114a:	bd70      	pop	{r4, r5, r6, pc}
1000114c:	2101      	movs	r1, #1
1000114e:	40a1      	lsls	r1, r4
10001150:	4b0a      	ldr	r3, [pc, #40]	; (1000117c <hardware_alarm_set_callback+0x84>)
10001152:	00a2      	lsls	r2, r4, #2
10001154:	50d5      	str	r5, [r2, r3]
10001156:	4b0a      	ldr	r3, [pc, #40]	; (10001180 <hardware_alarm_set_callback+0x88>)
10001158:	0020      	movs	r0, r4
1000115a:	781a      	ldrb	r2, [r3, #0]
1000115c:	438a      	bics	r2, r1
1000115e:	4905      	ldr	r1, [pc, #20]	; (10001174 <hardware_alarm_set_callback+0x7c>)
10001160:	701a      	strb	r2, [r3, #0]
10001162:	f7ff fc53 	bl	10000a0c <irq_remove_handler>
10001166:	2100      	movs	r1, #0
10001168:	0020      	movs	r0, r4
1000116a:	f7ff fc0b 	bl	10000984 <irq_set_enabled>
1000116e:	e7e5      	b.n	1000113c <hardware_alarm_set_callback+0x44>
10001170:	d0000128 	.word	0xd0000128
10001174:	10001015 	.word	0x10001015
10001178:	40056038 	.word	0x40056038
1000117c:	200009b8 	.word	0x200009b8
10001180:	20000a60 	.word	0x20000a60

10001184 <hardware_alarm_set_target>:
10001184:	b5f0      	push	{r4, r5, r6, r7, lr}
10001186:	464f      	mov	r7, r9
10001188:	46d6      	mov	lr, sl
1000118a:	4646      	mov	r6, r8
1000118c:	b5c0      	push	{r6, r7, lr}
1000118e:	0007      	movs	r7, r0
10001190:	4c2e      	ldr	r4, [pc, #184]	; (1000124c <hardware_alarm_set_target+0xc8>)
10001192:	6a61      	ldr	r1, [r4, #36]	; 0x24
10001194:	000d      	movs	r5, r1
10001196:	6aa6      	ldr	r6, [r4, #40]	; 0x28
10001198:	6a61      	ldr	r1, [r4, #36]	; 0x24
1000119a:	42a9      	cmp	r1, r5
1000119c:	d1fa      	bne.n	10001194 <hardware_alarm_set_target+0x10>
1000119e:	428b      	cmp	r3, r1
100011a0:	d808      	bhi.n	100011b4 <hardware_alarm_set_target+0x30>
100011a2:	d005      	beq.n	100011b0 <hardware_alarm_set_target+0x2c>
100011a4:	2001      	movs	r0, #1
100011a6:	bce0      	pop	{r5, r6, r7}
100011a8:	46ba      	mov	sl, r7
100011aa:	46b1      	mov	r9, r6
100011ac:	46a8      	mov	r8, r5
100011ae:	bdf0      	pop	{r4, r5, r6, r7, pc}
100011b0:	42b2      	cmp	r2, r6
100011b2:	d9f7      	bls.n	100011a4 <hardware_alarm_set_target+0x20>
100011b4:	f3ef 8a10 	mrs	sl, PRIMASK
100011b8:	b672      	cpsid	i
100011ba:	4825      	ldr	r0, [pc, #148]	; (10001250 <hardware_alarm_set_target+0xcc>)
100011bc:	6801      	ldr	r1, [r0, #0]
100011be:	2900      	cmp	r1, #0
100011c0:	d0fc      	beq.n	100011bc <hardware_alarm_set_target+0x38>
100011c2:	f3bf 8f5f 	dmb	sy
100011c6:	2501      	movs	r5, #1
100011c8:	40bd      	lsls	r5, r7
100011ca:	4922      	ldr	r1, [pc, #136]	; (10001254 <hardware_alarm_set_target+0xd0>)
100011cc:	4c1f      	ldr	r4, [pc, #124]	; (1000124c <hardware_alarm_set_target+0xc8>)
100011ce:	4688      	mov	r8, r1
100011d0:	7809      	ldrb	r1, [r1, #0]
100011d2:	4689      	mov	r9, r1
100011d4:	4329      	orrs	r1, r5
100011d6:	b2c9      	uxtb	r1, r1
100011d8:	468c      	mov	ip, r1
100011da:	4641      	mov	r1, r8
100011dc:	4660      	mov	r0, ip
100011de:	7008      	strb	r0, [r1, #0]
100011e0:	1d39      	adds	r1, r7, #4
100011e2:	0089      	lsls	r1, r1, #2
100011e4:	6365      	str	r5, [r4, #52]	; 0x34
100011e6:	510a      	str	r2, [r1, r4]
100011e8:	491b      	ldr	r1, [pc, #108]	; (10001258 <hardware_alarm_set_target+0xd4>)
100011ea:	00b8      	lsls	r0, r7, #2
100011ec:	5043      	str	r3, [r0, r1]
100011ee:	6a21      	ldr	r1, [r4, #32]
100011f0:	2000      	movs	r0, #0
100011f2:	4229      	tst	r1, r5
100011f4:	d019      	beq.n	1000122a <hardware_alarm_set_target+0xa6>
100011f6:	6a61      	ldr	r1, [r4, #36]	; 0x24
100011f8:	0008      	movs	r0, r1
100011fa:	6aa6      	ldr	r6, [r4, #40]	; 0x28
100011fc:	6a61      	ldr	r1, [r4, #36]	; 0x24
100011fe:	4281      	cmp	r1, r0
10001200:	d1fa      	bne.n	100011f8 <hardware_alarm_set_target+0x74>
10001202:	428b      	cmp	r3, r1
10001204:	d819      	bhi.n	1000123a <hardware_alarm_set_target+0xb6>
10001206:	d101      	bne.n	1000120c <hardware_alarm_set_target+0x88>
10001208:	42b2      	cmp	r2, r6
1000120a:	d816      	bhi.n	1000123a <hardware_alarm_set_target+0xb6>
1000120c:	45cc      	cmp	ip, r9
1000120e:	d00b      	beq.n	10001228 <hardware_alarm_set_target+0xa4>
10001210:	4b0e      	ldr	r3, [pc, #56]	; (1000124c <hardware_alarm_set_target+0xc8>)
10001212:	221f      	movs	r2, #31
10001214:	621d      	str	r5, [r3, #32]
10001216:	635d      	str	r5, [r3, #52]	; 0x34
10001218:	2301      	movs	r3, #1
1000121a:	403a      	ands	r2, r7
1000121c:	4093      	lsls	r3, r2
1000121e:	4a0f      	ldr	r2, [pc, #60]	; (1000125c <hardware_alarm_set_target+0xd8>)
10001220:	6013      	str	r3, [r2, #0]
10001222:	4643      	mov	r3, r8
10001224:	464a      	mov	r2, r9
10001226:	701a      	strb	r2, [r3, #0]
10001228:	2001      	movs	r0, #1
1000122a:	f3bf 8f5f 	dmb	sy
1000122e:	2200      	movs	r2, #0
10001230:	4b07      	ldr	r3, [pc, #28]	; (10001250 <hardware_alarm_set_target+0xcc>)
10001232:	601a      	str	r2, [r3, #0]
10001234:	f38a 8810 	msr	PRIMASK, sl
10001238:	e7b5      	b.n	100011a6 <hardware_alarm_set_target+0x22>
1000123a:	2000      	movs	r0, #0
1000123c:	f3bf 8f5f 	dmb	sy
10001240:	2200      	movs	r2, #0
10001242:	4b03      	ldr	r3, [pc, #12]	; (10001250 <hardware_alarm_set_target+0xcc>)
10001244:	601a      	str	r2, [r3, #0]
10001246:	f38a 8810 	msr	PRIMASK, sl
1000124a:	e7ac      	b.n	100011a6 <hardware_alarm_set_target+0x22>
1000124c:	40054000 	.word	0x40054000
10001250:	d0000128 	.word	0xd0000128
10001254:	20000a60 	.word	0x20000a60
10001258:	20000a44 	.word	0x20000a44
1000125c:	e000e280 	.word	0xe000e280

10001260 <hardware_alarm_cancel>:
10001260:	f3ef 8c10 	mrs	ip, PRIMASK
10001264:	b672      	cpsid	i
10001266:	490a      	ldr	r1, [pc, #40]	; (10001290 <hardware_alarm_cancel+0x30>)
10001268:	680b      	ldr	r3, [r1, #0]
1000126a:	2b00      	cmp	r3, #0
1000126c:	d0fc      	beq.n	10001268 <hardware_alarm_cancel+0x8>
1000126e:	f3bf 8f5f 	dmb	sy
10001272:	2301      	movs	r3, #1
10001274:	4083      	lsls	r3, r0
10001276:	4a07      	ldr	r2, [pc, #28]	; (10001294 <hardware_alarm_cancel+0x34>)
10001278:	4807      	ldr	r0, [pc, #28]	; (10001298 <hardware_alarm_cancel+0x38>)
1000127a:	6213      	str	r3, [r2, #32]
1000127c:	7802      	ldrb	r2, [r0, #0]
1000127e:	439a      	bics	r2, r3
10001280:	7002      	strb	r2, [r0, #0]
10001282:	f3bf 8f5f 	dmb	sy
10001286:	2300      	movs	r3, #0
10001288:	600b      	str	r3, [r1, #0]
1000128a:	f38c 8810 	msr	PRIMASK, ip
1000128e:	4770      	bx	lr
10001290:	d0000128 	.word	0xd0000128
10001294:	40054000 	.word	0x40054000
10001298:	20000a60 	.word	0x20000a60

1000129c <ph_merge_nodes>:
1000129c:	b570      	push	{r4, r5, r6, lr}
1000129e:	0006      	movs	r6, r0
100012a0:	000d      	movs	r5, r1
100012a2:	0014      	movs	r4, r2
100012a4:	2900      	cmp	r1, #0
100012a6:	d01d      	beq.n	100012e4 <ph_merge_nodes+0x48>
100012a8:	2a00      	cmp	r2, #0
100012aa:	d012      	beq.n	100012d2 <ph_merge_nodes+0x36>
100012ac:	6873      	ldr	r3, [r6, #4]
100012ae:	6880      	ldr	r0, [r0, #8]
100012b0:	4798      	blx	r3
100012b2:	0062      	lsls	r2, r4, #1
100012b4:	006b      	lsls	r3, r5, #1
100012b6:	1912      	adds	r2, r2, r4
100012b8:	195b      	adds	r3, r3, r5
100012ba:	6831      	ldr	r1, [r6, #0]
100012bc:	3a03      	subs	r2, #3
100012be:	3b03      	subs	r3, #3
100012c0:	2800      	cmp	r0, #0
100012c2:	d008      	beq.n	100012d6 <ph_merge_nodes+0x3a>
100012c4:	188a      	adds	r2, r1, r2
100012c6:	7095      	strb	r5, [r2, #2]
100012c8:	18c8      	adds	r0, r1, r3
100012ca:	5ccb      	ldrb	r3, [r1, r3]
100012cc:	2b00      	cmp	r3, #0
100012ce:	d10b      	bne.n	100012e8 <ph_merge_nodes+0x4c>
100012d0:	7004      	strb	r4, [r0, #0]
100012d2:	0028      	movs	r0, r5
100012d4:	bd70      	pop	{r4, r5, r6, pc}
100012d6:	18cb      	adds	r3, r1, r3
100012d8:	709c      	strb	r4, [r3, #2]
100012da:	1888      	adds	r0, r1, r2
100012dc:	5c8a      	ldrb	r2, [r1, r2]
100012de:	2a00      	cmp	r2, #0
100012e0:	d105      	bne.n	100012ee <ph_merge_nodes+0x52>
100012e2:	7005      	strb	r5, [r0, #0]
100012e4:	0020      	movs	r0, r4
100012e6:	e7f5      	b.n	100012d4 <ph_merge_nodes+0x38>
100012e8:	7053      	strb	r3, [r2, #1]
100012ea:	7004      	strb	r4, [r0, #0]
100012ec:	e7f1      	b.n	100012d2 <ph_merge_nodes+0x36>
100012ee:	705a      	strb	r2, [r3, #1]
100012f0:	7005      	strb	r5, [r0, #0]
100012f2:	e7f7      	b.n	100012e4 <ph_merge_nodes+0x48>

100012f4 <ph_post_alloc_init>:
100012f4:	b510      	push	{r4, lr}
100012f6:	6083      	str	r3, [r0, #8]
100012f8:	2300      	movs	r3, #0
100012fa:	b2cc      	uxtb	r4, r1
100012fc:	7343      	strb	r3, [r0, #13]
100012fe:	3301      	adds	r3, #1
10001300:	6042      	str	r2, [r0, #4]
10001302:	7304      	strb	r4, [r0, #12]
10001304:	7383      	strb	r3, [r0, #14]
10001306:	73c4      	strb	r4, [r0, #15]
10001308:	6800      	ldr	r0, [r0, #0]
1000130a:	1c42      	adds	r2, r0, #1
1000130c:	2c01      	cmp	r4, #1
1000130e:	d905      	bls.n	1000131c <ph_post_alloc_init+0x28>
10001310:	3301      	adds	r3, #1
10001312:	b2db      	uxtb	r3, r3
10001314:	7013      	strb	r3, [r2, #0]
10001316:	3203      	adds	r2, #3
10001318:	429c      	cmp	r4, r3
1000131a:	d1f9      	bne.n	10001310 <ph_post_alloc_init+0x1c>
1000131c:	23ff      	movs	r3, #255	; 0xff
1000131e:	400b      	ands	r3, r1
10001320:	005a      	lsls	r2, r3, #1
10001322:	18d3      	adds	r3, r2, r3
10001324:	18c0      	adds	r0, r0, r3
10001326:	2300      	movs	r3, #0
10001328:	3803      	subs	r0, #3
1000132a:	7043      	strb	r3, [r0, #1]
1000132c:	bd10      	pop	{r4, pc}
1000132e:	46c0      	nop			; (mov r8, r8)

10001330 <ph_merge_two_pass>:
10001330:	b570      	push	{r4, r5, r6, lr}
10001332:	0005      	movs	r5, r0
10001334:	1e0c      	subs	r4, r1, #0
10001336:	d007      	beq.n	10001348 <ph_merge_two_pass+0x18>
10001338:	0063      	lsls	r3, r4, #1
1000133a:	6801      	ldr	r1, [r0, #0]
1000133c:	191b      	adds	r3, r3, r4
1000133e:	3b03      	subs	r3, #3
10001340:	18cb      	adds	r3, r1, r3
10001342:	785a      	ldrb	r2, [r3, #1]
10001344:	2a00      	cmp	r2, #0
10001346:	d101      	bne.n	1000134c <ph_merge_two_pass+0x1c>
10001348:	0020      	movs	r0, r4
1000134a:	bd70      	pop	{r4, r5, r6, pc}
1000134c:	0050      	lsls	r0, r2, #1
1000134e:	1880      	adds	r0, r0, r2
10001350:	3803      	subs	r0, #3
10001352:	1809      	adds	r1, r1, r0
10001354:	2000      	movs	r0, #0
10001356:	784e      	ldrb	r6, [r1, #1]
10001358:	7048      	strb	r0, [r1, #1]
1000135a:	0021      	movs	r1, r4
1000135c:	7058      	strb	r0, [r3, #1]
1000135e:	0028      	movs	r0, r5
10001360:	f7ff ff9c 	bl	1000129c <ph_merge_nodes>
10001364:	0031      	movs	r1, r6
10001366:	0004      	movs	r4, r0
10001368:	0028      	movs	r0, r5
1000136a:	f7ff ffe1 	bl	10001330 <ph_merge_two_pass>
1000136e:	0006      	movs	r6, r0
10001370:	2c00      	cmp	r4, #0
10001372:	d020      	beq.n	100013b6 <ph_merge_two_pass+0x86>
10001374:	2800      	cmp	r0, #0
10001376:	d0e7      	beq.n	10001348 <ph_merge_two_pass+0x18>
10001378:	0032      	movs	r2, r6
1000137a:	0021      	movs	r1, r4
1000137c:	686b      	ldr	r3, [r5, #4]
1000137e:	68a8      	ldr	r0, [r5, #8]
10001380:	4798      	blx	r3
10001382:	0072      	lsls	r2, r6, #1
10001384:	0063      	lsls	r3, r4, #1
10001386:	1992      	adds	r2, r2, r6
10001388:	191b      	adds	r3, r3, r4
1000138a:	6829      	ldr	r1, [r5, #0]
1000138c:	3a03      	subs	r2, #3
1000138e:	3b03      	subs	r3, #3
10001390:	2800      	cmp	r0, #0
10001392:	d008      	beq.n	100013a6 <ph_merge_two_pass+0x76>
10001394:	188a      	adds	r2, r1, r2
10001396:	7094      	strb	r4, [r2, #2]
10001398:	18c8      	adds	r0, r1, r3
1000139a:	5ccb      	ldrb	r3, [r1, r3]
1000139c:	2b00      	cmp	r3, #0
1000139e:	d000      	beq.n	100013a2 <ph_merge_two_pass+0x72>
100013a0:	7053      	strb	r3, [r2, #1]
100013a2:	7006      	strb	r6, [r0, #0]
100013a4:	e7d0      	b.n	10001348 <ph_merge_two_pass+0x18>
100013a6:	18cb      	adds	r3, r1, r3
100013a8:	709e      	strb	r6, [r3, #2]
100013aa:	1888      	adds	r0, r1, r2
100013ac:	5c8a      	ldrb	r2, [r1, r2]
100013ae:	2a00      	cmp	r2, #0
100013b0:	d000      	beq.n	100013b4 <ph_merge_two_pass+0x84>
100013b2:	705a      	strb	r2, [r3, #1]
100013b4:	7004      	strb	r4, [r0, #0]
100013b6:	0034      	movs	r4, r6
100013b8:	e7c6      	b.n	10001348 <ph_merge_two_pass+0x18>
100013ba:	46c0      	nop			; (mov r8, r8)

100013bc <ph_remove_any_head>:
100013bc:	b5f8      	push	{r3, r4, r5, r6, r7, lr}
100013be:	4657      	mov	r7, sl
100013c0:	464e      	mov	r6, r9
100013c2:	4645      	mov	r5, r8
100013c4:	46de      	mov	lr, fp
100013c6:	004c      	lsls	r4, r1, #1
100013c8:	b5e0      	push	{r5, r6, r7, lr}
100013ca:	1864      	adds	r4, r4, r1
100013cc:	0017      	movs	r7, r2
100013ce:	6802      	ldr	r2, [r0, #0]
100013d0:	3c03      	subs	r4, #3
100013d2:	0005      	movs	r5, r0
100013d4:	5d10      	ldrb	r0, [r2, r4]
100013d6:	1913      	adds	r3, r2, r4
100013d8:	000e      	movs	r6, r1
100013da:	469c      	mov	ip, r3
100013dc:	2800      	cmp	r0, #0
100013de:	d052      	beq.n	10001486 <ph_remove_any_head+0xca>
100013e0:	0043      	lsls	r3, r0, #1
100013e2:	4698      	mov	r8, r3
100013e4:	181b      	adds	r3, r3, r0
100013e6:	3b03      	subs	r3, #3
100013e8:	18d3      	adds	r3, r2, r3
100013ea:	7859      	ldrb	r1, [r3, #1]
100013ec:	468a      	mov	sl, r1
100013ee:	2900      	cmp	r1, #0
100013f0:	d119      	bne.n	10001426 <ph_remove_any_head+0x6a>
100013f2:	2f00      	cmp	r7, #0
100013f4:	d00c      	beq.n	10001410 <ph_remove_any_head+0x54>
100013f6:	7bec      	ldrb	r4, [r5, #15]
100013f8:	2c00      	cmp	r4, #0
100013fa:	d050      	beq.n	1000149e <ph_remove_any_head+0xe2>
100013fc:	0063      	lsls	r3, r4, #1
100013fe:	191b      	adds	r3, r3, r4
10001400:	18d3      	adds	r3, r2, r3
10001402:	3b03      	subs	r3, #3
10001404:	705e      	strb	r6, [r3, #1]
10001406:	73ee      	strb	r6, [r5, #15]
10001408:	4643      	mov	r3, r8
1000140a:	1819      	adds	r1, r3, r0
1000140c:	3903      	subs	r1, #3
1000140e:	1853      	adds	r3, r2, r1
10001410:	2200      	movs	r2, #0
10001412:	709a      	strb	r2, [r3, #2]
10001414:	2300      	movs	r3, #0
10001416:	4662      	mov	r2, ip
10001418:	7053      	strb	r3, [r2, #1]
1000141a:	bcf0      	pop	{r4, r5, r6, r7}
1000141c:	46bb      	mov	fp, r7
1000141e:	46b2      	mov	sl, r6
10001420:	46a9      	mov	r9, r5
10001422:	46a0      	mov	r8, r4
10001424:	bdf8      	pop	{r3, r4, r5, r6, r7, pc}
10001426:	0049      	lsls	r1, r1, #1
10001428:	4451      	add	r1, sl
1000142a:	3903      	subs	r1, #3
1000142c:	1852      	adds	r2, r2, r1
1000142e:	7851      	ldrb	r1, [r2, #1]
10001430:	4688      	mov	r8, r1
10001432:	2100      	movs	r1, #0
10001434:	7051      	strb	r1, [r2, #1]
10001436:	4689      	mov	r9, r1
10001438:	7059      	strb	r1, [r3, #1]
1000143a:	4652      	mov	r2, sl
1000143c:	0001      	movs	r1, r0
1000143e:	0028      	movs	r0, r5
10001440:	f7ff ff2c 	bl	1000129c <ph_merge_nodes>
10001444:	4643      	mov	r3, r8
10001446:	4682      	mov	sl, r0
10001448:	2b00      	cmp	r3, #0
1000144a:	d007      	beq.n	1000145c <ph_remove_any_head+0xa0>
1000144c:	005b      	lsls	r3, r3, #1
1000144e:	6829      	ldr	r1, [r5, #0]
10001450:	4443      	add	r3, r8
10001452:	3b03      	subs	r3, #3
10001454:	18cb      	adds	r3, r1, r3
10001456:	785a      	ldrb	r2, [r3, #1]
10001458:	2a00      	cmp	r2, #0
1000145a:	d12c      	bne.n	100014b6 <ph_remove_any_head+0xfa>
1000145c:	4651      	mov	r1, sl
1000145e:	4642      	mov	r2, r8
10001460:	0028      	movs	r0, r5
10001462:	f7ff ff1b 	bl	1000129c <ph_merge_nodes>
10001466:	0001      	movs	r1, r0
10001468:	2f00      	cmp	r7, #0
1000146a:	d01a      	beq.n	100014a2 <ph_remove_any_head+0xe6>
1000146c:	46a4      	mov	ip, r4
1000146e:	682a      	ldr	r2, [r5, #0]
10001470:	7bef      	ldrb	r7, [r5, #15]
10001472:	4494      	add	ip, r2
10001474:	2f00      	cmp	r7, #0
10001476:	d004      	beq.n	10001482 <ph_remove_any_head+0xc6>
10001478:	007b      	lsls	r3, r7, #1
1000147a:	19db      	adds	r3, r3, r7
1000147c:	18d3      	adds	r3, r2, r3
1000147e:	3b03      	subs	r3, #3
10001480:	705e      	strb	r6, [r3, #1]
10001482:	73ee      	strb	r6, [r5, #15]
10001484:	e010      	b.n	100014a8 <ph_remove_any_head+0xec>
10001486:	2f00      	cmp	r7, #0
10001488:	d0c4      	beq.n	10001414 <ph_remove_any_head+0x58>
1000148a:	7be9      	ldrb	r1, [r5, #15]
1000148c:	2900      	cmp	r1, #0
1000148e:	d010      	beq.n	100014b2 <ph_remove_any_head+0xf6>
10001490:	004b      	lsls	r3, r1, #1
10001492:	185b      	adds	r3, r3, r1
10001494:	18d3      	adds	r3, r2, r3
10001496:	3b03      	subs	r3, #3
10001498:	705e      	strb	r6, [r3, #1]
1000149a:	73ee      	strb	r6, [r5, #15]
1000149c:	e7ba      	b.n	10001414 <ph_remove_any_head+0x58>
1000149e:	73ee      	strb	r6, [r5, #15]
100014a0:	e7b6      	b.n	10001410 <ph_remove_any_head+0x54>
100014a2:	46a4      	mov	ip, r4
100014a4:	682a      	ldr	r2, [r5, #0]
100014a6:	4494      	add	ip, r2
100014a8:	2900      	cmp	r1, #0
100014aa:	d0b3      	beq.n	10001414 <ph_remove_any_head+0x58>
100014ac:	004b      	lsls	r3, r1, #1
100014ae:	4698      	mov	r8, r3
100014b0:	e7aa      	b.n	10001408 <ph_remove_any_head+0x4c>
100014b2:	73ee      	strb	r6, [r5, #15]
100014b4:	e7ae      	b.n	10001414 <ph_remove_any_head+0x58>
100014b6:	0050      	lsls	r0, r2, #1
100014b8:	1880      	adds	r0, r0, r2
100014ba:	3803      	subs	r0, #3
100014bc:	1809      	adds	r1, r1, r0
100014be:	7848      	ldrb	r0, [r1, #1]
100014c0:	4683      	mov	fp, r0
100014c2:	4648      	mov	r0, r9
100014c4:	7048      	strb	r0, [r1, #1]
100014c6:	7058      	strb	r0, [r3, #1]
100014c8:	4641      	mov	r1, r8
100014ca:	0028      	movs	r0, r5
100014cc:	f7ff fee6 	bl	1000129c <ph_merge_nodes>
100014d0:	4659      	mov	r1, fp
100014d2:	4680      	mov	r8, r0
100014d4:	0028      	movs	r0, r5
100014d6:	f7ff ff2b 	bl	10001330 <ph_merge_two_pass>
100014da:	4641      	mov	r1, r8
100014dc:	0002      	movs	r2, r0
100014de:	0028      	movs	r0, r5
100014e0:	f7ff fedc 	bl	1000129c <ph_merge_nodes>
100014e4:	4680      	mov	r8, r0
100014e6:	e7b9      	b.n	1000145c <ph_remove_any_head+0xa0>

100014e8 <ph_remove_head>:
100014e8:	b5f8      	push	{r3, r4, r5, r6, r7, lr}
100014ea:	4657      	mov	r7, sl
100014ec:	464e      	mov	r6, r9
100014ee:	4645      	mov	r5, r8
100014f0:	46de      	mov	lr, fp
100014f2:	b5e0      	push	{r5, r6, r7, lr}
100014f4:	7b46      	ldrb	r6, [r0, #13]
100014f6:	6802      	ldr	r2, [r0, #0]
100014f8:	0075      	lsls	r5, r6, #1
100014fa:	19ad      	adds	r5, r5, r6
100014fc:	3d03      	subs	r5, #3
100014fe:	000f      	movs	r7, r1
10001500:	5d51      	ldrb	r1, [r2, r5]
10001502:	1953      	adds	r3, r2, r5
10001504:	0004      	movs	r4, r0
10001506:	469c      	mov	ip, r3
10001508:	2900      	cmp	r1, #0
1000150a:	d053      	beq.n	100015b4 <ph_remove_head+0xcc>
1000150c:	004b      	lsls	r3, r1, #1
1000150e:	4698      	mov	r8, r3
10001510:	185b      	adds	r3, r3, r1
10001512:	3b03      	subs	r3, #3
10001514:	18d3      	adds	r3, r2, r3
10001516:	7858      	ldrb	r0, [r3, #1]
10001518:	4682      	mov	sl, r0
1000151a:	2800      	cmp	r0, #0
1000151c:	d11b      	bne.n	10001556 <ph_remove_head+0x6e>
1000151e:	2f00      	cmp	r7, #0
10001520:	d00c      	beq.n	1000153c <ph_remove_head+0x54>
10001522:	7be5      	ldrb	r5, [r4, #15]
10001524:	2d00      	cmp	r5, #0
10001526:	d051      	beq.n	100015cc <ph_remove_head+0xe4>
10001528:	006b      	lsls	r3, r5, #1
1000152a:	195b      	adds	r3, r3, r5
1000152c:	18d3      	adds	r3, r2, r3
1000152e:	3b03      	subs	r3, #3
10001530:	705e      	strb	r6, [r3, #1]
10001532:	73e6      	strb	r6, [r4, #15]
10001534:	4643      	mov	r3, r8
10001536:	1858      	adds	r0, r3, r1
10001538:	3803      	subs	r0, #3
1000153a:	1813      	adds	r3, r2, r0
1000153c:	2200      	movs	r2, #0
1000153e:	709a      	strb	r2, [r3, #2]
10001540:	2300      	movs	r3, #0
10001542:	4662      	mov	r2, ip
10001544:	0030      	movs	r0, r6
10001546:	7053      	strb	r3, [r2, #1]
10001548:	7361      	strb	r1, [r4, #13]
1000154a:	bcf0      	pop	{r4, r5, r6, r7}
1000154c:	46bb      	mov	fp, r7
1000154e:	46b2      	mov	sl, r6
10001550:	46a9      	mov	r9, r5
10001552:	46a0      	mov	r8, r4
10001554:	bdf8      	pop	{r3, r4, r5, r6, r7, pc}
10001556:	0040      	lsls	r0, r0, #1
10001558:	4450      	add	r0, sl
1000155a:	3803      	subs	r0, #3
1000155c:	1812      	adds	r2, r2, r0
1000155e:	7850      	ldrb	r0, [r2, #1]
10001560:	4680      	mov	r8, r0
10001562:	2000      	movs	r0, #0
10001564:	7050      	strb	r0, [r2, #1]
10001566:	4681      	mov	r9, r0
10001568:	7058      	strb	r0, [r3, #1]
1000156a:	4652      	mov	r2, sl
1000156c:	0020      	movs	r0, r4
1000156e:	f7ff fe95 	bl	1000129c <ph_merge_nodes>
10001572:	4643      	mov	r3, r8
10001574:	4682      	mov	sl, r0
10001576:	2b00      	cmp	r3, #0
10001578:	d007      	beq.n	1000158a <ph_remove_head+0xa2>
1000157a:	005b      	lsls	r3, r3, #1
1000157c:	6821      	ldr	r1, [r4, #0]
1000157e:	4443      	add	r3, r8
10001580:	3b03      	subs	r3, #3
10001582:	18cb      	adds	r3, r1, r3
10001584:	785a      	ldrb	r2, [r3, #1]
10001586:	2a00      	cmp	r2, #0
10001588:	d12c      	bne.n	100015e4 <ph_remove_head+0xfc>
1000158a:	4651      	mov	r1, sl
1000158c:	4642      	mov	r2, r8
1000158e:	0020      	movs	r0, r4
10001590:	f7ff fe84 	bl	1000129c <ph_merge_nodes>
10001594:	0001      	movs	r1, r0
10001596:	2f00      	cmp	r7, #0
10001598:	d01a      	beq.n	100015d0 <ph_remove_head+0xe8>
1000159a:	46ac      	mov	ip, r5
1000159c:	6822      	ldr	r2, [r4, #0]
1000159e:	7be7      	ldrb	r7, [r4, #15]
100015a0:	4494      	add	ip, r2
100015a2:	2f00      	cmp	r7, #0
100015a4:	d004      	beq.n	100015b0 <ph_remove_head+0xc8>
100015a6:	007b      	lsls	r3, r7, #1
100015a8:	19db      	adds	r3, r3, r7
100015aa:	18d3      	adds	r3, r2, r3
100015ac:	3b03      	subs	r3, #3
100015ae:	705e      	strb	r6, [r3, #1]
100015b0:	73e6      	strb	r6, [r4, #15]
100015b2:	e010      	b.n	100015d6 <ph_remove_head+0xee>
100015b4:	2f00      	cmp	r7, #0
100015b6:	d0c3      	beq.n	10001540 <ph_remove_head+0x58>
100015b8:	7bc0      	ldrb	r0, [r0, #15]
100015ba:	2800      	cmp	r0, #0
100015bc:	d010      	beq.n	100015e0 <ph_remove_head+0xf8>
100015be:	0043      	lsls	r3, r0, #1
100015c0:	181b      	adds	r3, r3, r0
100015c2:	18d3      	adds	r3, r2, r3
100015c4:	3b03      	subs	r3, #3
100015c6:	705e      	strb	r6, [r3, #1]
100015c8:	73e6      	strb	r6, [r4, #15]
100015ca:	e7b9      	b.n	10001540 <ph_remove_head+0x58>
100015cc:	73e6      	strb	r6, [r4, #15]
100015ce:	e7b5      	b.n	1000153c <ph_remove_head+0x54>
100015d0:	46ac      	mov	ip, r5
100015d2:	6822      	ldr	r2, [r4, #0]
100015d4:	4494      	add	ip, r2
100015d6:	2800      	cmp	r0, #0
100015d8:	d0b2      	beq.n	10001540 <ph_remove_head+0x58>
100015da:	0043      	lsls	r3, r0, #1
100015dc:	4698      	mov	r8, r3
100015de:	e7a9      	b.n	10001534 <ph_remove_head+0x4c>
100015e0:	73e6      	strb	r6, [r4, #15]
100015e2:	e7ad      	b.n	10001540 <ph_remove_head+0x58>
100015e4:	0050      	lsls	r0, r2, #1
100015e6:	1880      	adds	r0, r0, r2
100015e8:	3803      	subs	r0, #3
100015ea:	1809      	adds	r1, r1, r0
100015ec:	7848      	ldrb	r0, [r1, #1]
100015ee:	4683      	mov	fp, r0
100015f0:	4648      	mov	r0, r9
100015f2:	7048      	strb	r0, [r1, #1]
100015f4:	7058      	strb	r0, [r3, #1]
100015f6:	4641      	mov	r1, r8
100015f8:	0020      	movs	r0, r4
100015fa:	f7ff fe4f 	bl	1000129c <ph_merge_nodes>
100015fe:	4659      	mov	r1, fp
10001600:	4680      	mov	r8, r0
10001602:	0020      	movs	r0, r4
10001604:	f7ff fe94 	bl	10001330 <ph_merge_two_pass>
10001608:	4641      	mov	r1, r8
1000160a:	0002      	movs	r2, r0
1000160c:	0020      	movs	r0, r4
1000160e:	f7ff fe45 	bl	1000129c <ph_merge_nodes>
10001612:	4680      	mov	r8, r0
10001614:	e7b9      	b.n	1000158a <ph_remove_head+0xa2>
10001616:	46c0      	nop			; (mov r8, r8)

10001618 <ph_remove_and_free_node>:
10001618:	b570      	push	{r4, r5, r6, lr}
1000161a:	0005      	movs	r5, r0
1000161c:	2900      	cmp	r1, #0
1000161e:	d02c      	beq.n	1000167a <ph_remove_and_free_node+0x62>
10001620:	7b43      	ldrb	r3, [r0, #13]
10001622:	428b      	cmp	r3, r1
10001624:	d02e      	beq.n	10001684 <ph_remove_and_free_node+0x6c>
10001626:	004c      	lsls	r4, r1, #1
10001628:	6800      	ldr	r0, [r0, #0]
1000162a:	1864      	adds	r4, r4, r1
1000162c:	3c03      	subs	r4, #3
1000162e:	1904      	adds	r4, r0, r4
10001630:	78a2      	ldrb	r2, [r4, #2]
10001632:	2a00      	cmp	r2, #0
10001634:	d021      	beq.n	1000167a <ph_remove_and_free_node+0x62>
10001636:	0053      	lsls	r3, r2, #1
10001638:	189b      	adds	r3, r3, r2
1000163a:	3b03      	subs	r3, #3
1000163c:	5cc2      	ldrb	r2, [r0, r3]
1000163e:	18c6      	adds	r6, r0, r3
10001640:	428a      	cmp	r2, r1
10001642:	d102      	bne.n	1000164a <ph_remove_and_free_node+0x32>
10001644:	e01b      	b.n	1000167e <ph_remove_and_free_node+0x66>
10001646:	2a00      	cmp	r2, #0
10001648:	d008      	beq.n	1000165c <ph_remove_and_free_node+0x44>
1000164a:	0053      	lsls	r3, r2, #1
1000164c:	189b      	adds	r3, r3, r2
1000164e:	3b03      	subs	r3, #3
10001650:	18c3      	adds	r3, r0, r3
10001652:	785a      	ldrb	r2, [r3, #1]
10001654:	428a      	cmp	r2, r1
10001656:	d1f6      	bne.n	10001646 <ph_remove_and_free_node+0x2e>
10001658:	7862      	ldrb	r2, [r4, #1]
1000165a:	705a      	strb	r2, [r3, #1]
1000165c:	2300      	movs	r3, #0
1000165e:	2201      	movs	r2, #1
10001660:	0028      	movs	r0, r5
10001662:	70a3      	strb	r3, [r4, #2]
10001664:	7063      	strb	r3, [r4, #1]
10001666:	f7ff fea9 	bl	100013bc <ph_remove_any_head>
1000166a:	7b69      	ldrb	r1, [r5, #13]
1000166c:	0002      	movs	r2, r0
1000166e:	0028      	movs	r0, r5
10001670:	f7ff fe14 	bl	1000129c <ph_merge_nodes>
10001674:	7368      	strb	r0, [r5, #13]
10001676:	2001      	movs	r0, #1
10001678:	e000      	b.n	1000167c <ph_remove_and_free_node+0x64>
1000167a:	2000      	movs	r0, #0
1000167c:	bd70      	pop	{r4, r5, r6, pc}
1000167e:	7863      	ldrb	r3, [r4, #1]
10001680:	7033      	strb	r3, [r6, #0]
10001682:	e7eb      	b.n	1000165c <ph_remove_and_free_node+0x44>
10001684:	2201      	movs	r2, #1
10001686:	0019      	movs	r1, r3
10001688:	f7ff fe98 	bl	100013bc <ph_remove_any_head>
1000168c:	e7f2      	b.n	10001674 <ph_remove_and_free_node+0x5c>
1000168e:	46c0      	nop			; (mov r8, r8)

10001690 <mutex_init>:
10001690:	b510      	push	{r4, lr}
10001692:	0004      	movs	r4, r0
10001694:	f7ff f96a 	bl	1000096c <next_striped_spin_lock_num>
10001698:	0001      	movs	r1, r0
1000169a:	0020      	movs	r0, r4
1000169c:	f7ff fb08 	bl	10000cb0 <lock_init>
100016a0:	23ff      	movs	r3, #255	; 0xff
100016a2:	7123      	strb	r3, [r4, #4]
100016a4:	f3bf 8f5f 	dmb	sy
100016a8:	bd10      	pop	{r4, pc}
100016aa:	46c0      	nop			; (mov r8, r8)

100016ac <recursive_mutex_init>:
100016ac:	b510      	push	{r4, lr}
100016ae:	0004      	movs	r4, r0
100016b0:	f7ff f95c 	bl	1000096c <next_striped_spin_lock_num>
100016b4:	0001      	movs	r1, r0
100016b6:	0020      	movs	r0, r4
100016b8:	f7ff fafa 	bl	10000cb0 <lock_init>
100016bc:	23ff      	movs	r3, #255	; 0xff
100016be:	80a3      	strh	r3, [r4, #4]
100016c0:	f3bf 8f5f 	dmb	sy
100016c4:	bd10      	pop	{r4, pc}
100016c6:	46c0      	nop			; (mov r8, r8)

100016c8 <uart_init>:
100016c8:	b5f8      	push	{r3, r4, r5, r6, r7, lr}
100016ca:	0004      	movs	r4, r0
100016cc:	2006      	movs	r0, #6
100016ce:	000d      	movs	r5, r1
100016d0:	f000 fafe 	bl	10001cd0 <clock_get_hz>
100016d4:	2800      	cmp	r0, #0
100016d6:	d044      	beq.n	10001762 <uart_init+0x9a>
100016d8:	4b2a      	ldr	r3, [pc, #168]	; (10001784 <uart_init+0xbc>)
100016da:	492b      	ldr	r1, [pc, #172]	; (10001788 <uart_init+0xc0>)
100016dc:	18e2      	adds	r2, r4, r3
100016de:	4253      	negs	r3, r2
100016e0:	415a      	adcs	r2, r3
100016e2:	2380      	movs	r3, #128	; 0x80
100016e4:	03db      	lsls	r3, r3, #15
100016e6:	469c      	mov	ip, r3
100016e8:	0592      	lsls	r2, r2, #22
100016ea:	4b28      	ldr	r3, [pc, #160]	; (1000178c <uart_init+0xc4>)
100016ec:	4462      	add	r2, ip
100016ee:	601a      	str	r2, [r3, #0]
100016f0:	4b27      	ldr	r3, [pc, #156]	; (10001790 <uart_init+0xc8>)
100016f2:	601a      	str	r2, [r3, #0]
100016f4:	0010      	movs	r0, r2
100016f6:	688b      	ldr	r3, [r1, #8]
100016f8:	4398      	bics	r0, r3
100016fa:	d1fb      	bne.n	100016f4 <uart_init+0x2c>
100016fc:	4b21      	ldr	r3, [pc, #132]	; (10001784 <uart_init+0xbc>)
100016fe:	4a25      	ldr	r2, [pc, #148]	; (10001794 <uart_init+0xcc>)
10001700:	18e3      	adds	r3, r4, r3
10001702:	4259      	negs	r1, r3
10001704:	414b      	adcs	r3, r1
10001706:	2180      	movs	r1, #128	; 0x80
10001708:	005b      	lsls	r3, r3, #1
1000170a:	0049      	lsls	r1, r1, #1
1000170c:	2006      	movs	r0, #6
1000170e:	5299      	strh	r1, [r3, r2]
10001710:	f000 fade 	bl	10001cd0 <clock_get_hz>
10001714:	0029      	movs	r1, r5
10001716:	00c0      	lsls	r0, r0, #3
10001718:	f000 fbaa 	bl	10001e70 <__wrap___aeabi_uidiv>
1000171c:	09c3      	lsrs	r3, r0, #7
1000171e:	d121      	bne.n	10001764 <uart_init+0x9c>
10001720:	2740      	movs	r7, #64	; 0x40
10001722:	2101      	movs	r1, #1
10001724:	0026      	movs	r6, r4
10001726:	2580      	movs	r5, #128	; 0x80
10001728:	6261      	str	r1, [r4, #36]	; 0x24
1000172a:	62a3      	str	r3, [r4, #40]	; 0x28
1000172c:	2300      	movs	r3, #0
1000172e:	362c      	adds	r6, #44	; 0x2c
10001730:	01ad      	lsls	r5, r5, #6
10001732:	4335      	orrs	r5, r6
10001734:	602b      	str	r3, [r5, #0]
10001736:	2006      	movs	r0, #6
10001738:	f000 faca 	bl	10001cd0 <clock_get_hz>
1000173c:	0039      	movs	r1, r7
1000173e:	0080      	lsls	r0, r0, #2
10001740:	f000 fb96 	bl	10001e70 <__wrap___aeabi_uidiv>
10001744:	2260      	movs	r2, #96	; 0x60
10001746:	6ae3      	ldr	r3, [r4, #44]	; 0x2c
10001748:	4053      	eors	r3, r2
1000174a:	320e      	adds	r2, #14
1000174c:	401a      	ands	r2, r3
1000174e:	2380      	movs	r3, #128	; 0x80
10001750:	015b      	lsls	r3, r3, #5
10001752:	4333      	orrs	r3, r6
10001754:	601a      	str	r2, [r3, #0]
10001756:	4b10      	ldr	r3, [pc, #64]	; (10001798 <uart_init+0xd0>)
10001758:	6323      	str	r3, [r4, #48]	; 0x30
1000175a:	2310      	movs	r3, #16
1000175c:	602b      	str	r3, [r5, #0]
1000175e:	3b0d      	subs	r3, #13
10001760:	64a3      	str	r3, [r4, #72]	; 0x48
10001762:	bdf8      	pop	{r3, r4, r5, r6, r7, pc}
10001764:	4a0d      	ldr	r2, [pc, #52]	; (1000179c <uart_init+0xd4>)
10001766:	4293      	cmp	r3, r2
10001768:	d903      	bls.n	10001772 <uart_init+0xaa>
1000176a:	2300      	movs	r3, #0
1000176c:	4f0c      	ldr	r7, [pc, #48]	; (100017a0 <uart_init+0xd8>)
1000176e:	490d      	ldr	r1, [pc, #52]	; (100017a4 <uart_init+0xdc>)
10001770:	e7d8      	b.n	10001724 <uart_init+0x5c>
10001772:	227f      	movs	r2, #127	; 0x7f
10001774:	4002      	ands	r2, r0
10001776:	3201      	adds	r2, #1
10001778:	0852      	lsrs	r2, r2, #1
1000177a:	019f      	lsls	r7, r3, #6
1000177c:	0019      	movs	r1, r3
1000177e:	18bf      	adds	r7, r7, r2
10001780:	0013      	movs	r3, r2
10001782:	e7cf      	b.n	10001724 <uart_init+0x5c>
10001784:	bffc8000 	.word	0xbffc8000
10001788:	4000c000 	.word	0x4000c000
1000178c:	4000e000 	.word	0x4000e000
10001790:	4000f000 	.word	0x4000f000
10001794:	20000a54 	.word	0x20000a54
10001798:	00000301 	.word	0x00000301
1000179c:	0000fffe 	.word	0x0000fffe
100017a0:	003fffc0 	.word	0x003fffc0
100017a4:	0000ffff 	.word	0x0000ffff

100017a8 <runtime_init>:
100017a8:	4b2b      	ldr	r3, [pc, #172]	; (10001858 <runtime_init+0xb0>)
100017aa:	4a2c      	ldr	r2, [pc, #176]	; (1000185c <runtime_init+0xb4>)
100017ac:	b570      	push	{r4, r5, r6, lr}
100017ae:	601a      	str	r2, [r3, #0]
100017b0:	4a2b      	ldr	r2, [pc, #172]	; (10001860 <runtime_init+0xb8>)
100017b2:	4b2c      	ldr	r3, [pc, #176]	; (10001864 <runtime_init+0xbc>)
100017b4:	492c      	ldr	r1, [pc, #176]	; (10001868 <runtime_init+0xc0>)
100017b6:	601a      	str	r2, [r3, #0]
100017b8:	0014      	movs	r4, r2
100017ba:	688b      	ldr	r3, [r1, #8]
100017bc:	439c      	bics	r4, r3
100017be:	d1fb      	bne.n	100017b8 <runtime_init+0x10>
100017c0:	4d2a      	ldr	r5, [pc, #168]	; (1000186c <runtime_init+0xc4>)
100017c2:	4e2b      	ldr	r6, [pc, #172]	; (10001870 <runtime_init+0xc8>)
100017c4:	42b5      	cmp	r5, r6
100017c6:	d208      	bcs.n	100017da <runtime_init+0x32>
100017c8:	3e01      	subs	r6, #1
100017ca:	1b76      	subs	r6, r6, r5
100017cc:	08b6      	lsrs	r6, r6, #2
100017ce:	cd08      	ldmia	r5!, {r3}
100017d0:	4798      	blx	r3
100017d2:	0023      	movs	r3, r4
100017d4:	3401      	adds	r4, #1
100017d6:	42b3      	cmp	r3, r6
100017d8:	d1f9      	bne.n	100017ce <runtime_init+0x26>
100017da:	f000 f91f 	bl	10001a1c <clocks_init>
100017de:	4a25      	ldr	r2, [pc, #148]	; (10001874 <runtime_init+0xcc>)
100017e0:	4b20      	ldr	r3, [pc, #128]	; (10001864 <runtime_init+0xbc>)
100017e2:	601a      	str	r2, [r3, #0]
100017e4:	4a20      	ldr	r2, [pc, #128]	; (10001868 <runtime_init+0xc0>)
100017e6:	6893      	ldr	r3, [r2, #8]
100017e8:	43db      	mvns	r3, r3
100017ea:	01db      	lsls	r3, r3, #7
100017ec:	09dd      	lsrs	r5, r3, #7
100017ee:	2b00      	cmp	r3, #0
100017f0:	d1f9      	bne.n	100017e6 <runtime_init+0x3e>
100017f2:	2240      	movs	r2, #64	; 0x40
100017f4:	4b20      	ldr	r3, [pc, #128]	; (10001878 <runtime_init+0xd0>)
100017f6:	4e21      	ldr	r6, [pc, #132]	; (1000187c <runtime_init+0xd4>)
100017f8:	4c21      	ldr	r4, [pc, #132]	; (10001880 <runtime_init+0xd8>)
100017fa:	679a      	str	r2, [r3, #120]	; 0x78
100017fc:	675a      	str	r2, [r3, #116]	; 0x74
100017fe:	671a      	str	r2, [r3, #112]	; 0x70
10001800:	66da      	str	r2, [r3, #108]	; 0x6c
10001802:	42b4      	cmp	r4, r6
10001804:	d208      	bcs.n	10001818 <runtime_init+0x70>
10001806:	6823      	ldr	r3, [r4, #0]
10001808:	0020      	movs	r0, r4
1000180a:	3408      	adds	r4, #8
1000180c:	2b00      	cmp	r3, #0
1000180e:	d01f      	beq.n	10001850 <runtime_init+0xa8>
10001810:	f7ff ff4c 	bl	100016ac <recursive_mutex_init>
10001814:	42b4      	cmp	r4, r6
10001816:	d3f6      	bcc.n	10001806 <runtime_init+0x5e>
10001818:	4c1a      	ldr	r4, [pc, #104]	; (10001884 <runtime_init+0xdc>)
1000181a:	4e1b      	ldr	r6, [pc, #108]	; (10001888 <runtime_init+0xe0>)
1000181c:	22c0      	movs	r2, #192	; 0xc0
1000181e:	68b1      	ldr	r1, [r6, #8]
10001820:	0020      	movs	r0, r4
10001822:	f000 fe69 	bl	100024f8 <__wrap___aeabi_memcpy>
10001826:	60b4      	str	r4, [r6, #8]
10001828:	f7ff f892 	bl	10000950 <spin_locks_reset>
1000182c:	f7ff fa2e 	bl	10000c8c <irq_init_priorities>
10001830:	f7ff fbbe 	bl	10000fb0 <alarm_pool_init_default>
10001834:	4c15      	ldr	r4, [pc, #84]	; (1000188c <runtime_init+0xe4>)
10001836:	4e16      	ldr	r6, [pc, #88]	; (10001890 <runtime_init+0xe8>)
10001838:	42b4      	cmp	r4, r6
1000183a:	d208      	bcs.n	1000184e <runtime_init+0xa6>
1000183c:	3e01      	subs	r6, #1
1000183e:	1b36      	subs	r6, r6, r4
10001840:	08b6      	lsrs	r6, r6, #2
10001842:	cc08      	ldmia	r4!, {r3}
10001844:	4798      	blx	r3
10001846:	002b      	movs	r3, r5
10001848:	3501      	adds	r5, #1
1000184a:	429e      	cmp	r6, r3
1000184c:	d1f9      	bne.n	10001842 <runtime_init+0x9a>
1000184e:	bd70      	pop	{r4, r5, r6, pc}
10001850:	f7ff ff1e 	bl	10001690 <mutex_init>
10001854:	e7d5      	b.n	10001802 <runtime_init+0x5a>
10001856:	46c0      	nop			; (mov r8, r8)
10001858:	4000e000 	.word	0x4000e000
1000185c:	fefbcdbf 	.word	0xfefbcdbf
10001860:	003c7ffe 	.word	0x003c7ffe
10001864:	4000f000 	.word	0x4000f000
10001868:	4000c000 	.word	0x4000c000
1000186c:	2000065c 	.word	0x2000065c
10001870:	2000066c 	.word	0x2000066c
10001874:	01ffffff 	.word	0x01ffffff
10001878:	4001f000 	.word	0x4001f000
1000187c:	2000065c 	.word	0x2000065c
10001880:	20000654 	.word	0x20000654
10001884:	20000000 	.word	0x20000000
10001888:	e000ed00 	.word	0xe000ed00
1000188c:	2000066c 	.word	0x2000066c
10001890:	20000674 	.word	0x20000674

10001894 <exit>:
10001894:	be00      	bkpt	0x0000
10001896:	e7fd      	b.n	10001894 <exit>

10001898 <panic>:
10001898:	b40f      	push	{r0, r1, r2, r3}
1000189a:	b500      	push	{lr}
1000189c:	4808      	ldr	r0, [pc, #32]	; (100018c0 <panic+0x28>)
1000189e:	b083      	sub	sp, #12
100018a0:	f000 fecc 	bl	1000263c <__wrap_puts>
100018a4:	9b04      	ldr	r3, [sp, #16]
100018a6:	2b00      	cmp	r3, #0
100018a8:	d007      	beq.n	100018ba <panic+0x22>
100018aa:	a905      	add	r1, sp, #20
100018ac:	0018      	movs	r0, r3
100018ae:	9101      	str	r1, [sp, #4]
100018b0:	f000 fa8c 	bl	10001dcc <weak_raw_vprintf>
100018b4:	4803      	ldr	r0, [pc, #12]	; (100018c4 <panic+0x2c>)
100018b6:	f000 fec1 	bl	1000263c <__wrap_puts>
100018ba:	be00      	bkpt	0x0000
100018bc:	e7fd      	b.n	100018ba <panic+0x22>
100018be:	46c0      	nop			; (mov r8, r8)
100018c0:	10002c2c 	.word	0x10002c2c
100018c4:	10002c3c 	.word	0x10002c3c

100018c8 <hard_assertion_failure>:
100018c8:	b510      	push	{r4, lr}
100018ca:	4801      	ldr	r0, [pc, #4]	; (100018d0 <hard_assertion_failure+0x8>)
100018cc:	f7ff ffe4 	bl	10001898 <panic>
100018d0:	10002c40 	.word	0x10002c40

100018d4 <clock_configure>:
100018d4:	b5f0      	push	{r4, r5, r6, r7, lr}
100018d6:	4657      	mov	r7, sl
100018d8:	464e      	mov	r6, r9
100018da:	4645      	mov	r5, r8
100018dc:	46de      	mov	lr, fp
100018de:	b5e0      	push	{r5, r6, r7, lr}
100018e0:	b083      	sub	sp, #12
100018e2:	0017      	movs	r7, r2
100018e4:	9a0c      	ldr	r2, [sp, #48]	; 0x30
100018e6:	0005      	movs	r5, r0
100018e8:	4689      	mov	r9, r1
100018ea:	429a      	cmp	r2, r3
100018ec:	d900      	bls.n	100018f0 <clock_configure+0x1c>
100018ee:	e071      	b.n	100019d4 <clock_configure+0x100>
100018f0:	0e1a      	lsrs	r2, r3, #24
100018f2:	4693      	mov	fp, r2
100018f4:	021e      	lsls	r6, r3, #8
100018f6:	0030      	movs	r0, r6
100018f8:	2300      	movs	r3, #0
100018fa:	4659      	mov	r1, fp
100018fc:	9a0c      	ldr	r2, [sp, #48]	; 0x30
100018fe:	f000 faf9 	bl	10001ef4 <__wrap___aeabi_uldivmod>
10001902:	4b44      	ldr	r3, [pc, #272]	; (10001a14 <clock_configure+0x140>)
10001904:	006c      	lsls	r4, r5, #1
10001906:	469c      	mov	ip, r3
10001908:	1964      	adds	r4, r4, r5
1000190a:	00a4      	lsls	r4, r4, #2
1000190c:	4464      	add	r4, ip
1000190e:	6863      	ldr	r3, [r4, #4]
10001910:	4680      	mov	r8, r0
10001912:	4283      	cmp	r3, r0
10001914:	d200      	bcs.n	10001918 <clock_configure+0x44>
10001916:	6060      	str	r0, [r4, #4]
10001918:	1f2b      	subs	r3, r5, #4
1000191a:	b2da      	uxtb	r2, r3
1000191c:	23c0      	movs	r3, #192	; 0xc0
1000191e:	019b      	lsls	r3, r3, #6
10001920:	9201      	str	r2, [sp, #4]
10001922:	4323      	orrs	r3, r4
10001924:	2a01      	cmp	r2, #1
10001926:	d933      	bls.n	10001990 <clock_configure+0xbc>
10001928:	2280      	movs	r2, #128	; 0x80
1000192a:	0112      	lsls	r2, r2, #4
1000192c:	601a      	str	r2, [r3, #0]
1000192e:	4b3a      	ldr	r3, [pc, #232]	; (10001a18 <clock_configure+0x144>)
10001930:	00ad      	lsls	r5, r5, #2
10001932:	5959      	ldr	r1, [r3, r5]
10001934:	469a      	mov	sl, r3
10001936:	2900      	cmp	r1, #0
10001938:	d04e      	beq.n	100019d8 <clock_configure+0x104>
1000193a:	4653      	mov	r3, sl
1000193c:	6958      	ldr	r0, [r3, #20]
1000193e:	f000 fa97 	bl	10001e70 <__wrap___aeabi_uidiv>
10001942:	3001      	adds	r0, #1
10001944:	3801      	subs	r0, #1
10001946:	d1fd      	bne.n	10001944 <clock_configure+0x70>
10001948:	017b      	lsls	r3, r7, #5
1000194a:	27e0      	movs	r7, #224	; 0xe0
1000194c:	6822      	ldr	r2, [r4, #0]
1000194e:	4053      	eors	r3, r2
10001950:	401f      	ands	r7, r3
10001952:	2380      	movs	r3, #128	; 0x80
10001954:	9a01      	ldr	r2, [sp, #4]
10001956:	015b      	lsls	r3, r3, #5
10001958:	4323      	orrs	r3, r4
1000195a:	601f      	str	r7, [r3, #0]
1000195c:	2a01      	cmp	r2, #1
1000195e:	d92c      	bls.n	100019ba <clock_configure+0xe6>
10001960:	2380      	movs	r3, #128	; 0x80
10001962:	2280      	movs	r2, #128	; 0x80
10001964:	019b      	lsls	r3, r3, #6
10001966:	4323      	orrs	r3, r4
10001968:	0112      	lsls	r2, r2, #4
1000196a:	601a      	str	r2, [r3, #0]
1000196c:	4643      	mov	r3, r8
1000196e:	4642      	mov	r2, r8
10001970:	6063      	str	r3, [r4, #4]
10001972:	0030      	movs	r0, r6
10001974:	2300      	movs	r3, #0
10001976:	4659      	mov	r1, fp
10001978:	f000 fabc 	bl	10001ef4 <__wrap___aeabi_uldivmod>
1000197c:	4653      	mov	r3, sl
1000197e:	5158      	str	r0, [r3, r5]
10001980:	2001      	movs	r0, #1
10001982:	b003      	add	sp, #12
10001984:	bcf0      	pop	{r4, r5, r6, r7}
10001986:	46bb      	mov	fp, r7
10001988:	46b2      	mov	sl, r6
1000198a:	46a9      	mov	r9, r5
1000198c:	46a0      	mov	r8, r4
1000198e:	bdf0      	pop	{r4, r5, r6, r7, pc}
10001990:	464a      	mov	r2, r9
10001992:	2a01      	cmp	r2, #1
10001994:	d02a      	beq.n	100019ec <clock_configure+0x118>
10001996:	2280      	movs	r2, #128	; 0x80
10001998:	0112      	lsls	r2, r2, #4
1000199a:	601a      	str	r2, [r3, #0]
1000199c:	4b1e      	ldr	r3, [pc, #120]	; (10001a18 <clock_configure+0x144>)
1000199e:	00ad      	lsls	r5, r5, #2
100019a0:	5959      	ldr	r1, [r3, r5]
100019a2:	469a      	mov	sl, r3
100019a4:	2900      	cmp	r1, #0
100019a6:	d1c8      	bne.n	1000193a <clock_configure+0x66>
100019a8:	017b      	lsls	r3, r7, #5
100019aa:	27e0      	movs	r7, #224	; 0xe0
100019ac:	6822      	ldr	r2, [r4, #0]
100019ae:	4053      	eors	r3, r2
100019b0:	401f      	ands	r7, r3
100019b2:	2380      	movs	r3, #128	; 0x80
100019b4:	015b      	lsls	r3, r3, #5
100019b6:	4323      	orrs	r3, r4
100019b8:	601f      	str	r7, [r3, #0]
100019ba:	464a      	mov	r2, r9
100019bc:	6821      	ldr	r1, [r4, #0]
100019be:	4051      	eors	r1, r2
100019c0:	2203      	movs	r2, #3
100019c2:	400a      	ands	r2, r1
100019c4:	601a      	str	r2, [r3, #0]
100019c6:	2201      	movs	r2, #1
100019c8:	464b      	mov	r3, r9
100019ca:	409a      	lsls	r2, r3
100019cc:	68a3      	ldr	r3, [r4, #8]
100019ce:	421a      	tst	r2, r3
100019d0:	d0fc      	beq.n	100019cc <clock_configure+0xf8>
100019d2:	e7c5      	b.n	10001960 <clock_configure+0x8c>
100019d4:	2000      	movs	r0, #0
100019d6:	e7d4      	b.n	10001982 <clock_configure+0xae>
100019d8:	017b      	lsls	r3, r7, #5
100019da:	27e0      	movs	r7, #224	; 0xe0
100019dc:	6822      	ldr	r2, [r4, #0]
100019de:	4053      	eors	r3, r2
100019e0:	401f      	ands	r7, r3
100019e2:	2380      	movs	r3, #128	; 0x80
100019e4:	015b      	lsls	r3, r3, #5
100019e6:	4323      	orrs	r3, r4
100019e8:	601f      	str	r7, [r3, #0]
100019ea:	e7b9      	b.n	10001960 <clock_configure+0x8c>
100019ec:	3202      	adds	r2, #2
100019ee:	601a      	str	r2, [r3, #0]
100019f0:	3a02      	subs	r2, #2
100019f2:	68a3      	ldr	r3, [r4, #8]
100019f4:	421a      	tst	r2, r3
100019f6:	d0fc      	beq.n	100019f2 <clock_configure+0x11e>
100019f8:	017b      	lsls	r3, r7, #5
100019fa:	27e0      	movs	r7, #224	; 0xe0
100019fc:	6822      	ldr	r2, [r4, #0]
100019fe:	00ad      	lsls	r5, r5, #2
10001a00:	4053      	eors	r3, r2
10001a02:	401f      	ands	r7, r3
10001a04:	2380      	movs	r3, #128	; 0x80
10001a06:	4a04      	ldr	r2, [pc, #16]	; (10001a18 <clock_configure+0x144>)
10001a08:	015b      	lsls	r3, r3, #5
10001a0a:	4323      	orrs	r3, r4
10001a0c:	4692      	mov	sl, r2
10001a0e:	601f      	str	r7, [r3, #0]
10001a10:	e7d3      	b.n	100019ba <clock_configure+0xe6>
10001a12:	46c0      	nop			; (mov r8, r8)
10001a14:	40008000 	.word	0x40008000
10001a18:	20000678 	.word	0x20000678

10001a1c <clocks_init>:
10001a1c:	b510      	push	{r4, lr}
10001a1e:	200c      	movs	r0, #12
10001a20:	b082      	sub	sp, #8
10001a22:	f000 f9af 	bl	10001d84 <watchdog_start_tick>
10001a26:	f7fe ff8b 	bl	10000940 <running_on_fpga>
10001a2a:	2800      	cmp	r0, #0
10001a2c:	d010      	beq.n	10001a50 <clocks_init+0x34>
10001a2e:	4b86      	ldr	r3, [pc, #536]	; (10001c48 <clocks_init+0x22c>)
10001a30:	4886      	ldr	r0, [pc, #536]	; (10001c4c <clocks_init+0x230>)
10001a32:	4986      	ldr	r1, [pc, #536]	; (10001c4c <clocks_init+0x230>)
10001a34:	4a86      	ldr	r2, [pc, #536]	; (10001c50 <clocks_init+0x234>)
10001a36:	6018      	str	r0, [r3, #0]
10001a38:	6059      	str	r1, [r3, #4]
10001a3a:	6098      	str	r0, [r3, #8]
10001a3c:	60d9      	str	r1, [r3, #12]
10001a3e:	6118      	str	r0, [r3, #16]
10001a40:	6159      	str	r1, [r3, #20]
10001a42:	6198      	str	r0, [r3, #24]
10001a44:	61d9      	str	r1, [r3, #28]
10001a46:	6218      	str	r0, [r3, #32]
10001a48:	6259      	str	r1, [r3, #36]	; 0x24
10001a4a:	625a      	str	r2, [r3, #36]	; 0x24
10001a4c:	b002      	add	sp, #8
10001a4e:	bd10      	pop	{r4, pc}
10001a50:	4c80      	ldr	r4, [pc, #512]	; (10001c54 <clocks_init+0x238>)
10001a52:	67a0      	str	r0, [r4, #120]	; 0x78
10001a54:	f000 f99e 	bl	10001d94 <xosc_init>
10001a58:	2201      	movs	r2, #1
10001a5a:	4b7f      	ldr	r3, [pc, #508]	; (10001c58 <clocks_init+0x23c>)
10001a5c:	601a      	str	r2, [r3, #0]
10001a5e:	6c63      	ldr	r3, [r4, #68]	; 0x44
10001a60:	2b01      	cmp	r3, #1
10001a62:	d1fc      	bne.n	10001a5e <clocks_init+0x42>
10001a64:	2203      	movs	r2, #3
10001a66:	4b7d      	ldr	r3, [pc, #500]	; (10001c5c <clocks_init+0x240>)
10001a68:	601a      	str	r2, [r3, #0]
10001a6a:	4a7a      	ldr	r2, [pc, #488]	; (10001c54 <clocks_init+0x238>)
10001a6c:	6b93      	ldr	r3, [r2, #56]	; 0x38
10001a6e:	2b01      	cmp	r3, #1
10001a70:	d1fc      	bne.n	10001a6c <clocks_init+0x50>
10001a72:	3301      	adds	r3, #1
10001a74:	2101      	movs	r1, #1
10001a76:	4a7a      	ldr	r2, [pc, #488]	; (10001c60 <clocks_init+0x244>)
10001a78:	487a      	ldr	r0, [pc, #488]	; (10001c64 <clocks_init+0x248>)
10001a7a:	9300      	str	r3, [sp, #0]
10001a7c:	3304      	adds	r3, #4
10001a7e:	f000 f92d 	bl	10001cdc <pll_init>
10001a82:	2305      	movs	r3, #5
10001a84:	4a78      	ldr	r2, [pc, #480]	; (10001c68 <clocks_init+0x24c>)
10001a86:	9300      	str	r3, [sp, #0]
10001a88:	2101      	movs	r1, #1
10001a8a:	4878      	ldr	r0, [pc, #480]	; (10001c6c <clocks_init+0x250>)
10001a8c:	f000 f926 	bl	10001cdc <pll_init>
10001a90:	4b77      	ldr	r3, [pc, #476]	; (10001c70 <clocks_init+0x254>)
10001a92:	685a      	ldr	r2, [r3, #4]
10001a94:	2aff      	cmp	r2, #255	; 0xff
10001a96:	d802      	bhi.n	10001a9e <clocks_init+0x82>
10001a98:	2280      	movs	r2, #128	; 0x80
10001a9a:	0052      	lsls	r2, r2, #1
10001a9c:	605a      	str	r2, [r3, #4]
10001a9e:	2280      	movs	r2, #128	; 0x80
10001aa0:	4b6e      	ldr	r3, [pc, #440]	; (10001c5c <clocks_init+0x240>)
10001aa2:	4c69      	ldr	r4, [pc, #420]	; (10001c48 <clocks_init+0x22c>)
10001aa4:	0112      	lsls	r2, r2, #4
10001aa6:	601a      	str	r2, [r3, #0]
10001aa8:	6921      	ldr	r1, [r4, #16]
10001aaa:	2900      	cmp	r1, #0
10001aac:	d005      	beq.n	10001aba <clocks_init+0x9e>
10001aae:	6960      	ldr	r0, [r4, #20]
10001ab0:	f000 f9de 	bl	10001e70 <__wrap___aeabi_uidiv>
10001ab4:	3001      	adds	r0, #1
10001ab6:	3801      	subs	r0, #1
10001ab8:	d1fd      	bne.n	10001ab6 <clocks_init+0x9a>
10001aba:	22e0      	movs	r2, #224	; 0xe0
10001abc:	4b6c      	ldr	r3, [pc, #432]	; (10001c70 <clocks_init+0x254>)
10001abe:	486d      	ldr	r0, [pc, #436]	; (10001c74 <clocks_init+0x258>)
10001ac0:	6819      	ldr	r1, [r3, #0]
10001ac2:	400a      	ands	r2, r1
10001ac4:	6002      	str	r2, [r0, #0]
10001ac6:	2202      	movs	r2, #2
10001ac8:	6819      	ldr	r1, [r3, #0]
10001aca:	4051      	eors	r1, r2
10001acc:	3201      	adds	r2, #1
10001ace:	400a      	ands	r2, r1
10001ad0:	2104      	movs	r1, #4
10001ad2:	6002      	str	r2, [r0, #0]
10001ad4:	689a      	ldr	r2, [r3, #8]
10001ad6:	4211      	tst	r1, r2
10001ad8:	d0fc      	beq.n	10001ad4 <clocks_init+0xb8>
10001ada:	2180      	movs	r1, #128	; 0x80
10001adc:	4a66      	ldr	r2, [pc, #408]	; (10001c78 <clocks_init+0x25c>)
10001ade:	0109      	lsls	r1, r1, #4
10001ae0:	6011      	str	r1, [r2, #0]
10001ae2:	2280      	movs	r2, #128	; 0x80
10001ae4:	0052      	lsls	r2, r2, #1
10001ae6:	605a      	str	r2, [r3, #4]
10001ae8:	4b64      	ldr	r3, [pc, #400]	; (10001c7c <clocks_init+0x260>)
10001aea:	6123      	str	r3, [r4, #16]
10001aec:	4b64      	ldr	r3, [pc, #400]	; (10001c80 <clocks_init+0x264>)
10001aee:	6859      	ldr	r1, [r3, #4]
10001af0:	29ff      	cmp	r1, #255	; 0xff
10001af2:	d800      	bhi.n	10001af6 <clocks_init+0xda>
10001af4:	605a      	str	r2, [r3, #4]
10001af6:	2203      	movs	r2, #3
10001af8:	2101      	movs	r1, #1
10001afa:	4b57      	ldr	r3, [pc, #348]	; (10001c58 <clocks_init+0x23c>)
10001afc:	601a      	str	r2, [r3, #0]
10001afe:	4a60      	ldr	r2, [pc, #384]	; (10001c80 <clocks_init+0x264>)
10001b00:	6893      	ldr	r3, [r2, #8]
10001b02:	4219      	tst	r1, r3
10001b04:	d0fc      	beq.n	10001b00 <clocks_init+0xe4>
10001b06:	23e0      	movs	r3, #224	; 0xe0
10001b08:	6810      	ldr	r0, [r2, #0]
10001b0a:	4003      	ands	r3, r0
10001b0c:	485d      	ldr	r0, [pc, #372]	; (10001c84 <clocks_init+0x268>)
10001b0e:	6003      	str	r3, [r0, #0]
10001b10:	6812      	ldr	r2, [r2, #0]
10001b12:	2303      	movs	r3, #3
10001b14:	404a      	eors	r2, r1
10001b16:	2102      	movs	r1, #2
10001b18:	4013      	ands	r3, r2
10001b1a:	4a59      	ldr	r2, [pc, #356]	; (10001c80 <clocks_init+0x264>)
10001b1c:	6003      	str	r3, [r0, #0]
10001b1e:	6893      	ldr	r3, [r2, #8]
10001b20:	4219      	tst	r1, r3
10001b22:	d0fc      	beq.n	10001b1e <clocks_init+0x102>
10001b24:	2180      	movs	r1, #128	; 0x80
10001b26:	4b58      	ldr	r3, [pc, #352]	; (10001c88 <clocks_init+0x26c>)
10001b28:	0109      	lsls	r1, r1, #4
10001b2a:	6019      	str	r1, [r3, #0]
10001b2c:	2180      	movs	r1, #128	; 0x80
10001b2e:	4b57      	ldr	r3, [pc, #348]	; (10001c8c <clocks_init+0x270>)
10001b30:	0049      	lsls	r1, r1, #1
10001b32:	6051      	str	r1, [r2, #4]
10001b34:	6163      	str	r3, [r4, #20]
10001b36:	4b56      	ldr	r3, [pc, #344]	; (10001c90 <clocks_init+0x274>)
10001b38:	685a      	ldr	r2, [r3, #4]
10001b3a:	2aff      	cmp	r2, #255	; 0xff
10001b3c:	d800      	bhi.n	10001b40 <clocks_init+0x124>
10001b3e:	6059      	str	r1, [r3, #4]
10001b40:	2280      	movs	r2, #128	; 0x80
10001b42:	4b54      	ldr	r3, [pc, #336]	; (10001c94 <clocks_init+0x278>)
10001b44:	0112      	lsls	r2, r2, #4
10001b46:	601a      	str	r2, [r3, #0]
10001b48:	69e1      	ldr	r1, [r4, #28]
10001b4a:	2900      	cmp	r1, #0
10001b4c:	d005      	beq.n	10001b5a <clocks_init+0x13e>
10001b4e:	6960      	ldr	r0, [r4, #20]
10001b50:	f000 f98e 	bl	10001e70 <__wrap___aeabi_uidiv>
10001b54:	3001      	adds	r0, #1
10001b56:	3801      	subs	r0, #1
10001b58:	d1fd      	bne.n	10001b56 <clocks_init+0x13a>
10001b5a:	23e0      	movs	r3, #224	; 0xe0
10001b5c:	4a4c      	ldr	r2, [pc, #304]	; (10001c90 <clocks_init+0x274>)
10001b5e:	6811      	ldr	r1, [r2, #0]
10001b60:	400b      	ands	r3, r1
10001b62:	494d      	ldr	r1, [pc, #308]	; (10001c98 <clocks_init+0x27c>)
10001b64:	600b      	str	r3, [r1, #0]
10001b66:	2180      	movs	r1, #128	; 0x80
10001b68:	4b4c      	ldr	r3, [pc, #304]	; (10001c9c <clocks_init+0x280>)
10001b6a:	0109      	lsls	r1, r1, #4
10001b6c:	6019      	str	r1, [r3, #0]
10001b6e:	2180      	movs	r1, #128	; 0x80
10001b70:	4b36      	ldr	r3, [pc, #216]	; (10001c4c <clocks_init+0x230>)
10001b72:	0049      	lsls	r1, r1, #1
10001b74:	6051      	str	r1, [r2, #4]
10001b76:	61e3      	str	r3, [r4, #28]
10001b78:	4b49      	ldr	r3, [pc, #292]	; (10001ca0 <clocks_init+0x284>)
10001b7a:	685a      	ldr	r2, [r3, #4]
10001b7c:	2aff      	cmp	r2, #255	; 0xff
10001b7e:	d800      	bhi.n	10001b82 <clocks_init+0x166>
10001b80:	6059      	str	r1, [r3, #4]
10001b82:	2280      	movs	r2, #128	; 0x80
10001b84:	4b47      	ldr	r3, [pc, #284]	; (10001ca4 <clocks_init+0x288>)
10001b86:	0112      	lsls	r2, r2, #4
10001b88:	601a      	str	r2, [r3, #0]
10001b8a:	6a21      	ldr	r1, [r4, #32]
10001b8c:	2900      	cmp	r1, #0
10001b8e:	d005      	beq.n	10001b9c <clocks_init+0x180>
10001b90:	6960      	ldr	r0, [r4, #20]
10001b92:	f000 f96d 	bl	10001e70 <__wrap___aeabi_uidiv>
10001b96:	3001      	adds	r0, #1
10001b98:	3801      	subs	r0, #1
10001b9a:	d1fd      	bne.n	10001b98 <clocks_init+0x17c>
10001b9c:	23e0      	movs	r3, #224	; 0xe0
10001b9e:	4a40      	ldr	r2, [pc, #256]	; (10001ca0 <clocks_init+0x284>)
10001ba0:	6811      	ldr	r1, [r2, #0]
10001ba2:	400b      	ands	r3, r1
10001ba4:	4940      	ldr	r1, [pc, #256]	; (10001ca8 <clocks_init+0x28c>)
10001ba6:	600b      	str	r3, [r1, #0]
10001ba8:	2180      	movs	r1, #128	; 0x80
10001baa:	4b40      	ldr	r3, [pc, #256]	; (10001cac <clocks_init+0x290>)
10001bac:	0109      	lsls	r1, r1, #4
10001bae:	6019      	str	r1, [r3, #0]
10001bb0:	2380      	movs	r3, #128	; 0x80
10001bb2:	005b      	lsls	r3, r3, #1
10001bb4:	6053      	str	r3, [r2, #4]
10001bb6:	2280      	movs	r2, #128	; 0x80
10001bb8:	4b24      	ldr	r3, [pc, #144]	; (10001c4c <clocks_init+0x230>)
10001bba:	02d2      	lsls	r2, r2, #11
10001bbc:	6223      	str	r3, [r4, #32]
10001bbe:	4b3c      	ldr	r3, [pc, #240]	; (10001cb0 <clocks_init+0x294>)
10001bc0:	6859      	ldr	r1, [r3, #4]
10001bc2:	4291      	cmp	r1, r2
10001bc4:	d200      	bcs.n	10001bc8 <clocks_init+0x1ac>
10001bc6:	605a      	str	r2, [r3, #4]
10001bc8:	2280      	movs	r2, #128	; 0x80
10001bca:	4b3a      	ldr	r3, [pc, #232]	; (10001cb4 <clocks_init+0x298>)
10001bcc:	0112      	lsls	r2, r2, #4
10001bce:	601a      	str	r2, [r3, #0]
10001bd0:	6a61      	ldr	r1, [r4, #36]	; 0x24
10001bd2:	2900      	cmp	r1, #0
10001bd4:	d005      	beq.n	10001be2 <clocks_init+0x1c6>
10001bd6:	6960      	ldr	r0, [r4, #20]
10001bd8:	f000 f94a 	bl	10001e70 <__wrap___aeabi_uidiv>
10001bdc:	3001      	adds	r0, #1
10001bde:	3801      	subs	r0, #1
10001be0:	d1fd      	bne.n	10001bde <clocks_init+0x1c2>
10001be2:	23e0      	movs	r3, #224	; 0xe0
10001be4:	4a32      	ldr	r2, [pc, #200]	; (10001cb0 <clocks_init+0x294>)
10001be6:	6811      	ldr	r1, [r2, #0]
10001be8:	400b      	ands	r3, r1
10001bea:	4933      	ldr	r1, [pc, #204]	; (10001cb8 <clocks_init+0x29c>)
10001bec:	600b      	str	r3, [r1, #0]
10001bee:	2180      	movs	r1, #128	; 0x80
10001bf0:	4b32      	ldr	r3, [pc, #200]	; (10001cbc <clocks_init+0x2a0>)
10001bf2:	0109      	lsls	r1, r1, #4
10001bf4:	6019      	str	r1, [r3, #0]
10001bf6:	2380      	movs	r3, #128	; 0x80
10001bf8:	02db      	lsls	r3, r3, #11
10001bfa:	6053      	str	r3, [r2, #4]
10001bfc:	4b14      	ldr	r3, [pc, #80]	; (10001c50 <clocks_init+0x234>)
10001bfe:	6263      	str	r3, [r4, #36]	; 0x24
10001c00:	4b2f      	ldr	r3, [pc, #188]	; (10001cc0 <clocks_init+0x2a4>)
10001c02:	685a      	ldr	r2, [r3, #4]
10001c04:	2aff      	cmp	r2, #255	; 0xff
10001c06:	d802      	bhi.n	10001c0e <clocks_init+0x1f2>
10001c08:	2280      	movs	r2, #128	; 0x80
10001c0a:	0052      	lsls	r2, r2, #1
10001c0c:	605a      	str	r2, [r3, #4]
10001c0e:	2280      	movs	r2, #128	; 0x80
10001c10:	4b2c      	ldr	r3, [pc, #176]	; (10001cc4 <clocks_init+0x2a8>)
10001c12:	0112      	lsls	r2, r2, #4
10001c14:	601a      	str	r2, [r3, #0]
10001c16:	69a1      	ldr	r1, [r4, #24]
10001c18:	2900      	cmp	r1, #0
10001c1a:	d005      	beq.n	10001c28 <clocks_init+0x20c>
10001c1c:	6960      	ldr	r0, [r4, #20]
10001c1e:	f000 f927 	bl	10001e70 <__wrap___aeabi_uidiv>
10001c22:	3001      	adds	r0, #1
10001c24:	3801      	subs	r0, #1
10001c26:	d1fd      	bne.n	10001c24 <clocks_init+0x208>
10001c28:	23e0      	movs	r3, #224	; 0xe0
10001c2a:	4a25      	ldr	r2, [pc, #148]	; (10001cc0 <clocks_init+0x2a4>)
10001c2c:	6811      	ldr	r1, [r2, #0]
10001c2e:	400b      	ands	r3, r1
10001c30:	4925      	ldr	r1, [pc, #148]	; (10001cc8 <clocks_init+0x2ac>)
10001c32:	600b      	str	r3, [r1, #0]
10001c34:	2180      	movs	r1, #128	; 0x80
10001c36:	4b25      	ldr	r3, [pc, #148]	; (10001ccc <clocks_init+0x2b0>)
10001c38:	0109      	lsls	r1, r1, #4
10001c3a:	6019      	str	r1, [r3, #0]
10001c3c:	2380      	movs	r3, #128	; 0x80
10001c3e:	005b      	lsls	r3, r3, #1
10001c40:	6053      	str	r3, [r2, #4]
10001c42:	4b12      	ldr	r3, [pc, #72]	; (10001c8c <clocks_init+0x270>)
10001c44:	61a3      	str	r3, [r4, #24]
10001c46:	e701      	b.n	10001a4c <clocks_init+0x30>
10001c48:	20000678 	.word	0x20000678
10001c4c:	02dc6c00 	.word	0x02dc6c00
10001c50:	0000b71b 	.word	0x0000b71b
10001c54:	40008000 	.word	0x40008000
10001c58:	4000b03c 	.word	0x4000b03c
10001c5c:	4000b030 	.word	0x4000b030
10001c60:	59682f00 	.word	0x59682f00
10001c64:	40028000 	.word	0x40028000
10001c68:	47868c00 	.word	0x47868c00
10001c6c:	4002c000 	.word	0x4002c000
10001c70:	40008030 	.word	0x40008030
10001c74:	40009030 	.word	0x40009030
10001c78:	4000a030 	.word	0x4000a030
10001c7c:	00b71b00 	.word	0x00b71b00
10001c80:	4000803c 	.word	0x4000803c
10001c84:	4000903c 	.word	0x4000903c
10001c88:	4000a03c 	.word	0x4000a03c
10001c8c:	07735940 	.word	0x07735940
10001c90:	40008054 	.word	0x40008054
10001c94:	4000b054 	.word	0x4000b054
10001c98:	40009054 	.word	0x40009054
10001c9c:	4000a054 	.word	0x4000a054
10001ca0:	40008060 	.word	0x40008060
10001ca4:	4000b060 	.word	0x4000b060
10001ca8:	40009060 	.word	0x40009060
10001cac:	4000a060 	.word	0x4000a060
10001cb0:	4000806c 	.word	0x4000806c
10001cb4:	4000b06c 	.word	0x4000b06c
10001cb8:	4000906c 	.word	0x4000906c
10001cbc:	4000a06c 	.word	0x4000a06c
10001cc0:	40008048 	.word	0x40008048
10001cc4:	4000b048 	.word	0x4000b048
10001cc8:	40009048 	.word	0x40009048
10001ccc:	4000a048 	.word	0x4000a048

10001cd0 <clock_get_hz>:
10001cd0:	4b01      	ldr	r3, [pc, #4]	; (10001cd8 <clock_get_hz+0x8>)
10001cd2:	0080      	lsls	r0, r0, #2
10001cd4:	58c0      	ldr	r0, [r0, r3]
10001cd6:	4770      	bx	lr
10001cd8:	20000678 	.word	0x20000678

10001cdc <pll_init>:
10001cdc:	b5f8      	push	{r3, r4, r5, r6, r7, lr}
10001cde:	0004      	movs	r4, r0
10001ce0:	200c      	movs	r0, #12
10001ce2:	0017      	movs	r7, r2
10001ce4:	001d      	movs	r5, r3
10001ce6:	000e      	movs	r6, r1
10001ce8:	f000 f8c2 	bl	10001e70 <__wrap___aeabi_uidiv>
10001cec:	0143      	lsls	r3, r0, #5
10001cee:	1a1b      	subs	r3, r3, r0
10001cf0:	0199      	lsls	r1, r3, #6
10001cf2:	1ac9      	subs	r1, r1, r3
10001cf4:	00c9      	lsls	r1, r1, #3
10001cf6:	1809      	adds	r1, r1, r0
10001cf8:	0189      	lsls	r1, r1, #6
10001cfa:	0038      	movs	r0, r7
10001cfc:	f000 f8b8 	bl	10001e70 <__wrap___aeabi_uidiv>
10001d00:	9b06      	ldr	r3, [sp, #24]
10001d02:	0429      	lsls	r1, r5, #16
10001d04:	031b      	lsls	r3, r3, #12
10001d06:	4319      	orrs	r1, r3
10001d08:	6823      	ldr	r3, [r4, #0]
10001d0a:	2b00      	cmp	r3, #0
10001d0c:	db20      	blt.n	10001d50 <pll_init+0x74>
10001d0e:	4b19      	ldr	r3, [pc, #100]	; (10001d74 <pll_init+0x98>)
10001d10:	4d19      	ldr	r5, [pc, #100]	; (10001d78 <pll_init+0x9c>)
10001d12:	18e3      	adds	r3, r4, r3
10001d14:	425a      	negs	r2, r3
10001d16:	4153      	adcs	r3, r2
10001d18:	2280      	movs	r2, #128	; 0x80
10001d1a:	0152      	lsls	r2, r2, #5
10001d1c:	4694      	mov	ip, r2
10001d1e:	031b      	lsls	r3, r3, #12
10001d20:	4a16      	ldr	r2, [pc, #88]	; (10001d7c <pll_init+0xa0>)
10001d22:	4463      	add	r3, ip
10001d24:	6013      	str	r3, [r2, #0]
10001d26:	4a16      	ldr	r2, [pc, #88]	; (10001d80 <pll_init+0xa4>)
10001d28:	6013      	str	r3, [r2, #0]
10001d2a:	001f      	movs	r7, r3
10001d2c:	68aa      	ldr	r2, [r5, #8]
10001d2e:	4397      	bics	r7, r2
10001d30:	d1fb      	bne.n	10001d2a <pll_init+0x4e>
10001d32:	23c0      	movs	r3, #192	; 0xc0
10001d34:	1d22      	adds	r2, r4, #4
10001d36:	019b      	lsls	r3, r3, #6
10001d38:	4313      	orrs	r3, r2
10001d3a:	2221      	movs	r2, #33	; 0x21
10001d3c:	6026      	str	r6, [r4, #0]
10001d3e:	60a0      	str	r0, [r4, #8]
10001d40:	601a      	str	r2, [r3, #0]
10001d42:	6822      	ldr	r2, [r4, #0]
10001d44:	2a00      	cmp	r2, #0
10001d46:	dafc      	bge.n	10001d42 <pll_init+0x66>
10001d48:	2208      	movs	r2, #8
10001d4a:	60e1      	str	r1, [r4, #12]
10001d4c:	601a      	str	r2, [r3, #0]
10001d4e:	bdf8      	pop	{r3, r4, r5, r6, r7, pc}
10001d50:	233f      	movs	r3, #63	; 0x3f
10001d52:	6822      	ldr	r2, [r4, #0]
10001d54:	4013      	ands	r3, r2
10001d56:	42b3      	cmp	r3, r6
10001d58:	d1d9      	bne.n	10001d0e <pll_init+0x32>
10001d5a:	68a3      	ldr	r3, [r4, #8]
10001d5c:	051b      	lsls	r3, r3, #20
10001d5e:	0d1b      	lsrs	r3, r3, #20
10001d60:	4283      	cmp	r3, r0
10001d62:	d1d4      	bne.n	10001d0e <pll_init+0x32>
10001d64:	22ee      	movs	r2, #238	; 0xee
10001d66:	68e3      	ldr	r3, [r4, #12]
10001d68:	02d2      	lsls	r2, r2, #11
10001d6a:	4013      	ands	r3, r2
10001d6c:	428b      	cmp	r3, r1
10001d6e:	d1ce      	bne.n	10001d0e <pll_init+0x32>
10001d70:	e7ed      	b.n	10001d4e <pll_init+0x72>
10001d72:	46c0      	nop			; (mov r8, r8)
10001d74:	bffd4000 	.word	0xbffd4000
10001d78:	4000c000 	.word	0x4000c000
10001d7c:	4000e000 	.word	0x4000e000
10001d80:	4000f000 	.word	0x4000f000

10001d84 <watchdog_start_tick>:
10001d84:	2380      	movs	r3, #128	; 0x80
10001d86:	4a02      	ldr	r2, [pc, #8]	; (10001d90 <watchdog_start_tick+0xc>)
10001d88:	009b      	lsls	r3, r3, #2
10001d8a:	4303      	orrs	r3, r0
10001d8c:	62d3      	str	r3, [r2, #44]	; 0x2c
10001d8e:	4770      	bx	lr
10001d90:	40058000 	.word	0x40058000

10001d94 <xosc_init>:
10001d94:	23aa      	movs	r3, #170	; 0xaa
10001d96:	4a06      	ldr	r2, [pc, #24]	; (10001db0 <xosc_init+0x1c>)
10001d98:	011b      	lsls	r3, r3, #4
10001d9a:	6013      	str	r3, [r2, #0]
10001d9c:	232f      	movs	r3, #47	; 0x2f
10001d9e:	4905      	ldr	r1, [pc, #20]	; (10001db4 <xosc_init+0x20>)
10001da0:	60d3      	str	r3, [r2, #12]
10001da2:	4b05      	ldr	r3, [pc, #20]	; (10001db8 <xosc_init+0x24>)
10001da4:	6019      	str	r1, [r3, #0]
10001da6:	6853      	ldr	r3, [r2, #4]
10001da8:	2b00      	cmp	r3, #0
10001daa:	dafc      	bge.n	10001da6 <xosc_init+0x12>
10001dac:	4770      	bx	lr
10001dae:	46c0      	nop			; (mov r8, r8)
10001db0:	40024000 	.word	0x40024000
10001db4:	00fab000 	.word	0x00fab000
10001db8:	40026000 	.word	0x40026000

10001dbc <_out_char>:
10001dbc:	b510      	push	{r4, lr}
10001dbe:	2800      	cmp	r0, #0
10001dc0:	d100      	bne.n	10001dc4 <_out_char+0x8>
10001dc2:	bd10      	pop	{r4, pc}
10001dc4:	f000 fbe8 	bl	10002598 <__wrap_putchar>
10001dc8:	e7fb      	b.n	10001dc2 <_out_char+0x6>
10001dca:	46c0      	nop			; (mov r8, r8)

10001dcc <weak_raw_vprintf>:
10001dcc:	b510      	push	{r4, lr}
10001dce:	4a09      	ldr	r2, [pc, #36]	; (10001df4 <weak_raw_vprintf+0x28>)
10001dd0:	0003      	movs	r3, r0
10001dd2:	6814      	ldr	r4, [r2, #0]
10001dd4:	b084      	sub	sp, #16
10001dd6:	2c00      	cmp	r4, #0
10001dd8:	d008      	beq.n	10001dec <weak_raw_vprintf+0x20>
10001dda:	2201      	movs	r2, #1
10001ddc:	9100      	str	r1, [sp, #0]
10001dde:	4806      	ldr	r0, [pc, #24]	; (10001df8 <weak_raw_vprintf+0x2c>)
10001de0:	4252      	negs	r2, r2
10001de2:	a903      	add	r1, sp, #12
10001de4:	47a0      	blx	r4
10001de6:	2001      	movs	r0, #1
10001de8:	b004      	add	sp, #16
10001dea:	bd10      	pop	{r4, pc}
10001dec:	f000 fc26 	bl	1000263c <__wrap_puts>
10001df0:	2000      	movs	r0, #0
10001df2:	e7f9      	b.n	10001de8 <weak_raw_vprintf+0x1c>
10001df4:	20000a10 	.word	0x20000a10
10001df8:	10001dbd 	.word	0x10001dbd

10001dfc <__aeabi_bits_init>:
10001dfc:	4801      	ldr	r0, [pc, #4]	; (10001e04 <__aeabi_bits_init+0x8>)
10001dfe:	2104      	movs	r1, #4
10001e00:	4b01      	ldr	r3, [pc, #4]	; (10001e08 <__aeabi_bits_init+0xc>)
10001e02:	4718      	bx	r3
10001e04:	200001f0 	.word	0x200001f0
10001e08:	10001e2d 	.word	0x10001e2d

10001e0c <rom_func_lookup>:
10001e0c:	2314      	movs	r3, #20
10001e0e:	b510      	push	{r4, lr}
10001e10:	0001      	movs	r1, r0
10001e12:	8818      	ldrh	r0, [r3, #0]
10001e14:	3304      	adds	r3, #4
10001e16:	881b      	ldrh	r3, [r3, #0]
10001e18:	4798      	blx	r3
10001e1a:	bd10      	pop	{r4, pc}

10001e1c <rom_data_lookup>:
10001e1c:	2316      	movs	r3, #22
10001e1e:	b510      	push	{r4, lr}
10001e20:	0001      	movs	r1, r0
10001e22:	8818      	ldrh	r0, [r3, #0]
10001e24:	3302      	adds	r3, #2
10001e26:	881b      	ldrh	r3, [r3, #0]
10001e28:	4798      	blx	r3
10001e2a:	bd10      	pop	{r4, pc}

10001e2c <rom_funcs_lookup>:
10001e2c:	b5f8      	push	{r3, r4, r5, r6, r7, lr}
10001e2e:	4647      	mov	r7, r8
10001e30:	46ce      	mov	lr, r9
10001e32:	b580      	push	{r7, lr}
10001e34:	1e0f      	subs	r7, r1, #0
10001e36:	d019      	beq.n	10001e6c <rom_funcs_lookup+0x40>
10001e38:	2314      	movs	r3, #20
10001e3a:	4699      	mov	r9, r3
10001e3c:	3304      	adds	r3, #4
10001e3e:	0004      	movs	r4, r0
10001e40:	2500      	movs	r5, #0
10001e42:	2601      	movs	r6, #1
10001e44:	4698      	mov	r8, r3
10001e46:	464b      	mov	r3, r9
10001e48:	8818      	ldrh	r0, [r3, #0]
10001e4a:	4643      	mov	r3, r8
10001e4c:	6821      	ldr	r1, [r4, #0]
10001e4e:	881b      	ldrh	r3, [r3, #0]
10001e50:	4798      	blx	r3
10001e52:	c401      	stmia	r4!, {r0}
10001e54:	1e43      	subs	r3, r0, #1
10001e56:	4198      	sbcs	r0, r3
10001e58:	3501      	adds	r5, #1
10001e5a:	4240      	negs	r0, r0
10001e5c:	4006      	ands	r6, r0
10001e5e:	42af      	cmp	r7, r5
10001e60:	d1f1      	bne.n	10001e46 <rom_funcs_lookup+0x1a>
10001e62:	0030      	movs	r0, r6
10001e64:	bcc0      	pop	{r6, r7}
10001e66:	46b9      	mov	r9, r7
10001e68:	46b0      	mov	r8, r6
10001e6a:	bdf8      	pop	{r3, r4, r5, r6, r7, pc}
10001e6c:	2601      	movs	r6, #1
10001e6e:	e7f8      	b.n	10001e62 <rom_funcs_lookup+0x36>

10001e70 <__wrap___aeabi_uidiv>:
10001e70:	4a11      	ldr	r2, [pc, #68]	; (10001eb8 <divmod_u32u32_savestate+0x18>)
10001e72:	6f93      	ldr	r3, [r2, #120]	; 0x78
10001e74:	089b      	lsrs	r3, r3, #2
10001e76:	d213      	bcs.n	10001ea0 <divmod_u32u32_savestate>

10001e78 <divmod_u32u32_unsafe>:
10001e78:	6610      	str	r0, [r2, #96]	; 0x60
10001e7a:	6651      	str	r1, [r2, #100]	; 0x64
10001e7c:	2900      	cmp	r1, #0
10001e7e:	d005      	beq.n	10001e8c <divmod_u32u32_unsafe+0x14>
10001e80:	e7ff      	b.n	10001e82 <divmod_u32u32_unsafe+0xa>
10001e82:	e7ff      	b.n	10001e84 <divmod_u32u32_unsafe+0xc>
10001e84:	e7ff      	b.n	10001e86 <divmod_u32u32_unsafe+0xe>
10001e86:	6f51      	ldr	r1, [r2, #116]	; 0x74
10001e88:	6f10      	ldr	r0, [r2, #112]	; 0x70
10001e8a:	4770      	bx	lr
10001e8c:	b504      	push	{r2, lr}
10001e8e:	2800      	cmp	r0, #0
10001e90:	d001      	beq.n	10001e96 <divmod_u32u32_unsafe+0x1e>
10001e92:	2000      	movs	r0, #0
10001e94:	43c0      	mvns	r0, r0
10001e96:	f000 fe6f 	bl	10002b78 <____aeabi_idiv0_veneer>
10001e9a:	2100      	movs	r1, #0
10001e9c:	bd04      	pop	{r2, pc}
10001e9e:	46c0      	nop			; (mov r8, r8)

10001ea0 <divmod_u32u32_savestate>:
10001ea0:	b5f0      	push	{r4, r5, r6, r7, lr}
10001ea2:	6e14      	ldr	r4, [r2, #96]	; 0x60
10001ea4:	6e55      	ldr	r5, [r2, #100]	; 0x64
10001ea6:	6f57      	ldr	r7, [r2, #116]	; 0x74
10001ea8:	6f16      	ldr	r6, [r2, #112]	; 0x70
10001eaa:	f7ff ffe5 	bl	10001e78 <divmod_u32u32_unsafe>
10001eae:	6614      	str	r4, [r2, #96]	; 0x60
10001eb0:	6655      	str	r5, [r2, #100]	; 0x64
10001eb2:	6757      	str	r7, [r2, #116]	; 0x74
10001eb4:	6716      	str	r6, [r2, #112]	; 0x70
10001eb6:	bdf0      	pop	{r4, r5, r6, r7, pc}
10001eb8:	d0000000 	.word	0xd0000000

10001ebc <__wrap___aeabi_ldivmod>:
10001ebc:	4694      	mov	ip, r2
10001ebe:	4a4e      	ldr	r2, [pc, #312]	; (10001ff8 <udiv0+0x1a>)
10001ec0:	6f92      	ldr	r2, [r2, #120]	; 0x78
10001ec2:	0892      	lsrs	r2, r2, #2
10001ec4:	4662      	mov	r2, ip
10001ec6:	d201      	bcs.n	10001ecc <divmod_s64s64_savestate>
10001ec8:	e030      	b.n	10001f2c <divmod_s64s64_unsafe>
10001eca:	46c0      	nop			; (mov r8, r8)

10001ecc <divmod_s64s64_savestate>:
10001ecc:	b5f0      	push	{r4, r5, r6, r7, lr}
10001ece:	4e4a      	ldr	r6, [pc, #296]	; (10001ff8 <udiv0+0x1a>)
10001ed0:	6fb5      	ldr	r5, [r6, #120]	; 0x78
10001ed2:	086d      	lsrs	r5, r5, #1
10001ed4:	d3fc      	bcc.n	10001ed0 <divmod_s64s64_savestate+0x4>
10001ed6:	6e34      	ldr	r4, [r6, #96]	; 0x60
10001ed8:	6e75      	ldr	r5, [r6, #100]	; 0x64
10001eda:	6f77      	ldr	r7, [r6, #116]	; 0x74
10001edc:	6f36      	ldr	r6, [r6, #112]	; 0x70
10001ede:	f000 f825 	bl	10001f2c <divmod_s64s64_unsafe>
10001ee2:	4694      	mov	ip, r2
10001ee4:	4a44      	ldr	r2, [pc, #272]	; (10001ff8 <udiv0+0x1a>)
10001ee6:	6614      	str	r4, [r2, #96]	; 0x60
10001ee8:	6655      	str	r5, [r2, #100]	; 0x64
10001eea:	6757      	str	r7, [r2, #116]	; 0x74
10001eec:	6716      	str	r6, [r2, #112]	; 0x70
10001eee:	4662      	mov	r2, ip
10001ef0:	bdf0      	pop	{r4, r5, r6, r7, pc}
10001ef2:	46c0      	nop			; (mov r8, r8)

10001ef4 <__wrap___aeabi_uldivmod>:
10001ef4:	4694      	mov	ip, r2
10001ef6:	4a40      	ldr	r2, [pc, #256]	; (10001ff8 <udiv0+0x1a>)
10001ef8:	6f92      	ldr	r2, [r2, #120]	; 0x78
10001efa:	0892      	lsrs	r2, r2, #2
10001efc:	4662      	mov	r2, ip
10001efe:	d201      	bcs.n	10001f04 <divmod_u64u64_savestate>
10001f00:	e058      	b.n	10001fb4 <divmod_u64u64_unsafe>
10001f02:	46c0      	nop			; (mov r8, r8)

10001f04 <divmod_u64u64_savestate>:
10001f04:	b5f0      	push	{r4, r5, r6, r7, lr}
10001f06:	4e3c      	ldr	r6, [pc, #240]	; (10001ff8 <udiv0+0x1a>)
10001f08:	6fb5      	ldr	r5, [r6, #120]	; 0x78
10001f0a:	086d      	lsrs	r5, r5, #1
10001f0c:	d3fc      	bcc.n	10001f08 <divmod_u64u64_savestate+0x4>
10001f0e:	6e34      	ldr	r4, [r6, #96]	; 0x60
10001f10:	6e75      	ldr	r5, [r6, #100]	; 0x64
10001f12:	6f77      	ldr	r7, [r6, #116]	; 0x74
10001f14:	6f36      	ldr	r6, [r6, #112]	; 0x70
10001f16:	f000 f84d 	bl	10001fb4 <divmod_u64u64_unsafe>
10001f1a:	4694      	mov	ip, r2
10001f1c:	4a36      	ldr	r2, [pc, #216]	; (10001ff8 <udiv0+0x1a>)
10001f1e:	6614      	str	r4, [r2, #96]	; 0x60
10001f20:	6655      	str	r5, [r2, #100]	; 0x64
10001f22:	6757      	str	r7, [r2, #116]	; 0x74
10001f24:	6716      	str	r6, [r2, #112]	; 0x70
10001f26:	4662      	mov	r2, ip
10001f28:	bdf0      	pop	{r4, r5, r6, r7, pc}
10001f2a:	46c0      	nop			; (mov r8, r8)

10001f2c <divmod_s64s64_unsafe>:
10001f2c:	2b00      	cmp	r3, #0
10001f2e:	db24      	blt.n	10001f7a <l41_1+0x26>
10001f30:	d011      	beq.n	10001f56 <l41_1+0x2>
10001f32:	2900      	cmp	r1, #0
10001f34:	da3e      	bge.n	10001fb4 <divmod_u64u64_unsafe>
10001f36:	b500      	push	{lr}
10001f38:	43c9      	mvns	r1, r1
10001f3a:	4240      	negs	r0, r0
10001f3c:	d100      	bne.n	10001f40 <l39_1>
10001f3e:	3101      	adds	r1, #1

10001f40 <l39_1>:
10001f40:	f000 f838 	bl	10001fb4 <divmod_u64u64_unsafe>
10001f44:	43c9      	mvns	r1, r1
10001f46:	4240      	negs	r0, r0
10001f48:	d100      	bne.n	10001f4c <l40_1>
10001f4a:	3101      	adds	r1, #1

10001f4c <l40_1>:
10001f4c:	43db      	mvns	r3, r3
10001f4e:	4252      	negs	r2, r2
10001f50:	d100      	bne.n	10001f54 <l41_1>
10001f52:	3301      	adds	r3, #1

10001f54 <l41_1>:
10001f54:	bd00      	pop	{pc}
10001f56:	2a00      	cmp	r2, #0
10001f58:	d1eb      	bne.n	10001f32 <divmod_s64s64_unsafe+0x6>
10001f5a:	2800      	cmp	r0, #0
10001f5c:	d101      	bne.n	10001f62 <l41_1+0xe>
10001f5e:	2900      	cmp	r1, #0
10001f60:	d005      	beq.n	10001f6e <l41_1+0x1a>
10001f62:	2000      	movs	r0, #0
10001f64:	0fc9      	lsrs	r1, r1, #31
10001f66:	07c9      	lsls	r1, r1, #31
10001f68:	d101      	bne.n	10001f6e <l41_1+0x1a>
10001f6a:	43c0      	mvns	r0, r0
10001f6c:	0841      	lsrs	r1, r0, #1
10001f6e:	b500      	push	{lr}
10001f70:	f000 fdfa 	bl	10002b68 <____aeabi_ldiv0_veneer>
10001f74:	2200      	movs	r2, #0
10001f76:	2300      	movs	r3, #0
10001f78:	bd00      	pop	{pc}
10001f7a:	b500      	push	{lr}
10001f7c:	2900      	cmp	r1, #0
10001f7e:	db0a      	blt.n	10001f96 <l43_1+0x2>
10001f80:	43db      	mvns	r3, r3
10001f82:	4252      	negs	r2, r2
10001f84:	d100      	bne.n	10001f88 <l42_1>
10001f86:	3301      	adds	r3, #1

10001f88 <l42_1>:
10001f88:	f000 f814 	bl	10001fb4 <divmod_u64u64_unsafe>
10001f8c:	43c9      	mvns	r1, r1
10001f8e:	4240      	negs	r0, r0
10001f90:	d100      	bne.n	10001f94 <l43_1>
10001f92:	3101      	adds	r1, #1

10001f94 <l43_1>:
10001f94:	bd00      	pop	{pc}
10001f96:	43c9      	mvns	r1, r1
10001f98:	4240      	negs	r0, r0
10001f9a:	d100      	bne.n	10001f9e <l44_1>
10001f9c:	3101      	adds	r1, #1

10001f9e <l44_1>:
10001f9e:	43db      	mvns	r3, r3
10001fa0:	4252      	negs	r2, r2
10001fa2:	d100      	bne.n	10001fa6 <l45_1>
10001fa4:	3301      	adds	r3, #1

10001fa6 <l45_1>:
10001fa6:	f000 f805 	bl	10001fb4 <divmod_u64u64_unsafe>
10001faa:	43db      	mvns	r3, r3
10001fac:	4252      	negs	r2, r2
10001fae:	d100      	bne.n	10001fb2 <l46_1>
10001fb0:	3301      	adds	r3, #1

10001fb2 <l46_1>:
10001fb2:	bd00      	pop	{pc}

10001fb4 <divmod_u64u64_unsafe>:
10001fb4:	2900      	cmp	r1, #0
10001fb6:	d123      	bne.n	10002000 <y64>
10001fb8:	2b00      	cmp	r3, #0
10001fba:	d118      	bne.n	10001fee <udiv0+0x10>
10001fbc:	2a00      	cmp	r2, #0
10001fbe:	d00c      	beq.n	10001fda <divmod_u64u64_unsafe+0x26>
10001fc0:	46bc      	mov	ip, r7
10001fc2:	4f0d      	ldr	r7, [pc, #52]	; (10001ff8 <udiv0+0x1a>)
10001fc4:	6638      	str	r0, [r7, #96]	; 0x60
10001fc6:	667a      	str	r2, [r7, #100]	; 0x64
10001fc8:	2100      	movs	r1, #0
10001fca:	2300      	movs	r3, #0
10001fcc:	e7ff      	b.n	10001fce <divmod_u64u64_unsafe+0x1a>
10001fce:	e7ff      	b.n	10001fd0 <divmod_u64u64_unsafe+0x1c>
10001fd0:	e7ff      	b.n	10001fd2 <divmod_u64u64_unsafe+0x1e>
10001fd2:	6f7a      	ldr	r2, [r7, #116]	; 0x74
10001fd4:	6f38      	ldr	r0, [r7, #112]	; 0x70
10001fd6:	4667      	mov	r7, ip
10001fd8:	4770      	bx	lr
10001fda:	2800      	cmp	r0, #0
10001fdc:	d001      	beq.n	10001fe2 <udiv0+0x4>

10001fde <udiv0>:
10001fde:	4807      	ldr	r0, [pc, #28]	; (10001ffc <udiv0+0x1e>)
10001fe0:	0001      	movs	r1, r0
10001fe2:	b500      	push	{lr}
10001fe4:	f000 fdc0 	bl	10002b68 <____aeabi_ldiv0_veneer>
10001fe8:	2200      	movs	r2, #0
10001fea:	2300      	movs	r3, #0
10001fec:	bd00      	pop	{pc}
10001fee:	0002      	movs	r2, r0
10001ff0:	000b      	movs	r3, r1
10001ff2:	2000      	movs	r0, #0
10001ff4:	2100      	movs	r1, #0
10001ff6:	4770      	bx	lr
10001ff8:	d0000000 	.word	0xd0000000
10001ffc:	ffffffff 	.word	0xffffffff

10002000 <y64>:
10002000:	2b00      	cmp	r3, #0
10002002:	d000      	beq.n	10002006 <y64+0x6>
10002004:	e0bf      	b.n	10002186 <y64_x48>
10002006:	0c13      	lsrs	r3, r2, #16
10002008:	d128      	bne.n	1000205c <y64_x32>
1000200a:	2a00      	cmp	r2, #0
1000200c:	d0e7      	beq.n	10001fde <udiv0>
1000200e:	b480      	push	{r7}
10002010:	4f11      	ldr	r7, [pc, #68]	; (10002058 <y64+0x58>)
10002012:	6639      	str	r1, [r7, #96]	; 0x60
10002014:	667a      	str	r2, [r7, #100]	; 0x64
10002016:	e7ff      	b.n	10002018 <y64+0x18>
10002018:	e7ff      	b.n	1000201a <y64+0x1a>
1000201a:	b430      	push	{r4, r5}
1000201c:	0c04      	lsrs	r4, r0, #16
1000201e:	6f7b      	ldr	r3, [r7, #116]	; 0x74
10002020:	6f39      	ldr	r1, [r7, #112]	; 0x70
10002022:	041b      	lsls	r3, r3, #16
10002024:	4323      	orrs	r3, r4
10002026:	663b      	str	r3, [r7, #96]	; 0x60
10002028:	667a      	str	r2, [r7, #100]	; 0x64
1000202a:	e7ff      	b.n	1000202c <y64+0x2c>
1000202c:	e7ff      	b.n	1000202e <y64+0x2e>
1000202e:	e7ff      	b.n	10002030 <y64+0x30>
10002030:	46c0      	nop			; (mov r8, r8)
10002032:	b284      	uxth	r4, r0
10002034:	6f7b      	ldr	r3, [r7, #116]	; 0x74
10002036:	6f3d      	ldr	r5, [r7, #112]	; 0x70
10002038:	041b      	lsls	r3, r3, #16
1000203a:	4323      	orrs	r3, r4
1000203c:	663b      	str	r3, [r7, #96]	; 0x60
1000203e:	667a      	str	r2, [r7, #100]	; 0x64
10002040:	e7ff      	b.n	10002042 <y64+0x42>
10002042:	e7ff      	b.n	10002044 <y64+0x44>
10002044:	46c0      	nop			; (mov r8, r8)
10002046:	2300      	movs	r3, #0
10002048:	042c      	lsls	r4, r5, #16
1000204a:	0c2d      	lsrs	r5, r5, #16
1000204c:	6f7a      	ldr	r2, [r7, #116]	; 0x74
1000204e:	6f38      	ldr	r0, [r7, #112]	; 0x70
10002050:	1900      	adds	r0, r0, r4
10002052:	4169      	adcs	r1, r5
10002054:	bcb0      	pop	{r4, r5, r7}
10002056:	4770      	bx	lr
10002058:	d0000000 	.word	0xd0000000

1000205c <y64_x32>:
1000205c:	b5f0      	push	{r4, r5, r6, r7, lr}
1000205e:	4694      	mov	ip, r2
10002060:	2500      	movs	r5, #0
10002062:	0e14      	lsrs	r4, r2, #24
10002064:	d101      	bne.n	1000206a <y64_x32+0xe>
10002066:	0212      	lsls	r2, r2, #8
10002068:	3508      	adds	r5, #8
1000206a:	0f14      	lsrs	r4, r2, #28
1000206c:	d101      	bne.n	10002072 <y64_x32+0x16>
1000206e:	0112      	lsls	r2, r2, #4
10002070:	3504      	adds	r5, #4
10002072:	0f94      	lsrs	r4, r2, #30
10002074:	d101      	bne.n	1000207a <y64_x32+0x1e>
10002076:	0092      	lsls	r2, r2, #2
10002078:	3502      	adds	r5, #2
1000207a:	0fd4      	lsrs	r4, r2, #31
1000207c:	d101      	bne.n	10002082 <y64_x32+0x26>
1000207e:	0052      	lsls	r2, r2, #1
10002080:	3501      	adds	r5, #1
10002082:	0bd4      	lsrs	r4, r2, #15
10002084:	3401      	adds	r4, #1
10002086:	4f25      	ldr	r7, [pc, #148]	; (1000211c <y64_x32+0xc0>)
10002088:	667c      	str	r4, [r7, #100]	; 0x64
1000208a:	4c25      	ldr	r4, [pc, #148]	; (10002120 <y64_x32+0xc4>)
1000208c:	663c      	str	r4, [r7, #96]	; 0x60
1000208e:	0c0e      	lsrs	r6, r1, #16
10002090:	b293      	uxth	r3, r2
10002092:	e7ff      	b.n	10002094 <y64_x32+0x38>
10002094:	e7ff      	b.n	10002096 <y64_x32+0x3a>
10002096:	e7ff      	b.n	10002098 <y64_x32+0x3c>
10002098:	6f3c      	ldr	r4, [r7, #112]	; 0x70
1000209a:	4366      	muls	r6, r4
1000209c:	0c36      	lsrs	r6, r6, #16
1000209e:	0377      	lsls	r7, r6, #13
100020a0:	46be      	mov	lr, r7
100020a2:	4373      	muls	r3, r6
100020a4:	0bdf      	lsrs	r7, r3, #15
100020a6:	045b      	lsls	r3, r3, #17
100020a8:	1ac0      	subs	r0, r0, r3
100020aa:	41b9      	sbcs	r1, r7
100020ac:	0c13      	lsrs	r3, r2, #16
100020ae:	4373      	muls	r3, r6
100020b0:	18db      	adds	r3, r3, r3
100020b2:	1ac9      	subs	r1, r1, r3
100020b4:	08ce      	lsrs	r6, r1, #3
100020b6:	4366      	muls	r6, r4
100020b8:	0c36      	lsrs	r6, r6, #16
100020ba:	44b6      	add	lr, r6
100020bc:	b293      	uxth	r3, r2
100020be:	4373      	muls	r3, r6
100020c0:	0f1f      	lsrs	r7, r3, #28
100020c2:	011b      	lsls	r3, r3, #4
100020c4:	1ac0      	subs	r0, r0, r3
100020c6:	41b9      	sbcs	r1, r7
100020c8:	0c13      	lsrs	r3, r2, #16
100020ca:	4373      	muls	r3, r6
100020cc:	0b1f      	lsrs	r7, r3, #12
100020ce:	051b      	lsls	r3, r3, #20
100020d0:	1ac0      	subs	r0, r0, r3
100020d2:	41b9      	sbcs	r1, r7
100020d4:	0d86      	lsrs	r6, r0, #22
100020d6:	028f      	lsls	r7, r1, #10
100020d8:	433e      	orrs	r6, r7
100020da:	4366      	muls	r6, r4
100020dc:	0c36      	lsrs	r6, r6, #16
100020de:	2d09      	cmp	r5, #9
100020e0:	db24      	blt.n	1000212c <last0>
100020e2:	0a52      	lsrs	r2, r2, #9
100020e4:	4372      	muls	r2, r6
100020e6:	1a80      	subs	r0, r0, r2
100020e8:	0377      	lsls	r7, r6, #13
100020ea:	0a46      	lsrs	r6, r0, #9
100020ec:	4366      	muls	r6, r4
100020ee:	0c36      	lsrs	r6, r6, #16
100020f0:	2316      	movs	r3, #22
100020f2:	1b5b      	subs	r3, r3, r5
100020f4:	40de      	lsrs	r6, r3
100020f6:	40df      	lsrs	r7, r3
100020f8:	19bf      	adds	r7, r7, r6
100020fa:	4664      	mov	r4, ip
100020fc:	4366      	muls	r6, r4
100020fe:	1b82      	subs	r2, r0, r6
10002100:	4670      	mov	r0, lr
10002102:	3504      	adds	r5, #4
10002104:	3306      	adds	r3, #6
10002106:	0001      	movs	r1, r0
10002108:	40d9      	lsrs	r1, r3
1000210a:	40a8      	lsls	r0, r5
1000210c:	19c0      	adds	r0, r0, r7
1000210e:	d300      	bcc.n	10002112 <y64_x32+0xb6>
10002110:	3101      	adds	r1, #1
10002112:	42a2      	cmp	r2, r4
10002114:	d206      	bcs.n	10002124 <y64_x32+0xc8>
10002116:	2300      	movs	r3, #0
10002118:	bdf0      	pop	{r4, r5, r6, r7, pc}
1000211a:	0000      	.short	0x0000
1000211c:	d0000000 	.word	0xd0000000
10002120:	ffffffff 	.word	0xffffffff
10002124:	1b12      	subs	r2, r2, r4
10002126:	3001      	adds	r0, #1
10002128:	d3f3      	bcc.n	10002112 <y64_x32+0xb6>
1000212a:	e7f1      	b.n	10002110 <y64_x32+0xb4>

1000212c <last0>:
1000212c:	2709      	movs	r7, #9
1000212e:	1b7f      	subs	r7, r7, r5
10002130:	40fe      	lsrs	r6, r7
10002132:	4664      	mov	r4, ip
10002134:	b2a2      	uxth	r2, r4
10002136:	4372      	muls	r2, r6
10002138:	1a80      	subs	r0, r0, r2
1000213a:	d200      	bcs.n	1000213e <last0+0x12>
1000213c:	3901      	subs	r1, #1
1000213e:	0c22      	lsrs	r2, r4, #16
10002140:	4372      	muls	r2, r6
10002142:	0c13      	lsrs	r3, r2, #16
10002144:	0412      	lsls	r2, r2, #16
10002146:	1a82      	subs	r2, r0, r2
10002148:	4199      	sbcs	r1, r3
1000214a:	000b      	movs	r3, r1
1000214c:	4670      	mov	r0, lr
1000214e:	3504      	adds	r5, #4
10002150:	3713      	adds	r7, #19
10002152:	0001      	movs	r1, r0
10002154:	40f9      	lsrs	r1, r7
10002156:	40a8      	lsls	r0, r5
10002158:	1980      	adds	r0, r0, r6
1000215a:	d300      	bcc.n	1000215e <last0+0x32>
1000215c:	3101      	adds	r1, #1
1000215e:	2b00      	cmp	r3, #0
10002160:	d102      	bne.n	10002168 <last0+0x3c>
10002162:	42a2      	cmp	r2, r4
10002164:	d20a      	bcs.n	1000217c <last0+0x50>
10002166:	bdf0      	pop	{r4, r5, r6, r7, pc}
10002168:	3001      	adds	r0, #1
1000216a:	d300      	bcc.n	1000216e <last0+0x42>
1000216c:	3101      	adds	r1, #1
1000216e:	1b12      	subs	r2, r2, r4
10002170:	d2fa      	bcs.n	10002168 <last0+0x3c>
10002172:	3b01      	subs	r3, #1
10002174:	d1f8      	bne.n	10002168 <last0+0x3c>
10002176:	42a2      	cmp	r2, r4
10002178:	d200      	bcs.n	1000217c <last0+0x50>
1000217a:	bdf0      	pop	{r4, r5, r6, r7, pc}
1000217c:	3001      	adds	r0, #1
1000217e:	d300      	bcc.n	10002182 <last0+0x56>
10002180:	3101      	adds	r1, #1
10002182:	1b12      	subs	r2, r2, r4
10002184:	e7f7      	b.n	10002176 <last0+0x4a>

10002186 <y64_x48>:
10002186:	b5f0      	push	{r4, r5, r6, r7, lr}
10002188:	0c1c      	lsrs	r4, r3, #16
1000218a:	d000      	beq.n	1000218e <y64_x48+0x8>
1000218c:	e080      	b.n	10002290 <y64_x64>
1000218e:	b40c      	push	{r2, r3}
10002190:	2500      	movs	r5, #0
10002192:	0a1c      	lsrs	r4, r3, #8
10002194:	d104      	bne.n	100021a0 <y64_x48+0x1a>
10002196:	021b      	lsls	r3, r3, #8
10002198:	0e16      	lsrs	r6, r2, #24
1000219a:	4333      	orrs	r3, r6
1000219c:	0212      	lsls	r2, r2, #8
1000219e:	3508      	adds	r5, #8
100021a0:	0b1c      	lsrs	r4, r3, #12
100021a2:	d104      	bne.n	100021ae <y64_x48+0x28>
100021a4:	011b      	lsls	r3, r3, #4
100021a6:	0f16      	lsrs	r6, r2, #28
100021a8:	4333      	orrs	r3, r6
100021aa:	0112      	lsls	r2, r2, #4
100021ac:	3504      	adds	r5, #4
100021ae:	0b9c      	lsrs	r4, r3, #14
100021b0:	d104      	bne.n	100021bc <y64_x48+0x36>
100021b2:	009b      	lsls	r3, r3, #2
100021b4:	0f96      	lsrs	r6, r2, #30
100021b6:	4333      	orrs	r3, r6
100021b8:	0092      	lsls	r2, r2, #2
100021ba:	3502      	adds	r5, #2
100021bc:	0bdc      	lsrs	r4, r3, #15
100021be:	d102      	bne.n	100021c6 <y64_x48+0x40>
100021c0:	1892      	adds	r2, r2, r2
100021c2:	415b      	adcs	r3, r3
100021c4:	3501      	adds	r5, #1
100021c6:	001c      	movs	r4, r3
100021c8:	1897      	adds	r7, r2, r2
100021ca:	4164      	adcs	r4, r4
100021cc:	3401      	adds	r4, #1
100021ce:	4f46      	ldr	r7, [pc, #280]	; (100022e8 <y64_x64+0x58>)
100021d0:	667c      	str	r4, [r7, #100]	; 0x64
100021d2:	4c46      	ldr	r4, [pc, #280]	; (100022ec <y64_x64+0x5c>)
100021d4:	663c      	str	r4, [r7, #96]	; 0x60
100021d6:	0c0e      	lsrs	r6, r1, #16
100021d8:	e7ff      	b.n	100021da <y64_x48+0x54>
100021da:	e7ff      	b.n	100021dc <y64_x48+0x56>
100021dc:	e7ff      	b.n	100021de <y64_x48+0x58>
100021de:	46c0      	nop			; (mov r8, r8)
100021e0:	6f3c      	ldr	r4, [r7, #112]	; 0x70
100021e2:	4366      	muls	r6, r4
100021e4:	0c36      	lsrs	r6, r6, #16
100021e6:	0377      	lsls	r7, r6, #13
100021e8:	46be      	mov	lr, r7
100021ea:	b297      	uxth	r7, r2
100021ec:	4377      	muls	r7, r6
100021ee:	1bc0      	subs	r0, r0, r7
100021f0:	d200      	bcs.n	100021f4 <y64_x48+0x6e>
100021f2:	3901      	subs	r1, #1
100021f4:	1bc0      	subs	r0, r0, r7
100021f6:	d200      	bcs.n	100021fa <y64_x48+0x74>
100021f8:	3901      	subs	r1, #1
100021fa:	b29f      	uxth	r7, r3
100021fc:	4377      	muls	r7, r6
100021fe:	1bc9      	subs	r1, r1, r7
10002200:	1bc9      	subs	r1, r1, r7
10002202:	0c17      	lsrs	r7, r2, #16
10002204:	4377      	muls	r7, r6
10002206:	047e      	lsls	r6, r7, #17
10002208:	0bff      	lsrs	r7, r7, #15
1000220a:	1b80      	subs	r0, r0, r6
1000220c:	41b9      	sbcs	r1, r7
1000220e:	08ce      	lsrs	r6, r1, #3
10002210:	4366      	muls	r6, r4
10002212:	0c36      	lsrs	r6, r6, #16
10002214:	2d0c      	cmp	r5, #12
10002216:	db33      	blt.n	10002280 <last1>
10002218:	44b6      	add	lr, r6
1000221a:	0b12      	lsrs	r2, r2, #12
1000221c:	051f      	lsls	r7, r3, #20
1000221e:	433a      	orrs	r2, r7
10002220:	0b1b      	lsrs	r3, r3, #12
10002222:	b297      	uxth	r7, r2
10002224:	4377      	muls	r7, r6
10002226:	1bc0      	subs	r0, r0, r7
10002228:	d200      	bcs.n	1000222c <y64_x48+0xa6>
1000222a:	3901      	subs	r1, #1
1000222c:	b29f      	uxth	r7, r3
1000222e:	4377      	muls	r7, r6
10002230:	1bc9      	subs	r1, r1, r7
10002232:	0c17      	lsrs	r7, r2, #16
10002234:	4377      	muls	r7, r6
10002236:	043e      	lsls	r6, r7, #16
10002238:	0c3f      	lsrs	r7, r7, #16
1000223a:	1b80      	subs	r0, r0, r6
1000223c:	41b9      	sbcs	r1, r7
1000223e:	0d86      	lsrs	r6, r0, #22
10002240:	028f      	lsls	r7, r1, #10
10002242:	433e      	orrs	r6, r7
10002244:	4366      	muls	r6, r4
10002246:	2729      	movs	r7, #41	; 0x29
10002248:	1b7f      	subs	r7, r7, r5
1000224a:	40fe      	lsrs	r6, r7
1000224c:	3d0c      	subs	r5, #12
1000224e:	4677      	mov	r7, lr
10002250:	40af      	lsls	r7, r5
10002252:	19bf      	adds	r7, r7, r6
10002254:	bc30      	pop	{r4, r5}
10002256:	b2a2      	uxth	r2, r4
10002258:	b2ab      	uxth	r3, r5
1000225a:	4372      	muls	r2, r6
1000225c:	4373      	muls	r3, r6
1000225e:	1a80      	subs	r0, r0, r2
10002260:	4199      	sbcs	r1, r3
10002262:	0c22      	lsrs	r2, r4, #16
10002264:	4372      	muls	r2, r6
10002266:	0c13      	lsrs	r3, r2, #16
10002268:	0412      	lsls	r2, r2, #16
1000226a:	1a80      	subs	r0, r0, r2
1000226c:	4199      	sbcs	r1, r3
1000226e:	0002      	movs	r2, r0
10002270:	000b      	movs	r3, r1
10002272:	3701      	adds	r7, #1
10002274:	1b00      	subs	r0, r0, r4
10002276:	41a9      	sbcs	r1, r5
10002278:	d2f9      	bcs.n	1000226e <y64_x48+0xe8>
1000227a:	1e78      	subs	r0, r7, #1
1000227c:	2100      	movs	r1, #0
1000227e:	bdf0      	pop	{r4, r5, r6, r7, pc}

10002280 <last1>:
10002280:	270c      	movs	r7, #12
10002282:	1b7f      	subs	r7, r7, r5
10002284:	40fe      	lsrs	r6, r7
10002286:	4677      	mov	r7, lr
10002288:	0b7f      	lsrs	r7, r7, #13
1000228a:	40af      	lsls	r7, r5
1000228c:	19ff      	adds	r7, r7, r7
1000228e:	e7e0      	b.n	10002252 <y64_x48+0xcc>

10002290 <y64_x64>:
10002290:	2400      	movs	r4, #0
10002292:	1c5d      	adds	r5, r3, #1
10002294:	d007      	beq.n	100022a6 <y64_x64+0x16>
10002296:	4f14      	ldr	r7, [pc, #80]	; (100022e8 <y64_x64+0x58>)
10002298:	667d      	str	r5, [r7, #100]	; 0x64
1000229a:	6639      	str	r1, [r7, #96]	; 0x60
1000229c:	e7ff      	b.n	1000229e <y64_x64+0xe>
1000229e:	e7ff      	b.n	100022a0 <y64_x64+0x10>
100022a0:	e7ff      	b.n	100022a2 <y64_x64+0x12>
100022a2:	e7ff      	b.n	100022a4 <y64_x64+0x14>
100022a4:	6f3c      	ldr	r4, [r7, #112]	; 0x70
100022a6:	b295      	uxth	r5, r2
100022a8:	b29e      	uxth	r6, r3
100022aa:	4365      	muls	r5, r4
100022ac:	4366      	muls	r6, r4
100022ae:	1b40      	subs	r0, r0, r5
100022b0:	41b1      	sbcs	r1, r6
100022b2:	0c15      	lsrs	r5, r2, #16
100022b4:	0c1e      	lsrs	r6, r3, #16
100022b6:	4365      	muls	r5, r4
100022b8:	4366      	muls	r6, r4
100022ba:	0436      	lsls	r6, r6, #16
100022bc:	0c2f      	lsrs	r7, r5, #16
100022be:	433e      	orrs	r6, r7
100022c0:	042d      	lsls	r5, r5, #16
100022c2:	1b40      	subs	r0, r0, r5
100022c4:	41b1      	sbcs	r1, r6
100022c6:	4299      	cmp	r1, r3
100022c8:	d204      	bcs.n	100022d4 <y64_x64+0x44>
100022ca:	0002      	movs	r2, r0
100022cc:	000b      	movs	r3, r1
100022ce:	0020      	movs	r0, r4
100022d0:	2100      	movs	r1, #0
100022d2:	bdf0      	pop	{r4, r5, r6, r7, pc}
100022d4:	d101      	bne.n	100022da <y64_x64+0x4a>
100022d6:	4290      	cmp	r0, r2
100022d8:	d3f7      	bcc.n	100022ca <y64_x64+0x3a>
100022da:	1a80      	subs	r0, r0, r2
100022dc:	4199      	sbcs	r1, r3
100022de:	3401      	adds	r4, #1
100022e0:	4299      	cmp	r1, r3
100022e2:	d3f2      	bcc.n	100022ca <y64_x64+0x3a>
100022e4:	e7f6      	b.n	100022d4 <y64_x64+0x44>
100022e6:	0000      	.short	0x0000
100022e8:	d0000000 	.word	0xd0000000
100022ec:	ffffffff 	.word	0xffffffff

100022f0 <__aeabi_double_init>:
100022f0:	2313      	movs	r3, #19
100022f2:	b570      	push	{r4, r5, r6, lr}
100022f4:	781d      	ldrb	r5, [r3, #0]
100022f6:	2d01      	cmp	r5, #1
100022f8:	d015      	beq.n	10002326 <__aeabi_double_init+0x36>
100022fa:	dd10      	ble.n	1000231e <__aeabi_double_init+0x2e>
100022fc:	481d      	ldr	r0, [pc, #116]	; (10002374 <__aeabi_double_init+0x84>)
100022fe:	f7ff fd8d 	bl	10001e1c <rom_data_lookup>
10002302:	4c1d      	ldr	r4, [pc, #116]	; (10002378 <__aeabi_double_init+0x88>)
10002304:	0001      	movs	r1, r0
10002306:	2280      	movs	r2, #128	; 0x80
10002308:	0020      	movs	r0, r4
1000230a:	f000 f8f5 	bl	100024f8 <__wrap___aeabi_memcpy>
1000230e:	2d02      	cmp	r5, #2
10002310:	d02d      	beq.n	1000236e <__aeabi_double_init+0x7e>
10002312:	481a      	ldr	r0, [pc, #104]	; (1000237c <__aeabi_double_init+0x8c>)
10002314:	f7ff fd7a 	bl	10001e0c <rom_func_lookup>
10002318:	4b19      	ldr	r3, [pc, #100]	; (10002380 <__aeabi_double_init+0x90>)
1000231a:	6018      	str	r0, [r3, #0]
1000231c:	bd70      	pop	{r4, r5, r6, pc}
1000231e:	4b19      	ldr	r3, [pc, #100]	; (10002384 <__aeabi_double_init+0x94>)
10002320:	4c15      	ldr	r4, [pc, #84]	; (10002378 <__aeabi_double_init+0x88>)
10002322:	64a3      	str	r3, [r4, #72]	; 0x48
10002324:	e7f5      	b.n	10002312 <__aeabi_double_init+0x22>
10002326:	4b17      	ldr	r3, [pc, #92]	; (10002384 <__aeabi_double_init+0x94>)
10002328:	4c13      	ldr	r4, [pc, #76]	; (10002378 <__aeabi_double_init+0x88>)
1000232a:	6023      	str	r3, [r4, #0]
1000232c:	6063      	str	r3, [r4, #4]
1000232e:	60a3      	str	r3, [r4, #8]
10002330:	60e3      	str	r3, [r4, #12]
10002332:	6123      	str	r3, [r4, #16]
10002334:	6163      	str	r3, [r4, #20]
10002336:	61a3      	str	r3, [r4, #24]
10002338:	61e3      	str	r3, [r4, #28]
1000233a:	6223      	str	r3, [r4, #32]
1000233c:	6263      	str	r3, [r4, #36]	; 0x24
1000233e:	62a3      	str	r3, [r4, #40]	; 0x28
10002340:	62e3      	str	r3, [r4, #44]	; 0x2c
10002342:	6323      	str	r3, [r4, #48]	; 0x30
10002344:	6363      	str	r3, [r4, #52]	; 0x34
10002346:	63a3      	str	r3, [r4, #56]	; 0x38
10002348:	63e3      	str	r3, [r4, #60]	; 0x3c
1000234a:	6423      	str	r3, [r4, #64]	; 0x40
1000234c:	6463      	str	r3, [r4, #68]	; 0x44
1000234e:	64a3      	str	r3, [r4, #72]	; 0x48
10002350:	64e3      	str	r3, [r4, #76]	; 0x4c
10002352:	6523      	str	r3, [r4, #80]	; 0x50
10002354:	6563      	str	r3, [r4, #84]	; 0x54
10002356:	65a3      	str	r3, [r4, #88]	; 0x58
10002358:	65e3      	str	r3, [r4, #92]	; 0x5c
1000235a:	6623      	str	r3, [r4, #96]	; 0x60
1000235c:	6663      	str	r3, [r4, #100]	; 0x64
1000235e:	66a3      	str	r3, [r4, #104]	; 0x68
10002360:	66e3      	str	r3, [r4, #108]	; 0x6c
10002362:	6723      	str	r3, [r4, #112]	; 0x70
10002364:	6763      	str	r3, [r4, #116]	; 0x74
10002366:	67a3      	str	r3, [r4, #120]	; 0x78
10002368:	67e3      	str	r3, [r4, #124]	; 0x7c
1000236a:	64a3      	str	r3, [r4, #72]	; 0x48
1000236c:	e7d1      	b.n	10002312 <__aeabi_double_init+0x22>
1000236e:	4b05      	ldr	r3, [pc, #20]	; (10002384 <__aeabi_double_init+0x94>)
10002370:	64a3      	str	r3, [r4, #72]	; 0x48
10002372:	e7ce      	b.n	10002312 <__aeabi_double_init+0x22>
10002374:	00004453 	.word	0x00004453
10002378:	200007a8 	.word	0x200007a8
1000237c:	0000334c 	.word	0x0000334c
10002380:	20000a3c 	.word	0x20000a3c
10002384:	10002389 	.word	0x10002389

10002388 <double_table_shim_on_use_helper>:
10002388:	b507      	push	{r0, r1, r2, lr}
1000238a:	4660      	mov	r0, ip
1000238c:	8801      	ldrh	r1, [r0, #0]
1000238e:	0a0a      	lsrs	r2, r1, #8
10002390:	3002      	adds	r0, #2
10002392:	2adf      	cmp	r2, #223	; 0xdf
10002394:	d1fa      	bne.n	1000238c <double_table_shim_on_use_helper+0x4>
10002396:	b2c9      	uxtb	r1, r1
10002398:	0882      	lsrs	r2, r0, #2
1000239a:	d304      	bcc.n	100023a6 <double_table_shim_on_use_helper+0x1e>
1000239c:	8802      	ldrh	r2, [r0, #0]
1000239e:	8840      	ldrh	r0, [r0, #2]
100023a0:	0400      	lsls	r0, r0, #16
100023a2:	4310      	orrs	r0, r2
100023a4:	e000      	b.n	100023a8 <double_table_shim_on_use_helper+0x20>
100023a6:	6800      	ldr	r0, [r0, #0]
100023a8:	4a01      	ldr	r2, [pc, #4]	; (100023b0 <double_table_shim_on_use_helper+0x28>)
100023aa:	5050      	str	r0, [r2, r1]
100023ac:	9003      	str	r0, [sp, #12]
100023ae:	bd07      	pop	{r0, r1, r2, pc}
100023b0:	200007a8 	.word	0x200007a8

100023b4 <__wrap___aeabi_frsub>:
100023b4:	4048      	eors	r0, r1
100023b6:	4041      	eors	r1, r0
100023b8:	4048      	eors	r0, r1

100023ba <__wrap___aeabi_fsub>:
100023ba:	4b0e      	ldr	r3, [pc, #56]	; (100023f4 <__wrap___aeabi_fmul+0x6>)
100023bc:	685b      	ldr	r3, [r3, #4]
100023be:	4718      	bx	r3

100023c0 <__wrap___aeabi_fadd>:
100023c0:	4b0c      	ldr	r3, [pc, #48]	; (100023f4 <__wrap___aeabi_fmul+0x6>)
100023c2:	681b      	ldr	r3, [r3, #0]
100023c4:	4718      	bx	r3

100023c6 <__wrap___aeabi_fdiv>:
100023c6:	4a0c      	ldr	r2, [pc, #48]	; (100023f8 <__wrap___aeabi_fmul+0xa>)
100023c8:	6f93      	ldr	r3, [r2, #120]	; 0x78
100023ca:	089b      	lsrs	r3, r3, #2
100023cc:	d202      	bcs.n	100023d4 <fdiv_save_state>

100023ce <fdiv_shim_call>:
100023ce:	4b09      	ldr	r3, [pc, #36]	; (100023f4 <__wrap___aeabi_fmul+0x6>)
100023d0:	68db      	ldr	r3, [r3, #12]
100023d2:	4718      	bx	r3

100023d4 <fdiv_save_state>:
100023d4:	b5f0      	push	{r4, r5, r6, r7, lr}
100023d6:	6e14      	ldr	r4, [r2, #96]	; 0x60
100023d8:	6e55      	ldr	r5, [r2, #100]	; 0x64
100023da:	6f57      	ldr	r7, [r2, #116]	; 0x74
100023dc:	6f16      	ldr	r6, [r2, #112]	; 0x70
100023de:	f7ff fff6 	bl	100023ce <fdiv_shim_call>
100023e2:	4a05      	ldr	r2, [pc, #20]	; (100023f8 <__wrap___aeabi_fmul+0xa>)
100023e4:	6614      	str	r4, [r2, #96]	; 0x60
100023e6:	6655      	str	r5, [r2, #100]	; 0x64
100023e8:	6757      	str	r7, [r2, #116]	; 0x74
100023ea:	6716      	str	r6, [r2, #112]	; 0x70
100023ec:	bdf0      	pop	{r4, r5, r6, r7, pc}

100023ee <__wrap___aeabi_fmul>:
100023ee:	4b01      	ldr	r3, [pc, #4]	; (100023f4 <__wrap___aeabi_fmul+0x6>)
100023f0:	689b      	ldr	r3, [r3, #8]
100023f2:	4718      	bx	r3
100023f4:	200008a8 	.word	0x200008a8
100023f8:	d0000000 	.word	0xd0000000

100023fc <__wrap___aeabi_ui2f>:
100023fc:	1a49      	subs	r1, r1, r1
100023fe:	2800      	cmp	r0, #0
10002400:	d108      	bne.n	10002414 <__aeabi_i2f_main>
10002402:	4608      	mov	r0, r1
10002404:	4770      	bx	lr
	...

10002408 <__wrap___aeabi_i2f>:
10002408:	0fc1      	lsrs	r1, r0, #31
1000240a:	07c9      	lsls	r1, r1, #31
1000240c:	d500      	bpl.n	10002410 <__wrap___aeabi_i2f+0x8>
1000240e:	4240      	negs	r0, r0
10002410:	2800      	cmp	r0, #0
10002412:	d017      	beq.n	10002444 <__aeabi_i2f_main+0x30>

10002414 <__aeabi_i2f_main>:
10002414:	46f4      	mov	ip, lr
10002416:	b403      	push	{r0, r1}
10002418:	4b0b      	ldr	r3, [pc, #44]	; (10002448 <__aeabi_i2f_main+0x34>)
1000241a:	681b      	ldr	r3, [r3, #0]
1000241c:	4798      	blx	r3
1000241e:	bc06      	pop	{r1, r2}
10002420:	4081      	lsls	r1, r0
10002422:	389e      	subs	r0, #158	; 0x9e
10002424:	4240      	negs	r0, r0
10002426:	3180      	adds	r1, #128	; 0x80
10002428:	d207      	bcs.n	1000243a <__aeabi_i2f_main+0x26>
1000242a:	060b      	lsls	r3, r1, #24
1000242c:	d007      	beq.n	1000243e <__aeabi_i2f_main+0x2a>
1000242e:	0049      	lsls	r1, r1, #1
10002430:	0a49      	lsrs	r1, r1, #9
10002432:	05c0      	lsls	r0, r0, #23
10002434:	4310      	orrs	r0, r2
10002436:	4308      	orrs	r0, r1
10002438:	4760      	bx	ip
1000243a:	3001      	adds	r0, #1
1000243c:	e7f8      	b.n	10002430 <__aeabi_i2f_main+0x1c>
1000243e:	0a49      	lsrs	r1, r1, #9
10002440:	0289      	lsls	r1, r1, #10
10002442:	e7f5      	b.n	10002430 <__aeabi_i2f_main+0x1c>
10002444:	4770      	bx	lr
10002446:	0000      	.short	0x0000
10002448:	20000a3c 	.word	0x20000a3c

1000244c <__wrap___aeabi_f2uiz>:
1000244c:	4b01      	ldr	r3, [pc, #4]	; (10002454 <__wrap___aeabi_f2uiz+0x8>)
1000244e:	6a5b      	ldr	r3, [r3, #36]	; 0x24
10002450:	4718      	bx	r3
10002452:	0000      	.short	0x0000
10002454:	200008a8 	.word	0x200008a8

10002458 <__aeabi_float_init>:
10002458:	2313      	movs	r3, #19
1000245a:	b510      	push	{r4, lr}
1000245c:	4812      	ldr	r0, [pc, #72]	; (100024a8 <__aeabi_float_init+0x50>)
1000245e:	781c      	ldrb	r4, [r3, #0]
10002460:	f7ff fcdc 	bl	10001e1c <rom_data_lookup>
10002464:	0001      	movs	r1, r0
10002466:	2c01      	cmp	r4, #1
10002468:	d00a      	beq.n	10002480 <__aeabi_float_init+0x28>
1000246a:	dd03      	ble.n	10002474 <__aeabi_float_init+0x1c>
1000246c:	2280      	movs	r2, #128	; 0x80
1000246e:	480f      	ldr	r0, [pc, #60]	; (100024ac <__aeabi_float_init+0x54>)
10002470:	f000 f842 	bl	100024f8 <__wrap___aeabi_memcpy>
10002474:	480e      	ldr	r0, [pc, #56]	; (100024b0 <__aeabi_float_init+0x58>)
10002476:	f7ff fcc9 	bl	10001e0c <rom_func_lookup>
1000247a:	4b0e      	ldr	r3, [pc, #56]	; (100024b4 <__aeabi_float_init+0x5c>)
1000247c:	6018      	str	r0, [r3, #0]
1000247e:	bd10      	pop	{r4, pc}
10002480:	4c0a      	ldr	r4, [pc, #40]	; (100024ac <__aeabi_float_init+0x54>)
10002482:	2254      	movs	r2, #84	; 0x54
10002484:	0020      	movs	r0, r4
10002486:	f000 f837 	bl	100024f8 <__wrap___aeabi_memcpy>
1000248a:	4b0b      	ldr	r3, [pc, #44]	; (100024b8 <__aeabi_float_init+0x60>)
1000248c:	6563      	str	r3, [r4, #84]	; 0x54
1000248e:	65a3      	str	r3, [r4, #88]	; 0x58
10002490:	65e3      	str	r3, [r4, #92]	; 0x5c
10002492:	6623      	str	r3, [r4, #96]	; 0x60
10002494:	6663      	str	r3, [r4, #100]	; 0x64
10002496:	66a3      	str	r3, [r4, #104]	; 0x68
10002498:	66e3      	str	r3, [r4, #108]	; 0x6c
1000249a:	6723      	str	r3, [r4, #112]	; 0x70
1000249c:	6763      	str	r3, [r4, #116]	; 0x74
1000249e:	67a3      	str	r3, [r4, #120]	; 0x78
100024a0:	67e3      	str	r3, [r4, #124]	; 0x7c
100024a2:	6223      	str	r3, [r4, #32]
100024a4:	61e3      	str	r3, [r4, #28]
100024a6:	e7e5      	b.n	10002474 <__aeabi_float_init+0x1c>
100024a8:	00004653 	.word	0x00004653
100024ac:	200008a8 	.word	0x200008a8
100024b0:	0000334c 	.word	0x0000334c
100024b4:	20000a3c 	.word	0x20000a3c
100024b8:	100024bd 	.word	0x100024bd

100024bc <float_table_shim_on_use_helper>:
100024bc:	b507      	push	{r0, r1, r2, lr}
100024be:	4660      	mov	r0, ip
100024c0:	8801      	ldrh	r1, [r0, #0]
100024c2:	0a0a      	lsrs	r2, r1, #8
100024c4:	3002      	adds	r0, #2
100024c6:	2adf      	cmp	r2, #223	; 0xdf
100024c8:	d1fa      	bne.n	100024c0 <float_table_shim_on_use_helper+0x4>
100024ca:	b2c9      	uxtb	r1, r1
100024cc:	0882      	lsrs	r2, r0, #2
100024ce:	d304      	bcc.n	100024da <float_table_shim_on_use_helper+0x1e>
100024d0:	8802      	ldrh	r2, [r0, #0]
100024d2:	8840      	ldrh	r0, [r0, #2]
100024d4:	0400      	lsls	r0, r0, #16
100024d6:	4310      	orrs	r0, r2
100024d8:	e000      	b.n	100024dc <float_table_shim_on_use_helper+0x20>
100024da:	6800      	ldr	r0, [r0, #0]
100024dc:	4a01      	ldr	r2, [pc, #4]	; (100024e4 <float_table_shim_on_use_helper+0x28>)
100024de:	5050      	str	r0, [r2, r1]
100024e0:	9003      	str	r0, [sp, #12]
100024e2:	bd07      	pop	{r0, r1, r2, pc}
100024e4:	200008a8 	.word	0x200008a8

100024e8 <__aeabi_mem_init>:
100024e8:	4801      	ldr	r0, [pc, #4]	; (100024f0 <__aeabi_mem_init+0x8>)
100024ea:	2104      	movs	r1, #4
100024ec:	4b01      	ldr	r3, [pc, #4]	; (100024f4 <__aeabi_mem_init+0xc>)
100024ee:	4718      	bx	r3
100024f0:	20000200 	.word	0x20000200
100024f4:	10001e2d 	.word	0x10001e2d

100024f8 <__wrap___aeabi_memcpy>:
100024f8:	4b01      	ldr	r3, [pc, #4]	; (10002500 <__wrap___aeabi_memcpy+0x8>)
100024fa:	685b      	ldr	r3, [r3, #4]
100024fc:	4718      	bx	r3
100024fe:	0000      	.short	0x0000
10002500:	20000200 	.word	0x20000200

10002504 <stdio_out_chars_crlf>:
10002504:	b5f0      	push	{r4, r5, r6, r7, lr}
10002506:	46c6      	mov	lr, r8
10002508:	b500      	push	{lr}
1000250a:	7c43      	ldrb	r3, [r0, #17]
1000250c:	0007      	movs	r7, r0
1000250e:	000d      	movs	r5, r1
10002510:	0016      	movs	r6, r2
10002512:	2b00      	cmp	r3, #0
10002514:	d038      	beq.n	10002588 <stdio_out_chars_crlf+0x84>
10002516:	2a00      	cmp	r2, #0
10002518:	dd2e      	ble.n	10002578 <stdio_out_chars_crlf+0x74>
1000251a:	2100      	movs	r1, #0
1000251c:	1e6a      	subs	r2, r5, #1
1000251e:	4690      	mov	r8, r2
10002520:	5c6a      	ldrb	r2, [r5, r1]
10002522:	7c03      	ldrb	r3, [r0, #16]
10002524:	1c4c      	adds	r4, r1, #1
10002526:	2000      	movs	r0, #0
10002528:	2a0a      	cmp	r2, #10
1000252a:	d00c      	beq.n	10002546 <stdio_out_chars_crlf+0x42>
1000252c:	42a6      	cmp	r6, r4
1000252e:	d016      	beq.n	1000255e <stdio_out_chars_crlf+0x5a>
10002530:	4643      	mov	r3, r8
10002532:	5d1b      	ldrb	r3, [r3, r4]
10002534:	0021      	movs	r1, r4
10002536:	3b0d      	subs	r3, #13
10002538:	425a      	negs	r2, r3
1000253a:	4153      	adcs	r3, r2
1000253c:	5c6a      	ldrb	r2, [r5, r1]
1000253e:	b2db      	uxtb	r3, r3
10002540:	1c4c      	adds	r4, r1, #1
10002542:	2a0a      	cmp	r2, #10
10002544:	d1f2      	bne.n	1000252c <stdio_out_chars_crlf+0x28>
10002546:	2b00      	cmp	r3, #0
10002548:	d1f0      	bne.n	1000252c <stdio_out_chars_crlf+0x28>
1000254a:	4281      	cmp	r1, r0
1000254c:	dc17      	bgt.n	1000257e <stdio_out_chars_crlf+0x7a>
1000254e:	2102      	movs	r1, #2
10002550:	4810      	ldr	r0, [pc, #64]	; (10002594 <stdio_out_chars_crlf+0x90>)
10002552:	683b      	ldr	r3, [r7, #0]
10002554:	4798      	blx	r3
10002556:	42a6      	cmp	r6, r4
10002558:	d007      	beq.n	1000256a <stdio_out_chars_crlf+0x66>
1000255a:	0020      	movs	r0, r4
1000255c:	e7e8      	b.n	10002530 <stdio_out_chars_crlf+0x2c>
1000255e:	4286      	cmp	r6, r0
10002560:	dd03      	ble.n	1000256a <stdio_out_chars_crlf+0x66>
10002562:	1a31      	subs	r1, r6, r0
10002564:	683b      	ldr	r3, [r7, #0]
10002566:	1828      	adds	r0, r5, r0
10002568:	4798      	blx	r3
1000256a:	19ad      	adds	r5, r5, r6
1000256c:	3d01      	subs	r5, #1
1000256e:	782b      	ldrb	r3, [r5, #0]
10002570:	3b0d      	subs	r3, #13
10002572:	425a      	negs	r2, r3
10002574:	4153      	adcs	r3, r2
10002576:	743b      	strb	r3, [r7, #16]
10002578:	bc80      	pop	{r7}
1000257a:	46b8      	mov	r8, r7
1000257c:	bdf0      	pop	{r4, r5, r6, r7, pc}
1000257e:	1a09      	subs	r1, r1, r0
10002580:	683b      	ldr	r3, [r7, #0]
10002582:	1828      	adds	r0, r5, r0
10002584:	4798      	blx	r3
10002586:	e7e2      	b.n	1000254e <stdio_out_chars_crlf+0x4a>
10002588:	6803      	ldr	r3, [r0, #0]
1000258a:	0011      	movs	r1, r2
1000258c:	0028      	movs	r0, r5
1000258e:	4798      	blx	r3
10002590:	e7f2      	b.n	10002578 <stdio_out_chars_crlf+0x74>
10002592:	46c0      	nop			; (mov r8, r8)
10002594:	10002cac 	.word	0x10002cac

10002598 <__wrap_putchar>:
10002598:	b5f0      	push	{r4, r5, r6, r7, lr}
1000259a:	46ce      	mov	lr, r9
1000259c:	4647      	mov	r7, r8
1000259e:	b580      	push	{r7, lr}
100025a0:	b083      	sub	sp, #12
100025a2:	466b      	mov	r3, sp
100025a4:	1cde      	adds	r6, r3, #3
100025a6:	23d0      	movs	r3, #208	; 0xd0
100025a8:	7030      	strb	r0, [r6, #0]
100025aa:	061b      	lsls	r3, r3, #24
100025ac:	681c      	ldr	r4, [r3, #0]
100025ae:	4b20      	ldr	r3, [pc, #128]	; (10002630 <__wrap_putchar+0x98>)
100025b0:	4680      	mov	r8, r0
100025b2:	a901      	add	r1, sp, #4
100025b4:	0018      	movs	r0, r3
100025b6:	4699      	mov	r9, r3
100025b8:	f000 fae6 	bl	10002b88 <__mutex_try_enter_veneer>
100025bc:	1e07      	subs	r7, r0, #0
100025be:	d020      	beq.n	10002602 <__wrap_putchar+0x6a>
100025c0:	4b1c      	ldr	r3, [pc, #112]	; (10002634 <__wrap_putchar+0x9c>)
100025c2:	681c      	ldr	r4, [r3, #0]
100025c4:	2c00      	cmp	r4, #0
100025c6:	d029      	beq.n	1000261c <__wrap_putchar+0x84>
100025c8:	4d1b      	ldr	r5, [pc, #108]	; (10002638 <__wrap_putchar+0xa0>)
100025ca:	e002      	b.n	100025d2 <__wrap_putchar+0x3a>
100025cc:	68e4      	ldr	r4, [r4, #12]
100025ce:	2c00      	cmp	r4, #0
100025d0:	d00f      	beq.n	100025f2 <__wrap_putchar+0x5a>
100025d2:	6823      	ldr	r3, [r4, #0]
100025d4:	2b00      	cmp	r3, #0
100025d6:	d0f9      	beq.n	100025cc <__wrap_putchar+0x34>
100025d8:	682b      	ldr	r3, [r5, #0]
100025da:	2b00      	cmp	r3, #0
100025dc:	d001      	beq.n	100025e2 <__wrap_putchar+0x4a>
100025de:	42a3      	cmp	r3, r4
100025e0:	d1f4      	bne.n	100025cc <__wrap_putchar+0x34>
100025e2:	0020      	movs	r0, r4
100025e4:	2201      	movs	r2, #1
100025e6:	0031      	movs	r1, r6
100025e8:	f7ff ff8c 	bl	10002504 <stdio_out_chars_crlf>
100025ec:	68e4      	ldr	r4, [r4, #12]
100025ee:	2c00      	cmp	r4, #0
100025f0:	d1ef      	bne.n	100025d2 <__wrap_putchar+0x3a>
100025f2:	2f00      	cmp	r7, #0
100025f4:	d112      	bne.n	1000261c <__wrap_putchar+0x84>
100025f6:	4640      	mov	r0, r8
100025f8:	b003      	add	sp, #12
100025fa:	bcc0      	pop	{r6, r7}
100025fc:	46b9      	mov	r9, r7
100025fe:	46b0      	mov	r8, r6
10002600:	bdf0      	pop	{r4, r5, r6, r7, pc}
10002602:	9b01      	ldr	r3, [sp, #4]
10002604:	b264      	sxtb	r4, r4
10002606:	429c      	cmp	r4, r3
10002608:	d00c      	beq.n	10002624 <__wrap_putchar+0x8c>
1000260a:	4648      	mov	r0, r9
1000260c:	f000 fac4 	bl	10002b98 <__mutex_enter_blocking_veneer>
10002610:	4b08      	ldr	r3, [pc, #32]	; (10002634 <__wrap_putchar+0x9c>)
10002612:	681c      	ldr	r4, [r3, #0]
10002614:	2c00      	cmp	r4, #0
10002616:	d001      	beq.n	1000261c <__wrap_putchar+0x84>
10002618:	2701      	movs	r7, #1
1000261a:	e7d5      	b.n	100025c8 <__wrap_putchar+0x30>
1000261c:	4648      	mov	r0, r9
1000261e:	f000 fa9b 	bl	10002b58 <__mutex_exit_veneer>
10002622:	e7e8      	b.n	100025f6 <__wrap_putchar+0x5e>
10002624:	4b03      	ldr	r3, [pc, #12]	; (10002634 <__wrap_putchar+0x9c>)
10002626:	681c      	ldr	r4, [r3, #0]
10002628:	2c00      	cmp	r4, #0
1000262a:	d1cd      	bne.n	100025c8 <__wrap_putchar+0x30>
1000262c:	e7e3      	b.n	100025f6 <__wrap_putchar+0x5e>
1000262e:	46c0      	nop			; (mov r8, r8)
10002630:	20000654 	.word	0x20000654
10002634:	20000a08 	.word	0x20000a08
10002638:	20000a0c 	.word	0x20000a0c

1000263c <__wrap_puts>:
1000263c:	b5f0      	push	{r4, r5, r6, r7, lr}
1000263e:	46de      	mov	lr, fp
10002640:	4645      	mov	r5, r8
10002642:	464e      	mov	r6, r9
10002644:	4657      	mov	r7, sl
10002646:	b5e0      	push	{r5, r6, r7, lr}
10002648:	b083      	sub	sp, #12
1000264a:	0006      	movs	r6, r0
1000264c:	f000 f9ec 	bl	10002a28 <strlen>
10002650:	23d0      	movs	r3, #208	; 0xd0
10002652:	061b      	lsls	r3, r3, #24
10002654:	681c      	ldr	r4, [r3, #0]
10002656:	4b30      	ldr	r3, [pc, #192]	; (10002718 <__wrap_puts+0xdc>)
10002658:	0005      	movs	r5, r0
1000265a:	a901      	add	r1, sp, #4
1000265c:	0018      	movs	r0, r3
1000265e:	469b      	mov	fp, r3
10002660:	f000 fa92 	bl	10002b88 <__mutex_try_enter_veneer>
10002664:	4680      	mov	r8, r0
10002666:	2800      	cmp	r0, #0
10002668:	d03d      	beq.n	100026e6 <__wrap_puts+0xaa>
1000266a:	4b2c      	ldr	r3, [pc, #176]	; (1000271c <__wrap_puts+0xe0>)
1000266c:	681c      	ldr	r4, [r3, #0]
1000266e:	469a      	mov	sl, r3
10002670:	2c00      	cmp	r4, #0
10002672:	d047      	beq.n	10002704 <__wrap_puts+0xc8>
10002674:	230a      	movs	r3, #10
10002676:	4f2a      	ldr	r7, [pc, #168]	; (10002720 <__wrap_puts+0xe4>)
10002678:	4699      	mov	r9, r3
1000267a:	e002      	b.n	10002682 <__wrap_puts+0x46>
1000267c:	68e4      	ldr	r4, [r4, #12]
1000267e:	2c00      	cmp	r4, #0
10002680:	d017      	beq.n	100026b2 <__wrap_puts+0x76>
10002682:	6823      	ldr	r3, [r4, #0]
10002684:	2b00      	cmp	r3, #0
10002686:	d0f9      	beq.n	1000267c <__wrap_puts+0x40>
10002688:	683b      	ldr	r3, [r7, #0]
1000268a:	2b00      	cmp	r3, #0
1000268c:	d001      	beq.n	10002692 <__wrap_puts+0x56>
1000268e:	42a3      	cmp	r3, r4
10002690:	d1f4      	bne.n	1000267c <__wrap_puts+0x40>
10002692:	0020      	movs	r0, r4
10002694:	002a      	movs	r2, r5
10002696:	0031      	movs	r1, r6
10002698:	f7ff ff34 	bl	10002504 <stdio_out_chars_crlf>
1000269c:	466b      	mov	r3, sp
1000269e:	464a      	mov	r2, r9
100026a0:	0020      	movs	r0, r4
100026a2:	711a      	strb	r2, [r3, #4]
100026a4:	a901      	add	r1, sp, #4
100026a6:	2201      	movs	r2, #1
100026a8:	f7ff ff2c 	bl	10002504 <stdio_out_chars_crlf>
100026ac:	68e4      	ldr	r4, [r4, #12]
100026ae:	2c00      	cmp	r4, #0
100026b0:	d1e7      	bne.n	10002682 <__wrap_puts+0x46>
100026b2:	4643      	mov	r3, r8
100026b4:	2b00      	cmp	r3, #0
100026b6:	d125      	bne.n	10002704 <__wrap_puts+0xc8>
100026b8:	4653      	mov	r3, sl
100026ba:	681c      	ldr	r4, [r3, #0]
100026bc:	2c00      	cmp	r4, #0
100026be:	d006      	beq.n	100026ce <__wrap_puts+0x92>
100026c0:	6863      	ldr	r3, [r4, #4]
100026c2:	2b00      	cmp	r3, #0
100026c4:	d00b      	beq.n	100026de <__wrap_puts+0xa2>
100026c6:	4798      	blx	r3
100026c8:	68e4      	ldr	r4, [r4, #12]
100026ca:	2c00      	cmp	r4, #0
100026cc:	d1f8      	bne.n	100026c0 <__wrap_puts+0x84>
100026ce:	0028      	movs	r0, r5
100026d0:	b003      	add	sp, #12
100026d2:	bcf0      	pop	{r4, r5, r6, r7}
100026d4:	46bb      	mov	fp, r7
100026d6:	46b2      	mov	sl, r6
100026d8:	46a9      	mov	r9, r5
100026da:	46a0      	mov	r8, r4
100026dc:	bdf0      	pop	{r4, r5, r6, r7, pc}
100026de:	68e4      	ldr	r4, [r4, #12]
100026e0:	2c00      	cmp	r4, #0
100026e2:	d1ed      	bne.n	100026c0 <__wrap_puts+0x84>
100026e4:	e7f3      	b.n	100026ce <__wrap_puts+0x92>
100026e6:	9b01      	ldr	r3, [sp, #4]
100026e8:	b264      	sxtb	r4, r4
100026ea:	429c      	cmp	r4, r3
100026ec:	d00e      	beq.n	1000270c <__wrap_puts+0xd0>
100026ee:	4658      	mov	r0, fp
100026f0:	f000 fa52 	bl	10002b98 <__mutex_enter_blocking_veneer>
100026f4:	4b09      	ldr	r3, [pc, #36]	; (1000271c <__wrap_puts+0xe0>)
100026f6:	681c      	ldr	r4, [r3, #0]
100026f8:	469a      	mov	sl, r3
100026fa:	2c00      	cmp	r4, #0
100026fc:	d002      	beq.n	10002704 <__wrap_puts+0xc8>
100026fe:	2301      	movs	r3, #1
10002700:	4698      	mov	r8, r3
10002702:	e7b7      	b.n	10002674 <__wrap_puts+0x38>
10002704:	4658      	mov	r0, fp
10002706:	f000 fa27 	bl	10002b58 <__mutex_exit_veneer>
1000270a:	e7d5      	b.n	100026b8 <__wrap_puts+0x7c>
1000270c:	4b03      	ldr	r3, [pc, #12]	; (1000271c <__wrap_puts+0xe0>)
1000270e:	681c      	ldr	r4, [r3, #0]
10002710:	469a      	mov	sl, r3
10002712:	2c00      	cmp	r4, #0
10002714:	d1ae      	bne.n	10002674 <__wrap_puts+0x38>
10002716:	e7da      	b.n	100026ce <__wrap_puts+0x92>
10002718:	20000654 	.word	0x20000654
1000271c:	20000a08 	.word	0x20000a08
10002720:	20000a0c 	.word	0x20000a0c

10002724 <stdio_set_driver_enabled>:
10002724:	4a0a      	ldr	r2, [pc, #40]	; (10002750 <stdio_set_driver_enabled+0x2c>)
10002726:	6813      	ldr	r3, [r2, #0]
10002728:	2b00      	cmp	r3, #0
1000272a:	d105      	bne.n	10002738 <stdio_set_driver_enabled+0x14>
1000272c:	e00c      	b.n	10002748 <stdio_set_driver_enabled+0x24>
1000272e:	001a      	movs	r2, r3
10002730:	68db      	ldr	r3, [r3, #12]
10002732:	320c      	adds	r2, #12
10002734:	2b00      	cmp	r3, #0
10002736:	d007      	beq.n	10002748 <stdio_set_driver_enabled+0x24>
10002738:	4298      	cmp	r0, r3
1000273a:	d1f8      	bne.n	1000272e <stdio_set_driver_enabled+0xa>
1000273c:	2900      	cmp	r1, #0
1000273e:	d102      	bne.n	10002746 <stdio_set_driver_enabled+0x22>
10002740:	68c3      	ldr	r3, [r0, #12]
10002742:	6013      	str	r3, [r2, #0]
10002744:	60c1      	str	r1, [r0, #12]
10002746:	4770      	bx	lr
10002748:	2900      	cmp	r1, #0
1000274a:	d0fc      	beq.n	10002746 <stdio_set_driver_enabled+0x22>
1000274c:	6010      	str	r0, [r2, #0]
1000274e:	e7fa      	b.n	10002746 <stdio_set_driver_enabled+0x22>
10002750:	20000a08 	.word	0x20000a08

10002754 <stdio_init_all>:
10002754:	b510      	push	{r4, lr}
10002756:	f000 f843 	bl	100027e0 <stdio_uart_init>
1000275a:	bd10      	pop	{r4, pc}

1000275c <stdio_uart_out_chars>:
1000275c:	b5f0      	push	{r4, r5, r6, r7, lr}
1000275e:	2900      	cmp	r1, #0
10002760:	dd15      	ble.n	1000278e <stdio_uart_out_chars+0x32>
10002762:	4b0e      	ldr	r3, [pc, #56]	; (1000279c <stdio_uart_out_chars+0x40>)
10002764:	270d      	movs	r7, #13
10002766:	681a      	ldr	r2, [r3, #0]
10002768:	4b0d      	ldr	r3, [pc, #52]	; (100027a0 <stdio_uart_out_chars+0x44>)
1000276a:	4c0e      	ldr	r4, [pc, #56]	; (100027a4 <stdio_uart_out_chars+0x48>)
1000276c:	18d3      	adds	r3, r2, r3
1000276e:	425d      	negs	r5, r3
10002770:	416b      	adcs	r3, r5
10002772:	1845      	adds	r5, r0, r1
10002774:	2120      	movs	r1, #32
10002776:	005b      	lsls	r3, r3, #1
10002778:	5f1e      	ldrsh	r6, [r3, r4]
1000277a:	7804      	ldrb	r4, [r0, #0]
1000277c:	42a6      	cmp	r6, r4
1000277e:	d007      	beq.n	10002790 <stdio_uart_out_chars+0x34>
10002780:	6993      	ldr	r3, [r2, #24]
10002782:	4219      	tst	r1, r3
10002784:	d1fc      	bne.n	10002780 <stdio_uart_out_chars+0x24>
10002786:	3001      	adds	r0, #1
10002788:	6014      	str	r4, [r2, #0]
1000278a:	42a8      	cmp	r0, r5
1000278c:	d1f5      	bne.n	1000277a <stdio_uart_out_chars+0x1e>
1000278e:	bdf0      	pop	{r4, r5, r6, r7, pc}
10002790:	6993      	ldr	r3, [r2, #24]
10002792:	4219      	tst	r1, r3
10002794:	d1fc      	bne.n	10002790 <stdio_uart_out_chars+0x34>
10002796:	6017      	str	r7, [r2, #0]
10002798:	e7f2      	b.n	10002780 <stdio_uart_out_chars+0x24>
1000279a:	46c0      	nop			; (mov r8, r8)
1000279c:	20000a58 	.word	0x20000a58
100027a0:	bffc8000 	.word	0xbffc8000
100027a4:	20000a54 	.word	0x20000a54

100027a8 <stdio_uart_in_chars>:
100027a8:	b530      	push	{r4, r5, lr}
100027aa:	0005      	movs	r5, r0
100027ac:	2900      	cmp	r1, #0
100027ae:	dd12      	ble.n	100027d6 <stdio_uart_in_chars+0x2e>
100027b0:	2000      	movs	r0, #0
100027b2:	2410      	movs	r4, #16
100027b4:	4b09      	ldr	r3, [pc, #36]	; (100027dc <stdio_uart_in_chars+0x34>)
100027b6:	3d01      	subs	r5, #1
100027b8:	681a      	ldr	r2, [r3, #0]
100027ba:	6993      	ldr	r3, [r2, #24]
100027bc:	421c      	tst	r4, r3
100027be:	d108      	bne.n	100027d2 <stdio_uart_in_chars+0x2a>
100027c0:	3001      	adds	r0, #1
100027c2:	6993      	ldr	r3, [r2, #24]
100027c4:	421c      	tst	r4, r3
100027c6:	d1fc      	bne.n	100027c2 <stdio_uart_in_chars+0x1a>
100027c8:	6813      	ldr	r3, [r2, #0]
100027ca:	542b      	strb	r3, [r5, r0]
100027cc:	4281      	cmp	r1, r0
100027ce:	d1f4      	bne.n	100027ba <stdio_uart_in_chars+0x12>
100027d0:	bd30      	pop	{r4, r5, pc}
100027d2:	2800      	cmp	r0, #0
100027d4:	d1fc      	bne.n	100027d0 <stdio_uart_in_chars+0x28>
100027d6:	2003      	movs	r0, #3
100027d8:	4240      	negs	r0, r0
100027da:	e7f9      	b.n	100027d0 <stdio_uart_in_chars+0x28>
100027dc:	20000a58 	.word	0x20000a58

100027e0 <stdio_uart_init>:
100027e0:	21e1      	movs	r1, #225	; 0xe1
100027e2:	b510      	push	{r4, lr}
100027e4:	4b0b      	ldr	r3, [pc, #44]	; (10002814 <stdio_uart_init+0x34>)
100027e6:	480c      	ldr	r0, [pc, #48]	; (10002818 <stdio_uart_init+0x38>)
100027e8:	781b      	ldrb	r3, [r3, #0]
100027ea:	4b0c      	ldr	r3, [pc, #48]	; (1000281c <stdio_uart_init+0x3c>)
100027ec:	0249      	lsls	r1, r1, #9
100027ee:	781b      	ldrb	r3, [r3, #0]
100027f0:	4b0b      	ldr	r3, [pc, #44]	; (10002820 <stdio_uart_init+0x40>)
100027f2:	6018      	str	r0, [r3, #0]
100027f4:	f7fe ff68 	bl	100016c8 <uart_init>
100027f8:	2102      	movs	r1, #2
100027fa:	2000      	movs	r0, #0
100027fc:	f7fd ffe4 	bl	100007c8 <gpio_set_function>
10002800:	2102      	movs	r1, #2
10002802:	2001      	movs	r0, #1
10002804:	f7fd ffe0 	bl	100007c8 <gpio_set_function>
10002808:	2101      	movs	r1, #1
1000280a:	4806      	ldr	r0, [pc, #24]	; (10002824 <stdio_uart_init+0x44>)
1000280c:	f7ff ff8a 	bl	10002724 <stdio_set_driver_enabled>
10002810:	bd10      	pop	{r4, pc}
10002812:	46c0      	nop			; (mov r8, r8)
10002814:	10002d4c 	.word	0x10002d4c
10002818:	40034000 	.word	0x40034000
1000281c:	10002d48 	.word	0x10002d48
10002820:	20000a58 	.word	0x20000a58
10002824:	20000210 	.word	0x20000210

10002828 <pio_claim_unused_sm>:
10002828:	4b0b      	ldr	r3, [pc, #44]	; (10002858 <pio_claim_unused_sm+0x30>)
1000282a:	b510      	push	{r4, lr}
1000282c:	469c      	mov	ip, r3
1000282e:	4460      	add	r0, ip
10002830:	4243      	negs	r3, r0
10002832:	4158      	adcs	r0, r3
10002834:	4a09      	ldr	r2, [pc, #36]	; (1000285c <pio_claim_unused_sm+0x34>)
10002836:	0084      	lsls	r4, r0, #2
10002838:	b082      	sub	sp, #8
1000283a:	9200      	str	r2, [sp, #0]
1000283c:	4808      	ldr	r0, [pc, #32]	; (10002860 <pio_claim_unused_sm+0x38>)
1000283e:	0022      	movs	r2, r4
10002840:	1ce3      	adds	r3, r4, #3
10002842:	f7fe f82f 	bl	100008a4 <hw_claim_unused_from_range>
10002846:	4284      	cmp	r4, r0
10002848:	dc02      	bgt.n	10002850 <pio_claim_unused_sm+0x28>
1000284a:	1b00      	subs	r0, r0, r4
1000284c:	b002      	add	sp, #8
1000284e:	bd10      	pop	{r4, pc}
10002850:	2001      	movs	r0, #1
10002852:	4240      	negs	r0, r0
10002854:	e7fa      	b.n	1000284c <pio_claim_unused_sm+0x24>
10002856:	46c0      	nop			; (mov r8, r8)
10002858:	afd00000 	.word	0xafd00000
1000285c:	10002cf0 	.word	0x10002cf0
10002860:	20000a5e 	.word	0x20000a5e

10002864 <pio_add_program>:
10002864:	b5f0      	push	{r4, r5, r6, r7, lr}
10002866:	46de      	mov	lr, fp
10002868:	4657      	mov	r7, sl
1000286a:	464e      	mov	r6, r9
1000286c:	4645      	mov	r5, r8
1000286e:	4688      	mov	r8, r1
10002870:	b5e0      	push	{r5, r6, r7, lr}
10002872:	b083      	sub	sp, #12
10002874:	0006      	movs	r6, r0
10002876:	2405      	movs	r4, #5
10002878:	f7fd ffdc 	bl	10000834 <hw_claim_lock>
1000287c:	4643      	mov	r3, r8
1000287e:	791f      	ldrb	r7, [r3, #4]
10002880:	571c      	ldrsb	r4, [r3, r4]
10002882:	4b31      	ldr	r3, [pc, #196]	; (10002948 <pio_add_program+0xe4>)
10002884:	4682      	mov	sl, r0
10002886:	18f3      	adds	r3, r6, r3
10002888:	425a      	negs	r2, r3
1000288a:	4153      	adcs	r3, r2
1000288c:	009b      	lsls	r3, r3, #2
1000288e:	469c      	mov	ip, r3
10002890:	4a2e      	ldr	r2, [pc, #184]	; (1000294c <pio_add_program+0xe8>)
10002892:	0013      	movs	r3, r2
10002894:	4693      	mov	fp, r2
10002896:	4662      	mov	r2, ip
10002898:	589b      	ldr	r3, [r3, r2]
1000289a:	2201      	movs	r2, #1
1000289c:	4699      	mov	r9, r3
1000289e:	40ba      	lsls	r2, r7
100028a0:	2320      	movs	r3, #32
100028a2:	3a01      	subs	r2, #1
100028a4:	1bdb      	subs	r3, r3, r7
100028a6:	2c00      	cmp	r4, #0
100028a8:	db36      	blt.n	10002918 <pio_add_program+0xb4>
100028aa:	429c      	cmp	r4, r3
100028ac:	dc46      	bgt.n	1000293c <pio_add_program+0xd8>
100028ae:	40a2      	lsls	r2, r4
100028b0:	464b      	mov	r3, r9
100028b2:	4213      	tst	r3, r2
100028b4:	d142      	bne.n	1000293c <pio_add_program+0xd8>
100028b6:	9201      	str	r2, [sp, #4]
100028b8:	2f00      	cmp	r7, #0
100028ba:	d01c      	beq.n	100028f6 <pio_add_program+0x92>
100028bc:	4642      	mov	r2, r8
100028be:	4643      	mov	r3, r8
100028c0:	7852      	ldrb	r2, [r2, #1]
100028c2:	781b      	ldrb	r3, [r3, #0]
100028c4:	0212      	lsls	r2, r2, #8
100028c6:	431a      	orrs	r2, r3
100028c8:	4643      	mov	r3, r8
100028ca:	789b      	ldrb	r3, [r3, #2]
100028cc:	2580      	movs	r5, #128	; 0x80
100028ce:	041b      	lsls	r3, r3, #16
100028d0:	4313      	orrs	r3, r2
100028d2:	4642      	mov	r2, r8
100028d4:	78d0      	ldrb	r0, [r2, #3]
100028d6:	2200      	movs	r2, #0
100028d8:	0600      	lsls	r0, r0, #24
100028da:	4318      	orrs	r0, r3
100028dc:	01ad      	lsls	r5, r5, #6
100028de:	0053      	lsls	r3, r2, #1
100028e0:	5ac1      	ldrh	r1, [r0, r3]
100028e2:	42a9      	cmp	r1, r5
100028e4:	d200      	bcs.n	100028e8 <pio_add_program+0x84>
100028e6:	1909      	adds	r1, r1, r4
100028e8:	18a3      	adds	r3, r4, r2
100028ea:	3312      	adds	r3, #18
100028ec:	009b      	lsls	r3, r3, #2
100028ee:	3201      	adds	r2, #1
100028f0:	5199      	str	r1, [r3, r6]
100028f2:	42ba      	cmp	r2, r7
100028f4:	d3f3      	bcc.n	100028de <pio_add_program+0x7a>
100028f6:	464d      	mov	r5, r9
100028f8:	9b01      	ldr	r3, [sp, #4]
100028fa:	4662      	mov	r2, ip
100028fc:	431d      	orrs	r5, r3
100028fe:	465b      	mov	r3, fp
10002900:	4650      	mov	r0, sl
10002902:	509d      	str	r5, [r3, r2]
10002904:	f7fd ffa2 	bl	1000084c <hw_claim_unlock>
10002908:	0020      	movs	r0, r4
1000290a:	b003      	add	sp, #12
1000290c:	bcf0      	pop	{r4, r5, r6, r7}
1000290e:	46bb      	mov	fp, r7
10002910:	46b2      	mov	sl, r6
10002912:	46a9      	mov	r9, r5
10002914:	46a0      	mov	r8, r4
10002916:	bdf0      	pop	{r4, r5, r6, r7, pc}
10002918:	2b00      	cmp	r3, #0
1000291a:	db0f      	blt.n	1000293c <pio_add_program+0xd8>
1000291c:	0011      	movs	r1, r2
1000291e:	4648      	mov	r0, r9
10002920:	4099      	lsls	r1, r3
10002922:	001c      	movs	r4, r3
10002924:	9101      	str	r1, [sp, #4]
10002926:	4201      	tst	r1, r0
10002928:	d106      	bne.n	10002938 <pio_add_program+0xd4>
1000292a:	e7c5      	b.n	100028b8 <pio_add_program+0x54>
1000292c:	0015      	movs	r5, r2
1000292e:	4649      	mov	r1, r9
10002930:	409d      	lsls	r5, r3
10002932:	001c      	movs	r4, r3
10002934:	4229      	tst	r1, r5
10002936:	d004      	beq.n	10002942 <pio_add_program+0xde>
10002938:	3b01      	subs	r3, #1
1000293a:	d2f7      	bcs.n	1000292c <pio_add_program+0xc8>
1000293c:	4804      	ldr	r0, [pc, #16]	; (10002950 <pio_add_program+0xec>)
1000293e:	f7fe ffab 	bl	10001898 <panic>
10002942:	9501      	str	r5, [sp, #4]
10002944:	e7b8      	b.n	100028b8 <pio_add_program+0x54>
10002946:	46c0      	nop			; (mov r8, r8)
10002948:	afd00000 	.word	0xafd00000
1000294c:	200009b0 	.word	0x200009b0
10002950:	10002d14 	.word	0x10002d14

10002954 <pio_sm_init>:
10002954:	b5f0      	push	{r4, r5, r6, r7, lr}
10002956:	2501      	movs	r5, #1
10002958:	408d      	lsls	r5, r1
1000295a:	6804      	ldr	r4, [r0, #0]
1000295c:	43ac      	bics	r4, r5
1000295e:	6004      	str	r4, [r0, #0]
10002960:	2b00      	cmp	r3, #0
10002962:	d030      	beq.n	100029c6 <pio_sm_init+0x72>
10002964:	004d      	lsls	r5, r1, #1
10002966:	186c      	adds	r4, r5, r1
10002968:	00e4      	lsls	r4, r4, #3
1000296a:	1904      	adds	r4, r0, r4
1000296c:	0026      	movs	r6, r4
1000296e:	681f      	ldr	r7, [r3, #0]
10002970:	36c8      	adds	r6, #200	; 0xc8
10002972:	6037      	str	r7, [r6, #0]
10002974:	685f      	ldr	r7, [r3, #4]
10002976:	34dc      	adds	r4, #220	; 0xdc
10002978:	6077      	str	r7, [r6, #4]
1000297a:	689f      	ldr	r7, [r3, #8]
1000297c:	68db      	ldr	r3, [r3, #12]
1000297e:	60b7      	str	r7, [r6, #8]
10002980:	6023      	str	r3, [r4, #0]
10002982:	186b      	adds	r3, r5, r1
10002984:	00db      	lsls	r3, r3, #3
10002986:	001d      	movs	r5, r3
10002988:	2480      	movs	r4, #128	; 0x80
1000298a:	35d0      	adds	r5, #208	; 0xd0
1000298c:	1945      	adds	r5, r0, r5
1000298e:	0164      	lsls	r4, r4, #5
10002990:	432c      	orrs	r4, r5
10002992:	2580      	movs	r5, #128	; 0x80
10002994:	062d      	lsls	r5, r5, #24
10002996:	6025      	str	r5, [r4, #0]
10002998:	6025      	str	r5, [r4, #0]
1000299a:	4c14      	ldr	r4, [pc, #80]	; (100029ec <pio_sm_init+0x98>)
1000299c:	1d0d      	adds	r5, r1, #4
1000299e:	408c      	lsls	r4, r1
100029a0:	6084      	str	r4, [r0, #8]
100029a2:	2401      	movs	r4, #1
100029a4:	0027      	movs	r7, r4
100029a6:	40af      	lsls	r7, r5
100029a8:	003d      	movs	r5, r7
100029aa:	3108      	adds	r1, #8
100029ac:	408c      	lsls	r4, r1
100029ae:	211f      	movs	r1, #31
100029b0:	6806      	ldr	r6, [r0, #0]
100029b2:	400a      	ands	r2, r1
100029b4:	4335      	orrs	r5, r6
100029b6:	6005      	str	r5, [r0, #0]
100029b8:	6805      	ldr	r5, [r0, #0]
100029ba:	432c      	orrs	r4, r5
100029bc:	6004      	str	r4, [r0, #0]
100029be:	18c0      	adds	r0, r0, r3
100029c0:	30d8      	adds	r0, #216	; 0xd8
100029c2:	6002      	str	r2, [r0, #0]
100029c4:	bdf0      	pop	{r4, r5, r6, r7, pc}
100029c6:	004d      	lsls	r5, r1, #1
100029c8:	186c      	adds	r4, r5, r1
100029ca:	00e4      	lsls	r4, r4, #3
100029cc:	1904      	adds	r4, r0, r4
100029ce:	0026      	movs	r6, r4
100029d0:	2780      	movs	r7, #128	; 0x80
100029d2:	36c8      	adds	r6, #200	; 0xc8
100029d4:	027f      	lsls	r7, r7, #9
100029d6:	6037      	str	r7, [r6, #0]
100029d8:	27f8      	movs	r7, #248	; 0xf8
100029da:	027f      	lsls	r7, r7, #9
100029dc:	6077      	str	r7, [r6, #4]
100029de:	27c0      	movs	r7, #192	; 0xc0
100029e0:	34dc      	adds	r4, #220	; 0xdc
100029e2:	033f      	lsls	r7, r7, #12
100029e4:	60b7      	str	r7, [r6, #8]
100029e6:	6023      	str	r3, [r4, #0]
100029e8:	e7cb      	b.n	10002982 <pio_sm_init+0x2e>
100029ea:	46c0      	nop			; (mov r8, r8)
100029ec:	01010101 	.word	0x01010101

100029f0 <atexit>:
100029f0:	b510      	push	{r4, lr}
100029f2:	0001      	movs	r1, r0
100029f4:	2300      	movs	r3, #0
100029f6:	2200      	movs	r2, #0
100029f8:	2000      	movs	r0, #0
100029fa:	f000 f843 	bl	10002a84 <__register_exitproc>
100029fe:	bd10      	pop	{r4, pc}

10002a00 <__libc_fini_array>:
10002a00:	b570      	push	{r4, r5, r6, lr}
10002a02:	4c07      	ldr	r4, [pc, #28]	; (10002a20 <__libc_fini_array+0x20>)
10002a04:	4d07      	ldr	r5, [pc, #28]	; (10002a24 <__libc_fini_array+0x24>)
10002a06:	1b64      	subs	r4, r4, r5
10002a08:	10a4      	asrs	r4, r4, #2
10002a0a:	d005      	beq.n	10002a18 <__libc_fini_array+0x18>
10002a0c:	3c01      	subs	r4, #1
10002a0e:	00a3      	lsls	r3, r4, #2
10002a10:	58eb      	ldr	r3, [r5, r3]
10002a12:	4798      	blx	r3
10002a14:	2c00      	cmp	r4, #0
10002a16:	d1f9      	bne.n	10002a0c <__libc_fini_array+0xc>
10002a18:	f000 f89a 	bl	10002b50 <_fini>
10002a1c:	bd70      	pop	{r4, r5, r6, pc}
10002a1e:	46c0      	nop			; (mov r8, r8)
10002a20:	20000674 	.word	0x20000674
10002a24:	20000674 	.word	0x20000674

10002a28 <strlen>:
10002a28:	b510      	push	{r4, lr}
10002a2a:	0783      	lsls	r3, r0, #30
10002a2c:	d00a      	beq.n	10002a44 <strlen+0x1c>
10002a2e:	0003      	movs	r3, r0
10002a30:	2103      	movs	r1, #3
10002a32:	e002      	b.n	10002a3a <strlen+0x12>
10002a34:	3301      	adds	r3, #1
10002a36:	420b      	tst	r3, r1
10002a38:	d005      	beq.n	10002a46 <strlen+0x1e>
10002a3a:	781a      	ldrb	r2, [r3, #0]
10002a3c:	2a00      	cmp	r2, #0
10002a3e:	d1f9      	bne.n	10002a34 <strlen+0xc>
10002a40:	1a18      	subs	r0, r3, r0
10002a42:	bd10      	pop	{r4, pc}
10002a44:	0003      	movs	r3, r0
10002a46:	6819      	ldr	r1, [r3, #0]
10002a48:	4a0c      	ldr	r2, [pc, #48]	; (10002a7c <strlen+0x54>)
10002a4a:	4c0d      	ldr	r4, [pc, #52]	; (10002a80 <strlen+0x58>)
10002a4c:	188a      	adds	r2, r1, r2
10002a4e:	438a      	bics	r2, r1
10002a50:	4222      	tst	r2, r4
10002a52:	d10f      	bne.n	10002a74 <strlen+0x4c>
10002a54:	6859      	ldr	r1, [r3, #4]
10002a56:	4a09      	ldr	r2, [pc, #36]	; (10002a7c <strlen+0x54>)
10002a58:	3304      	adds	r3, #4
10002a5a:	188a      	adds	r2, r1, r2
10002a5c:	438a      	bics	r2, r1
10002a5e:	4222      	tst	r2, r4
10002a60:	d108      	bne.n	10002a74 <strlen+0x4c>
10002a62:	6859      	ldr	r1, [r3, #4]
10002a64:	4a05      	ldr	r2, [pc, #20]	; (10002a7c <strlen+0x54>)
10002a66:	3304      	adds	r3, #4
10002a68:	188a      	adds	r2, r1, r2
10002a6a:	438a      	bics	r2, r1
10002a6c:	4222      	tst	r2, r4
10002a6e:	d0f1      	beq.n	10002a54 <strlen+0x2c>
10002a70:	e000      	b.n	10002a74 <strlen+0x4c>
10002a72:	3301      	adds	r3, #1
10002a74:	781a      	ldrb	r2, [r3, #0]
10002a76:	2a00      	cmp	r2, #0
10002a78:	d1fb      	bne.n	10002a72 <strlen+0x4a>
10002a7a:	e7e1      	b.n	10002a40 <strlen+0x18>
10002a7c:	fefefeff 	.word	0xfefefeff
10002a80:	80808080 	.word	0x80808080

10002a84 <__register_exitproc>:
10002a84:	b5f0      	push	{r4, r5, r6, r7, lr}
10002a86:	46d6      	mov	lr, sl
10002a88:	464f      	mov	r7, r9
10002a8a:	4646      	mov	r6, r8
10002a8c:	4698      	mov	r8, r3
10002a8e:	4b26      	ldr	r3, [pc, #152]	; (10002b28 <__register_exitproc+0xa4>)
10002a90:	b5c0      	push	{r6, r7, lr}
10002a92:	0006      	movs	r6, r0
10002a94:	6818      	ldr	r0, [r3, #0]
10002a96:	4691      	mov	r9, r2
10002a98:	469a      	mov	sl, r3
10002a9a:	000f      	movs	r7, r1
10002a9c:	f000 f854 	bl	10002b48 <__retarget_lock_acquire_recursive>
10002aa0:	22a4      	movs	r2, #164	; 0xa4
10002aa2:	4b22      	ldr	r3, [pc, #136]	; (10002b2c <__register_exitproc+0xa8>)
10002aa4:	0052      	lsls	r2, r2, #1
10002aa6:	681b      	ldr	r3, [r3, #0]
10002aa8:	589d      	ldr	r5, [r3, r2]
10002aaa:	2d00      	cmp	r5, #0
10002aac:	d032      	beq.n	10002b14 <__register_exitproc+0x90>
10002aae:	4653      	mov	r3, sl
10002ab0:	686c      	ldr	r4, [r5, #4]
10002ab2:	6818      	ldr	r0, [r3, #0]
10002ab4:	2c1f      	cmp	r4, #31
10002ab6:	dc32      	bgt.n	10002b1e <__register_exitproc+0x9a>
10002ab8:	2e00      	cmp	r6, #0
10002aba:	d10c      	bne.n	10002ad6 <__register_exitproc+0x52>
10002abc:	1c63      	adds	r3, r4, #1
10002abe:	3402      	adds	r4, #2
10002ac0:	00a4      	lsls	r4, r4, #2
10002ac2:	606b      	str	r3, [r5, #4]
10002ac4:	5167      	str	r7, [r4, r5]
10002ac6:	f000 f841 	bl	10002b4c <__retarget_lock_release_recursive>
10002aca:	2000      	movs	r0, #0
10002acc:	bce0      	pop	{r5, r6, r7}
10002ace:	46ba      	mov	sl, r7
10002ad0:	46b1      	mov	r9, r6
10002ad2:	46a8      	mov	r8, r5
10002ad4:	bdf0      	pop	{r4, r5, r6, r7, pc}
10002ad6:	4649      	mov	r1, r9
10002ad8:	2288      	movs	r2, #136	; 0x88
10002ada:	00a3      	lsls	r3, r4, #2
10002adc:	18eb      	adds	r3, r5, r3
10002ade:	5099      	str	r1, [r3, r2]
10002ae0:	21c4      	movs	r1, #196	; 0xc4
10002ae2:	0049      	lsls	r1, r1, #1
10002ae4:	468c      	mov	ip, r1
10002ae6:	44ac      	add	ip, r5
10002ae8:	4661      	mov	r1, ip
10002aea:	3a87      	subs	r2, #135	; 0x87
10002aec:	40a2      	lsls	r2, r4
10002aee:	6809      	ldr	r1, [r1, #0]
10002af0:	4691      	mov	r9, r2
10002af2:	4311      	orrs	r1, r2
10002af4:	4662      	mov	r2, ip
10002af6:	6011      	str	r1, [r2, #0]
10002af8:	2184      	movs	r1, #132	; 0x84
10002afa:	4642      	mov	r2, r8
10002afc:	0049      	lsls	r1, r1, #1
10002afe:	505a      	str	r2, [r3, r1]
10002b00:	2e02      	cmp	r6, #2
10002b02:	d1db      	bne.n	10002abc <__register_exitproc+0x38>
10002b04:	0029      	movs	r1, r5
10002b06:	464a      	mov	r2, r9
10002b08:	318d      	adds	r1, #141	; 0x8d
10002b0a:	31ff      	adds	r1, #255	; 0xff
10002b0c:	680b      	ldr	r3, [r1, #0]
10002b0e:	4313      	orrs	r3, r2
10002b10:	600b      	str	r3, [r1, #0]
10002b12:	e7d3      	b.n	10002abc <__register_exitproc+0x38>
10002b14:	001d      	movs	r5, r3
10002b16:	354d      	adds	r5, #77	; 0x4d
10002b18:	35ff      	adds	r5, #255	; 0xff
10002b1a:	509d      	str	r5, [r3, r2]
10002b1c:	e7c7      	b.n	10002aae <__register_exitproc+0x2a>
10002b1e:	f000 f815 	bl	10002b4c <__retarget_lock_release_recursive>
10002b22:	2001      	movs	r0, #1
10002b24:	4240      	negs	r0, r0
10002b26:	e7d1      	b.n	10002acc <__register_exitproc+0x48>
10002b28:	20000650 	.word	0x20000650
10002b2c:	10002d28 	.word	0x10002d28

10002b30 <register_fini>:
10002b30:	4b03      	ldr	r3, [pc, #12]	; (10002b40 <register_fini+0x10>)
10002b32:	b510      	push	{r4, lr}
10002b34:	2b00      	cmp	r3, #0
10002b36:	d002      	beq.n	10002b3e <register_fini+0xe>
10002b38:	4802      	ldr	r0, [pc, #8]	; (10002b44 <register_fini+0x14>)
10002b3a:	f7ff ff59 	bl	100029f0 <atexit>
10002b3e:	bd10      	pop	{r4, pc}
10002b40:	00000000 	.word	0x00000000
10002b44:	10002a01 	.word	0x10002a01

10002b48 <__retarget_lock_acquire_recursive>:
10002b48:	4770      	bx	lr
10002b4a:	46c0      	nop			; (mov r8, r8)

10002b4c <__retarget_lock_release_recursive>:
10002b4c:	4770      	bx	lr
10002b4e:	46c0      	nop			; (mov r8, r8)

10002b50 <_fini>:
10002b50:	b5f8      	push	{r3, r4, r5, r6, r7, lr}
10002b52:	46c0      	nop			; (mov r8, r8)
10002b54:	0000      	movs	r0, r0
	...

10002b58 <__mutex_exit_veneer>:
10002b58:	b401      	push	{r0}
10002b5a:	4802      	ldr	r0, [pc, #8]	; (10002b64 <__mutex_exit_veneer+0xc>)
10002b5c:	4684      	mov	ip, r0
10002b5e:	bc01      	pop	{r0}
10002b60:	4760      	bx	ip
10002b62:	bf00      	nop
10002b64:	20000149 	.word	0x20000149

10002b68 <____aeabi_ldiv0_veneer>:
10002b68:	b401      	push	{r0}
10002b6a:	4802      	ldr	r0, [pc, #8]	; (10002b74 <____aeabi_ldiv0_veneer+0xc>)
10002b6c:	4684      	mov	ip, r0
10002b6e:	bc01      	pop	{r0}
10002b70:	4760      	bx	ip
10002b72:	bf00      	nop
10002b74:	20000171 	.word	0x20000171

10002b78 <____aeabi_idiv0_veneer>:
10002b78:	b401      	push	{r0}
10002b7a:	4802      	ldr	r0, [pc, #8]	; (10002b84 <____aeabi_idiv0_veneer+0xc>)
10002b7c:	4684      	mov	ip, r0
10002b7e:	bc01      	pop	{r0}
10002b80:	4760      	bx	ip
10002b82:	bf00      	nop
10002b84:	20000171 	.word	0x20000171

10002b88 <__mutex_try_enter_veneer>:
10002b88:	b401      	push	{r0}
10002b8a:	4802      	ldr	r0, [pc, #8]	; (10002b94 <__mutex_try_enter_veneer+0xc>)
10002b8c:	4684      	mov	ip, r0
10002b8e:	bc01      	pop	{r0}
10002b90:	4760      	bx	ip
10002b92:	bf00      	nop
10002b94:	20000109 	.word	0x20000109

10002b98 <__mutex_enter_blocking_veneer>:
10002b98:	b401      	push	{r0}
10002b9a:	4802      	ldr	r0, [pc, #8]	; (10002ba4 <__mutex_enter_blocking_veneer+0xc>)
10002b9c:	4684      	mov	ip, r0
10002b9e:	bc01      	pop	{r0}
10002ba0:	4760      	bx	ip
10002ba2:	bf00      	nop
10002ba4:	200000c1 	.word	0x200000c1

Disassembly of section .data:

200000c0 <mutex_enter_blocking>:
200000c0:	23d0      	movs	r3, #208	; 0xd0
200000c2:	b530      	push	{r4, r5, lr}
200000c4:	2500      	movs	r5, #0
200000c6:	061b      	lsls	r3, r3, #24
200000c8:	2400      	movs	r4, #0
200000ca:	575d      	ldrsb	r5, [r3, r5]
200000cc:	e006      	b.n	200000dc <mutex_enter_blocking+0x1c>
200000ce:	6803      	ldr	r3, [r0, #0]
200000d0:	f3bf 8f5f 	dmb	sy
200000d4:	601c      	str	r4, [r3, #0]
200000d6:	f381 8810 	msr	PRIMASK, r1
200000da:	bf20      	wfe
200000dc:	6802      	ldr	r2, [r0, #0]
200000de:	f3ef 8110 	mrs	r1, PRIMASK
200000e2:	b672      	cpsid	i
200000e4:	6813      	ldr	r3, [r2, #0]
200000e6:	2b00      	cmp	r3, #0
200000e8:	d0fc      	beq.n	200000e4 <mutex_enter_blocking+0x24>
200000ea:	f3bf 8f5f 	dmb	sy
200000ee:	7903      	ldrb	r3, [r0, #4]
200000f0:	2b7f      	cmp	r3, #127	; 0x7f
200000f2:	d9ec      	bls.n	200000ce <mutex_enter_blocking+0xe>
200000f4:	7105      	strb	r5, [r0, #4]
200000f6:	6803      	ldr	r3, [r0, #0]
200000f8:	f3bf 8f5f 	dmb	sy
200000fc:	2200      	movs	r2, #0
200000fe:	601a      	str	r2, [r3, #0]
20000100:	f381 8810 	msr	PRIMASK, r1
20000104:	bd30      	pop	{r4, r5, pc}
20000106:	46c0      	nop			; (mov r8, r8)

20000108 <mutex_try_enter>:
20000108:	0003      	movs	r3, r0
2000010a:	6800      	ldr	r0, [r0, #0]
2000010c:	f3ef 8c10 	mrs	ip, PRIMASK
20000110:	b672      	cpsid	i
20000112:	6802      	ldr	r2, [r0, #0]
20000114:	2a00      	cmp	r2, #0
20000116:	d0fc      	beq.n	20000112 <mutex_try_enter+0xa>
20000118:	f3bf 8f5f 	dmb	sy
2000011c:	2204      	movs	r2, #4
2000011e:	569a      	ldrsb	r2, [r3, r2]
20000120:	2a00      	cmp	r2, #0
20000122:	db04      	blt.n	2000012e <mutex_try_enter+0x26>
20000124:	2900      	cmp	r1, #0
20000126:	d000      	beq.n	2000012a <mutex_try_enter+0x22>
20000128:	600a      	str	r2, [r1, #0]
2000012a:	2000      	movs	r0, #0
2000012c:	e004      	b.n	20000138 <mutex_try_enter+0x30>
2000012e:	22d0      	movs	r2, #208	; 0xd0
20000130:	2001      	movs	r0, #1
20000132:	0612      	lsls	r2, r2, #24
20000134:	6812      	ldr	r2, [r2, #0]
20000136:	711a      	strb	r2, [r3, #4]
20000138:	681b      	ldr	r3, [r3, #0]
2000013a:	f3bf 8f5f 	dmb	sy
2000013e:	2200      	movs	r2, #0
20000140:	601a      	str	r2, [r3, #0]
20000142:	f38c 8810 	msr	PRIMASK, ip
20000146:	4770      	bx	lr

20000148 <mutex_exit>:
20000148:	6802      	ldr	r2, [r0, #0]
2000014a:	f3ef 8110 	mrs	r1, PRIMASK
2000014e:	b672      	cpsid	i
20000150:	6813      	ldr	r3, [r2, #0]
20000152:	2b00      	cmp	r3, #0
20000154:	d0fc      	beq.n	20000150 <mutex_exit+0x8>
20000156:	f3bf 8f5f 	dmb	sy
2000015a:	23ff      	movs	r3, #255	; 0xff
2000015c:	7103      	strb	r3, [r0, #4]
2000015e:	6803      	ldr	r3, [r0, #0]
20000160:	f3bf 8f5f 	dmb	sy
20000164:	2200      	movs	r2, #0
20000166:	601a      	str	r2, [r3, #0]
20000168:	f381 8810 	msr	PRIMASK, r1
2000016c:	bf40      	sev
2000016e:	4770      	bx	lr

20000170 <__aeabi_idiv0>:
20000170:	4770      	bx	lr
20000172:	46c0      	nop			; (mov r8, r8)

20000174 <striped_spin_lock_num>:
20000174:	0010 0000                                   ....

20000178 <irq_handler_chain_slots>:
20000178:	00000000 	.word	0x00000000
2000017c:	00010000 	.word	0x00010000
	...
20000188:	00020000 	.word	0x00020000
	...
20000194:	00030000 	.word	0x00030000
	...
200001a0:	00ff0000 	.word	0x00ff0000
200001a4:	00000000 	.word	0x00000000

200001a8 <irq_handler_chain_first_slot>:
200001a8:	b500      	push	{lr}
200001aa:	6848      	ldr	r0, [r1, #4]
200001ac:	3101      	adds	r1, #1
200001ae:	468e      	mov	lr, r1
200001b0:	4700      	bx	r0

200001b2 <irq_handler_chain_remove_tail>:
200001b2:	4670      	mov	r0, lr
200001b4:	3809      	subs	r0, #9
200001b6:	4901      	ldr	r1, [pc, #4]	; (200001bc <irq_handler_chain_remove_tail+0xa>)
200001b8:	4788      	blx	r1
200001ba:	bd00      	pop	{pc}
200001bc:	10000bd9 	.word	0x10000bd9

200001c0 <default_alarm_pool>:
200001c0:	200001d8 00000000 200006a0 200009c8     ... ....... ... 
	...

200001d8 <default_alarm_pool_heap>:
200001d8:	200009d8 00000000 00000000 00000010     ... ............
	...

200001f0 <aeabi_bits_funcs>:
200001f0:	00003350 	.word	0x00003350
200001f4:	0000334c 	.word	0x0000334c
200001f8:	00003354 	.word	0x00003354
200001fc:	00003352 	.word	0x00003352

20000200 <aeabi_bits_funcs_end>:
20000200:	0000534d 	.word	0x0000534d
20000204:	0000434d 	.word	0x0000434d
20000208:	00003453 	.word	0x00003453
2000020c:	00003443 	.word	0x00003443

20000210 <stdio_uart>:
20000210:	1000275d 00000000 100027a9 00000000     ]'.......'......
20000220:	00000100 00000000                       ........

20000228 <impure_data>:
20000228:	00000000 20000514 2000057c 200005e4     ....... |.. ... 
	...
200002d0:	00000001 00000000 abcd330e e66d1234     .........3..4.m.
200002e0:	0005deec 0000000b 00000000 00000000     ................
	...

20000650 <__atexit_recursive_mutex>:
20000650:	200009ac                                ... 

20000654 <print_mutex>:
	...

2000065c <__mutex_array_end>:
2000065c:	100024e9 	.word	0x100024e9
20000660:	10001dfd 	.word	0x10001dfd
20000664:	100022f1 	.word	0x100022f1
20000668:	10002459 	.word	0x10002459

2000066c <__init_array_start>:
2000066c:	10002b31 	.word	0x10002b31

20000670 <__frame_dummy_init_array_entry>:
20000670:	100002c5                                ....
